
SensorArrayReadoutEtherCAT.elf:     file format elf32-littlearm

Sections:
Idx Name          Size      VMA       LMA       File off  Algn
  0 .text         00004ed4  00000000  00000000  00010000  2**3
                  CONTENTS, ALLOC, LOAD, READONLY, CODE
  1 .relocate     00000154  20000000  00004ed4  00020000  2**2
                  CONTENTS, ALLOC, LOAD, DATA
  2 .bkupram      00000000  47000000  47000000  00020154  2**0
                  CONTENTS
  3 .qspi         00000000  04000000  04000000  00020154  2**0
                  CONTENTS
  4 .bss          00001218  20000160  00005040  00020160  2**4
                  ALLOC
  5 .stack        00010000  20001378  00006258  00020160  2**0
                  ALLOC
  6 .ARM.attributes 0000002e  00000000  00000000  00020154  2**0
                  CONTENTS, READONLY
  7 .comment      00000059  00000000  00000000  00020182  2**0
                  CONTENTS, READONLY
  8 .debug_info   0003029f  00000000  00000000  000201db  2**0
                  CONTENTS, READONLY, DEBUGGING
  9 .debug_abbrev 000037bf  00000000  00000000  0005047a  2**0
                  CONTENTS, READONLY, DEBUGGING
 10 .debug_loc    000101ae  00000000  00000000  00053c39  2**0
                  CONTENTS, READONLY, DEBUGGING
 11 .debug_aranges 00000d20  00000000  00000000  00063de7  2**0
                  CONTENTS, READONLY, DEBUGGING
 12 .debug_ranges 00000e08  00000000  00000000  00064b07  2**0
                  CONTENTS, READONLY, DEBUGGING
 13 .debug_macro  00034c0f  00000000  00000000  0006590f  2**0
                  CONTENTS, READONLY, DEBUGGING
 14 .debug_line   00015586  00000000  00000000  0009a51e  2**0
                  CONTENTS, READONLY, DEBUGGING
 15 .debug_str    00121c11  00000000  00000000  000afaa4  2**0
                  CONTENTS, READONLY, DEBUGGING
 16 .debug_frame  000027cc  00000000  00000000  001d16b8  2**2
                  CONTENTS, READONLY, DEBUGGING

Disassembly of section .text:

00000000 <exception_table>:
       0:	78 13 01 20 e1 02 00 00 dd 02 00 00 dd 02 00 00     x.. ............
      10:	dd 02 00 00 dd 02 00 00 dd 02 00 00 00 00 00 00     ................
	...
      2c:	dd 02 00 00 dd 02 00 00 00 00 00 00 dd 02 00 00     ................
      3c:	dd 02 00 00 dd 02 00 00 dd 02 00 00 dd 02 00 00     ................
      4c:	dd 02 00 00 dd 02 00 00 dd 02 00 00 dd 02 00 00     ................
      5c:	dd 02 00 00 dd 02 00 00 dd 02 00 00 dd 02 00 00     ................
      6c:	dd 02 00 00 dd 02 00 00 dd 02 00 00 dd 02 00 00     ................
      7c:	dd 02 00 00 dd 02 00 00 dd 02 00 00 dd 02 00 00     ................
      8c:	dd 02 00 00 dd 02 00 00 dd 02 00 00 dd 02 00 00     ................
      9c:	dd 02 00 00 dd 02 00 00 dd 02 00 00 dd 02 00 00     ................
      ac:	dd 02 00 00 dd 02 00 00 dd 02 00 00 dd 02 00 00     ................
      bc:	a9 0f 00 00 b5 0f 00 00 c1 0f 00 00 cd 0f 00 00     ................
      cc:	d9 0f 00 00 dd 02 00 00 dd 02 00 00 dd 02 00 00     ................
      dc:	dd 02 00 00 dd 02 00 00 dd 02 00 00 00 00 00 00     ................
	...
      f4:	b5 10 00 00 dd 02 00 00 dd 02 00 00 dd 02 00 00     ................
     104:	dd 02 00 00 dd 02 00 00 dd 02 00 00 dd 02 00 00     ................
     114:	dd 02 00 00 dd 02 00 00 dd 02 00 00 dd 02 00 00     ................
     124:	dd 02 00 00 dd 02 00 00 dd 02 00 00 dd 02 00 00     ................
     134:	dd 02 00 00 dd 02 00 00 dd 02 00 00 dd 02 00 00     ................
     144:	dd 02 00 00 dd 02 00 00 dd 02 00 00 dd 02 00 00     ................
     154:	dd 02 00 00 dd 02 00 00 dd 02 00 00 dd 02 00 00     ................
     164:	dd 02 00 00 dd 02 00 00 dd 02 00 00 dd 02 00 00     ................
     174:	dd 02 00 00 dd 02 00 00 dd 02 00 00 dd 02 00 00     ................
     184:	dd 02 00 00 dd 02 00 00 dd 02 00 00 dd 02 00 00     ................
     194:	dd 02 00 00 dd 02 00 00 dd 02 00 00 dd 02 00 00     ................
     1a4:	dd 02 00 00 dd 02 00 00 dd 02 00 00 dd 02 00 00     ................
     1b4:	dd 02 00 00 dd 02 00 00 dd 02 00 00 dd 02 00 00     ................
     1c4:	dd 02 00 00 dd 02 00 00 dd 02 00 00 dd 02 00 00     ................
     1d4:	dd 02 00 00 dd 02 00 00 dd 02 00 00 dd 02 00 00     ................
     1e4:	dd 02 00 00 dd 02 00 00 dd 02 00 00 dd 02 00 00     ................
     1f4:	dd 02 00 00 f5 21 00 00 dd 02 00 00 dd 02 00 00     .....!..........
     204:	dd 02 00 00 39 07 00 00 dd 02 00 00 dd 02 00 00     ....9...........
     214:	dd 02 00 00 dd 02 00 00 dd 02 00 00 dd 02 00 00     ................
     224:	dd 02 00 00 dd 02 00 00 dd 02 00 00 dd 02 00 00     ................
     234:	dd 02 00 00 dd 02 00 00 dd 02 00 00 dd 02 00 00     ................
     244:	dd 02 00 00 dd 02 00 00 dd 02 00 00 dd 02 00 00     ................
     254:	dd 02 00 00 dd 02 00 00 dd 02 00 00 dd 02 00 00     ................

00000264 <__do_global_dtors_aux>:
     264:	b510      	push	{r4, lr}
     266:	4c05      	ldr	r4, [pc, #20]	; (27c <__do_global_dtors_aux+0x18>)
     268:	7823      	ldrb	r3, [r4, #0]
     26a:	b933      	cbnz	r3, 27a <__do_global_dtors_aux+0x16>
     26c:	4b04      	ldr	r3, [pc, #16]	; (280 <__do_global_dtors_aux+0x1c>)
     26e:	b113      	cbz	r3, 276 <__do_global_dtors_aux+0x12>
     270:	4804      	ldr	r0, [pc, #16]	; (284 <__do_global_dtors_aux+0x20>)
     272:	f3af 8000 	nop.w
     276:	2301      	movs	r3, #1
     278:	7023      	strb	r3, [r4, #0]
     27a:	bd10      	pop	{r4, pc}
     27c:	20000160 	.word	0x20000160
     280:	00000000 	.word	0x00000000
     284:	00004ed4 	.word	0x00004ed4

00000288 <frame_dummy>:
     288:	4b0c      	ldr	r3, [pc, #48]	; (2bc <frame_dummy+0x34>)
     28a:	b143      	cbz	r3, 29e <frame_dummy+0x16>
     28c:	480c      	ldr	r0, [pc, #48]	; (2c0 <frame_dummy+0x38>)
     28e:	490d      	ldr	r1, [pc, #52]	; (2c4 <frame_dummy+0x3c>)
     290:	b510      	push	{r4, lr}
     292:	f3af 8000 	nop.w
     296:	480c      	ldr	r0, [pc, #48]	; (2c8 <frame_dummy+0x40>)
     298:	6803      	ldr	r3, [r0, #0]
     29a:	b923      	cbnz	r3, 2a6 <frame_dummy+0x1e>
     29c:	bd10      	pop	{r4, pc}
     29e:	480a      	ldr	r0, [pc, #40]	; (2c8 <frame_dummy+0x40>)
     2a0:	6803      	ldr	r3, [r0, #0]
     2a2:	b933      	cbnz	r3, 2b2 <frame_dummy+0x2a>
     2a4:	4770      	bx	lr
     2a6:	4b09      	ldr	r3, [pc, #36]	; (2cc <frame_dummy+0x44>)
     2a8:	2b00      	cmp	r3, #0
     2aa:	d0f7      	beq.n	29c <frame_dummy+0x14>
     2ac:	e8bd 4010 	ldmia.w	sp!, {r4, lr}
     2b0:	4718      	bx	r3
     2b2:	4b06      	ldr	r3, [pc, #24]	; (2cc <frame_dummy+0x44>)
     2b4:	2b00      	cmp	r3, #0
     2b6:	d0f5      	beq.n	2a4 <frame_dummy+0x1c>
     2b8:	4718      	bx	r3
     2ba:	bf00      	nop
     2bc:	00000000 	.word	0x00000000
     2c0:	00004ed4 	.word	0x00004ed4
     2c4:	20000164 	.word	0x20000164
     2c8:	00004ed4 	.word	0x00004ed4
     2cc:	00000000 	.word	0x00000000

000002d0 <atmel_start_init>:

/**
 * Initializes MCU, drivers and middleware in the project
 **/
void atmel_start_init(void)
{
     2d0:	b508      	push	{r3, lr}
	system_init();
     2d2:	4b01      	ldr	r3, [pc, #4]	; (2d8 <atmel_start_init+0x8>)
     2d4:	4798      	blx	r3
     2d6:	bd08      	pop	{r3, pc}
     2d8:	00000555 	.word	0x00000555

000002dc <Dummy_Handler>:

/**
 * \brief Default interrupt handler for unused IRQs.
 */
void Dummy_Handler(void)
{
     2dc:	e7fe      	b.n	2dc <Dummy_Handler>
	...

000002e0 <Reset_Handler>:
{
     2e0:	b508      	push	{r3, lr}
        if (pSrc != pDest) {
     2e2:	4b15      	ldr	r3, [pc, #84]	; (338 <Reset_Handler+0x58>)
     2e4:	4a15      	ldr	r2, [pc, #84]	; (33c <Reset_Handler+0x5c>)
     2e6:	429a      	cmp	r2, r3
     2e8:	d009      	beq.n	2fe <Reset_Handler+0x1e>
     2ea:	4b13      	ldr	r3, [pc, #76]	; (338 <Reset_Handler+0x58>)
     2ec:	4a13      	ldr	r2, [pc, #76]	; (33c <Reset_Handler+0x5c>)
     2ee:	e003      	b.n	2f8 <Reset_Handler+0x18>
                        *pDest++ = *pSrc++;
     2f0:	6811      	ldr	r1, [r2, #0]
     2f2:	6019      	str	r1, [r3, #0]
     2f4:	3304      	adds	r3, #4
     2f6:	3204      	adds	r2, #4
                for (; pDest < &_erelocate;) {
     2f8:	4911      	ldr	r1, [pc, #68]	; (340 <Reset_Handler+0x60>)
     2fa:	428b      	cmp	r3, r1
     2fc:	d3f8      	bcc.n	2f0 <Reset_Handler+0x10>
                        *pDest++ = *pSrc++;
     2fe:	4b11      	ldr	r3, [pc, #68]	; (344 <Reset_Handler+0x64>)
     300:	e002      	b.n	308 <Reset_Handler+0x28>
                *pDest++ = 0;
     302:	2200      	movs	r2, #0
     304:	601a      	str	r2, [r3, #0]
     306:	3304      	adds	r3, #4
        for (pDest = &_szero; pDest < &_ezero;) {
     308:	4a0f      	ldr	r2, [pc, #60]	; (348 <Reset_Handler+0x68>)
     30a:	4293      	cmp	r3, r2
     30c:	d3f9      	bcc.n	302 <Reset_Handler+0x22>
        SCB->VTOR = ((uint32_t) pSrc & SCB_VTOR_TBLOFF_Msk);
     30e:	4b0f      	ldr	r3, [pc, #60]	; (34c <Reset_Handler+0x6c>)
     310:	4a0f      	ldr	r2, [pc, #60]	; (350 <Reset_Handler+0x70>)
     312:	f022 027f 	bic.w	r2, r2, #127	; 0x7f
     316:	609a      	str	r2, [r3, #8]
        SCB->CPACR |=  (0xFu << 20);
     318:	f8d3 2088 	ldr.w	r2, [r3, #136]	; 0x88
     31c:	f442 0270 	orr.w	r2, r2, #15728640	; 0xf00000
     320:	f8c3 2088 	str.w	r2, [r3, #136]	; 0x88
  \details Acts as a special kind of Data Memory Barrier.
           It completes when all explicit memory accesses before this instruction complete.
 */
__STATIC_FORCEINLINE void __DSB(void)
{
  __ASM volatile ("dsb 0xF":::"memory");
     324:	f3bf 8f4f 	dsb	sy
  __ASM volatile ("isb 0xF":::"memory");
     328:	f3bf 8f6f 	isb	sy
        __libc_init_array();
     32c:	4b09      	ldr	r3, [pc, #36]	; (354 <Reset_Handler+0x74>)
     32e:	4798      	blx	r3
        main();
     330:	4b09      	ldr	r3, [pc, #36]	; (358 <Reset_Handler+0x78>)
     332:	4798      	blx	r3
     334:	e7fe      	b.n	334 <Reset_Handler+0x54>
     336:	bf00      	nop
     338:	20000000 	.word	0x20000000
     33c:	00004ed4 	.word	0x00004ed4
     340:	20000154 	.word	0x20000154
     344:	20000160 	.word	0x20000160
     348:	20001378 	.word	0x20001378
     34c:	e000ed00 	.word	0xe000ed00
     350:	00000000 	.word	0x00000000
     354:	00004c15 	.word	0x00004c15
     358:	0000207d 	.word	0x0000207d

0000035c <I2C_0_PORT_init>:
}

static inline void hri_port_clear_PINCFG_PULLEN_bit(const void *const hw, uint8_t submodule_index, uint8_t index)
{
	PORT_CRITICAL_SECTION_ENTER();
	((Port *)hw)->Group[submodule_index].PINCFG[index].reg &= ~PORT_PINCFG_PULLEN;
     35c:	4b16      	ldr	r3, [pc, #88]	; (3b8 <I2C_0_PORT_init+0x5c>)
     35e:	f893 2056 	ldrb.w	r2, [r3, #86]	; 0x56
     362:	f002 02fb 	and.w	r2, r2, #251	; 0xfb
     366:	f883 2056 	strb.w	r2, [r3, #86]	; 0x56
	tmp = ((Port *)hw)->Group[submodule_index].PINCFG[index].reg;
     36a:	f893 2056 	ldrb.w	r2, [r3, #86]	; 0x56
	tmp &= ~PORT_PINCFG_PMUXEN;
     36e:	f002 02fe 	and.w	r2, r2, #254	; 0xfe
	tmp |= value << PORT_PINCFG_PMUXEN_Pos;
     372:	f042 0201 	orr.w	r2, r2, #1
	((Port *)hw)->Group[submodule_index].PINCFG[index].reg = tmp;
     376:	f883 2056 	strb.w	r2, [r3, #86]	; 0x56
	tmp = ((Port *)hw)->Group[submodule_index].PMUX[index].reg;
     37a:	f893 203b 	ldrb.w	r2, [r3, #59]	; 0x3b
	tmp &= ~PORT_PMUX_PMUXE_Msk;
     37e:	f002 02f0 	and.w	r2, r2, #240	; 0xf0
	tmp |= PORT_PMUX_PMUXE(data);
     382:	f042 0202 	orr.w	r2, r2, #2
	((Port *)hw)->Group[submodule_index].PMUX[index].reg = tmp;
     386:	f883 203b 	strb.w	r2, [r3, #59]	; 0x3b
	((Port *)hw)->Group[submodule_index].PINCFG[index].reg &= ~PORT_PINCFG_PULLEN;
     38a:	f893 2057 	ldrb.w	r2, [r3, #87]	; 0x57
     38e:	f002 02fb 	and.w	r2, r2, #251	; 0xfb
     392:	f883 2057 	strb.w	r2, [r3, #87]	; 0x57
	tmp = ((Port *)hw)->Group[submodule_index].PINCFG[index].reg;
     396:	f893 2057 	ldrb.w	r2, [r3, #87]	; 0x57
	tmp &= ~PORT_PINCFG_PMUXEN;
     39a:	f002 02fe 	and.w	r2, r2, #254	; 0xfe
	tmp |= value << PORT_PINCFG_PMUXEN_Pos;
     39e:	f042 0201 	orr.w	r2, r2, #1
	((Port *)hw)->Group[submodule_index].PINCFG[index].reg = tmp;
     3a2:	f883 2057 	strb.w	r2, [r3, #87]	; 0x57
	tmp = ((Port *)hw)->Group[submodule_index].PMUX[index].reg;
     3a6:	f893 203b 	ldrb.w	r2, [r3, #59]	; 0x3b
	tmp &= ~PORT_PMUX_PMUXO_Msk;
     3aa:	f002 020f 	and.w	r2, r2, #15
	tmp |= PORT_PMUX_PMUXO(data);
     3ae:	f042 0220 	orr.w	r2, r2, #32
	((Port *)hw)->Group[submodule_index].PMUX[index].reg = tmp;
     3b2:	f883 203b 	strb.w	r2, [r3, #59]	; 0x3b
     3b6:	4770      	bx	lr
     3b8:	41008000 	.word	0x41008000

000003bc <I2C_0_CLOCK_init>:
}

static inline void hri_gclk_write_PCHCTRL_reg(const void *const hw, uint8_t index, hri_gclk_pchctrl_reg_t data)
{
	GCLK_CRITICAL_SECTION_ENTER();
	((Gclk *)hw)->PCHCTRL[index].reg = data;
     3bc:	4b06      	ldr	r3, [pc, #24]	; (3d8 <I2C_0_CLOCK_init+0x1c>)
     3be:	2240      	movs	r2, #64	; 0x40
     3c0:	f8c3 20e0 	str.w	r2, [r3, #224]	; 0xe0
     3c4:	2243      	movs	r2, #67	; 0x43
     3c6:	f8c3 208c 	str.w	r2, [r3, #140]	; 0x8c
}

static inline void hri_mclk_set_APBBMASK_SERCOM3_bit(const void *const hw)
{
	MCLK_CRITICAL_SECTION_ENTER();
	((Mclk *)hw)->APBBMASK.reg |= MCLK_APBBMASK_SERCOM3;
     3ca:	4a04      	ldr	r2, [pc, #16]	; (3dc <I2C_0_CLOCK_init+0x20>)
     3cc:	6993      	ldr	r3, [r2, #24]
     3ce:	f443 6380 	orr.w	r3, r3, #1024	; 0x400
     3d2:	6193      	str	r3, [r2, #24]
     3d4:	4770      	bx	lr
     3d6:	bf00      	nop
     3d8:	40001c00 	.word	0x40001c00
     3dc:	40000800 	.word	0x40000800

000003e0 <I2C_0_init>:

	hri_mclk_set_APBBMASK_SERCOM3_bit(MCLK);
}

void I2C_0_init(void)
{
     3e0:	b508      	push	{r3, lr}
	I2C_0_CLOCK_init();
     3e2:	4b04      	ldr	r3, [pc, #16]	; (3f4 <I2C_0_init+0x14>)
     3e4:	4798      	blx	r3
	i2c_m_sync_init(&I2C_0, SERCOM3);
     3e6:	4904      	ldr	r1, [pc, #16]	; (3f8 <I2C_0_init+0x18>)
     3e8:	4804      	ldr	r0, [pc, #16]	; (3fc <I2C_0_init+0x1c>)
     3ea:	4b05      	ldr	r3, [pc, #20]	; (400 <I2C_0_init+0x20>)
     3ec:	4798      	blx	r3
	I2C_0_PORT_init();
     3ee:	4b05      	ldr	r3, [pc, #20]	; (404 <I2C_0_init+0x24>)
     3f0:	4798      	blx	r3
     3f2:	bd08      	pop	{r3, pc}
     3f4:	000003bd 	.word	0x000003bd
     3f8:	41014000 	.word	0x41014000
     3fc:	200003b0 	.word	0x200003b0
     400:	00000a45 	.word	0x00000a45
     404:	0000035d 	.word	0x0000035d

00000408 <SPI_0_PORT_init>:
	((Port *)hw)->Group[submodule_index].OUTCLR.reg = mask;
     408:	4b2c      	ldr	r3, [pc, #176]	; (4bc <SPI_0_PORT_init+0xb4>)
     40a:	f44f 3280 	mov.w	r2, #65536	; 0x10000
     40e:	f8c3 2094 	str.w	r2, [r3, #148]	; 0x94
	((Port *)hw)->Group[submodule_index].DIRSET.reg = mask;
     412:	f8c3 2088 	str.w	r2, [r3, #136]	; 0x88

static inline void hri_port_write_WRCONFIG_reg(const void *const hw, uint8_t submodule_index,
                                               hri_port_wrconfig_reg_t data)
{
	PORT_CRITICAL_SECTION_ENTER();
	((Port *)hw)->Group[submodule_index].WRCONFIG.reg = data;
     416:	f04f 4180 	mov.w	r1, #1073741824	; 0x40000000
     41a:	f8c3 10a8 	str.w	r1, [r3, #168]	; 0xa8
     41e:	4a28      	ldr	r2, [pc, #160]	; (4c0 <SPI_0_PORT_init+0xb8>)
     420:	f8c3 20a8 	str.w	r2, [r3, #168]	; 0xa8
	tmp = ((Port *)hw)->Group[submodule_index].PINCFG[index].reg;
     424:	f893 20d0 	ldrb.w	r2, [r3, #208]	; 0xd0
	tmp &= ~PORT_PINCFG_PMUXEN;
     428:	f002 02fe 	and.w	r2, r2, #254	; 0xfe
	tmp |= value << PORT_PINCFG_PMUXEN_Pos;
     42c:	f042 0201 	orr.w	r2, r2, #1
	((Port *)hw)->Group[submodule_index].PINCFG[index].reg = tmp;
     430:	f883 20d0 	strb.w	r2, [r3, #208]	; 0xd0
	tmp = ((Port *)hw)->Group[submodule_index].PMUX[index].reg;
     434:	f893 20b8 	ldrb.w	r2, [r3, #184]	; 0xb8
	tmp &= ~PORT_PMUX_PMUXE_Msk;
     438:	f002 02f0 	and.w	r2, r2, #240	; 0xf0
	tmp |= PORT_PMUX_PMUXE(data);
     43c:	f042 0202 	orr.w	r2, r2, #2
	((Port *)hw)->Group[submodule_index].PMUX[index].reg = tmp;
     440:	f883 20b8 	strb.w	r2, [r3, #184]	; 0xb8
	((Port *)hw)->Group[submodule_index].OUTCLR.reg = mask;
     444:	f44f 3200 	mov.w	r2, #131072	; 0x20000
     448:	f8c3 2094 	str.w	r2, [r3, #148]	; 0x94
	((Port *)hw)->Group[submodule_index].DIRSET.reg = mask;
     44c:	f8c3 2088 	str.w	r2, [r3, #136]	; 0x88
	((Port *)hw)->Group[submodule_index].WRCONFIG.reg = data;
     450:	f8c3 10a8 	str.w	r1, [r3, #168]	; 0xa8
     454:	4a1b      	ldr	r2, [pc, #108]	; (4c4 <SPI_0_PORT_init+0xbc>)
     456:	f8c3 20a8 	str.w	r2, [r3, #168]	; 0xa8
	tmp = ((Port *)hw)->Group[submodule_index].PINCFG[index].reg;
     45a:	f893 20d1 	ldrb.w	r2, [r3, #209]	; 0xd1
	tmp &= ~PORT_PINCFG_PMUXEN;
     45e:	f002 02fe 	and.w	r2, r2, #254	; 0xfe
	tmp |= value << PORT_PINCFG_PMUXEN_Pos;
     462:	f042 0201 	orr.w	r2, r2, #1
	((Port *)hw)->Group[submodule_index].PINCFG[index].reg = tmp;
     466:	f883 20d1 	strb.w	r2, [r3, #209]	; 0xd1
	tmp = ((Port *)hw)->Group[submodule_index].PMUX[index].reg;
     46a:	f893 20b8 	ldrb.w	r2, [r3, #184]	; 0xb8
	tmp &= ~PORT_PMUX_PMUXO_Msk;
     46e:	f002 020f 	and.w	r2, r2, #15
	tmp |= PORT_PMUX_PMUXO(data);
     472:	f042 0220 	orr.w	r2, r2, #32
	((Port *)hw)->Group[submodule_index].PMUX[index].reg = tmp;
     476:	f883 20b8 	strb.w	r2, [r3, #184]	; 0xb8
	((Port *)hw)->Group[submodule_index].DIRCLR.reg = mask;
     47a:	2202      	movs	r2, #2
     47c:	f8c3 2084 	str.w	r2, [r3, #132]	; 0x84
	((Port *)hw)->Group[submodule_index].WRCONFIG.reg = data;
     480:	4a11      	ldr	r2, [pc, #68]	; (4c8 <SPI_0_PORT_init+0xc0>)
     482:	f8c3 20a8 	str.w	r2, [r3, #168]	; 0xa8
     486:	4a11      	ldr	r2, [pc, #68]	; (4cc <SPI_0_PORT_init+0xc4>)
     488:	f8c3 20a8 	str.w	r2, [r3, #168]	; 0xa8
	((Port *)hw)->Group[submodule_index].PINCFG[index].reg &= ~PORT_PINCFG_PULLEN;
     48c:	f893 20c1 	ldrb.w	r2, [r3, #193]	; 0xc1
     490:	f002 02fb 	and.w	r2, r2, #251	; 0xfb
     494:	f883 20c1 	strb.w	r2, [r3, #193]	; 0xc1
	tmp = ((Port *)hw)->Group[submodule_index].PINCFG[index].reg;
     498:	f893 20c1 	ldrb.w	r2, [r3, #193]	; 0xc1
	tmp &= ~PORT_PINCFG_PMUXEN;
     49c:	f002 02fe 	and.w	r2, r2, #254	; 0xfe
	tmp |= value << PORT_PINCFG_PMUXEN_Pos;
     4a0:	f042 0201 	orr.w	r2, r2, #1
	((Port *)hw)->Group[submodule_index].PINCFG[index].reg = tmp;
     4a4:	f883 20c1 	strb.w	r2, [r3, #193]	; 0xc1
	tmp = ((Port *)hw)->Group[submodule_index].PMUX[index].reg;
     4a8:	f893 20b0 	ldrb.w	r2, [r3, #176]	; 0xb0
	tmp &= ~PORT_PMUX_PMUXO_Msk;
     4ac:	f002 020f 	and.w	r2, r2, #15
	tmp |= PORT_PMUX_PMUXO(data);
     4b0:	f042 0230 	orr.w	r2, r2, #48	; 0x30
	((Port *)hw)->Group[submodule_index].PMUX[index].reg = tmp;
     4b4:	f883 20b0 	strb.w	r2, [r3, #176]	; 0xb0
     4b8:	4770      	bx	lr
     4ba:	bf00      	nop
     4bc:	41008000 	.word	0x41008000
     4c0:	c0000001 	.word	0xc0000001
     4c4:	c0000002 	.word	0xc0000002
     4c8:	40020002 	.word	0x40020002
     4cc:	c0020000 	.word	0xc0020000

000004d0 <SPI_0_CLOCK_init>:
     4d0:	4b06      	ldr	r3, [pc, #24]	; (4ec <SPI_0_CLOCK_init+0x1c>)
     4d2:	2240      	movs	r2, #64	; 0x40
     4d4:	f8c3 210c 	str.w	r2, [r3, #268]	; 0x10c
     4d8:	2243      	movs	r2, #67	; 0x43
     4da:	f8c3 208c 	str.w	r2, [r3, #140]	; 0x8c
}

static inline void hri_mclk_set_APBDMASK_SERCOM5_bit(const void *const hw)
{
	MCLK_CRITICAL_SECTION_ENTER();
	((Mclk *)hw)->APBDMASK.reg |= MCLK_APBDMASK_SERCOM5;
     4de:	4a04      	ldr	r2, [pc, #16]	; (4f0 <SPI_0_CLOCK_init+0x20>)
     4e0:	6a13      	ldr	r3, [r2, #32]
     4e2:	f043 0302 	orr.w	r3, r3, #2
     4e6:	6213      	str	r3, [r2, #32]
     4e8:	4770      	bx	lr
     4ea:	bf00      	nop
     4ec:	40001c00 	.word	0x40001c00
     4f0:	40000800 	.word	0x40000800

000004f4 <SPI_0_init>:

	hri_mclk_set_APBDMASK_SERCOM5_bit(MCLK);
}

void SPI_0_init(void)
{
     4f4:	b508      	push	{r3, lr}
	SPI_0_CLOCK_init();
     4f6:	4b04      	ldr	r3, [pc, #16]	; (508 <SPI_0_init+0x14>)
     4f8:	4798      	blx	r3
	spi_m_dma_init(&SPI_0, SERCOM5);
     4fa:	4904      	ldr	r1, [pc, #16]	; (50c <SPI_0_init+0x18>)
     4fc:	4804      	ldr	r0, [pc, #16]	; (510 <SPI_0_init+0x1c>)
     4fe:	4b05      	ldr	r3, [pc, #20]	; (514 <SPI_0_init+0x20>)
     500:	4798      	blx	r3
	SPI_0_PORT_init();
     502:	4b05      	ldr	r3, [pc, #20]	; (518 <SPI_0_init+0x24>)
     504:	4798      	blx	r3
     506:	bd08      	pop	{r3, pc}
     508:	000004d1 	.word	0x000004d1
     50c:	43000400 	.word	0x43000400
     510:	20000380 	.word	0x20000380
     514:	00000b79 	.word	0x00000b79
     518:	00000409 	.word	0x00000409

0000051c <TIMER_1_CLOCK_init>:
	((Mclk *)hw)->APBBMASK.reg |= MCLK_APBBMASK_TC3;
     51c:	4a04      	ldr	r2, [pc, #16]	; (530 <TIMER_1_CLOCK_init+0x14>)
     51e:	6993      	ldr	r3, [r2, #24]
     520:	f443 4380 	orr.w	r3, r3, #16384	; 0x4000
     524:	6193      	str	r3, [r2, #24]
     526:	2240      	movs	r2, #64	; 0x40
     528:	4b02      	ldr	r3, [pc, #8]	; (534 <TIMER_1_CLOCK_init+0x18>)
     52a:	f8c3 20e8 	str.w	r2, [r3, #232]	; 0xe8
     52e:	4770      	bx	lr
     530:	40000800 	.word	0x40000800
     534:	40001c00 	.word	0x40001c00

00000538 <TIMER_0_CLOCK_init>:
}

static inline void hri_mclk_set_APBDMASK_TC7_bit(const void *const hw)
{
	MCLK_CRITICAL_SECTION_ENTER();
	((Mclk *)hw)->APBDMASK.reg |= MCLK_APBDMASK_TC7;
     538:	4a04      	ldr	r2, [pc, #16]	; (54c <TIMER_0_CLOCK_init+0x14>)
     53a:	6a13      	ldr	r3, [r2, #32]
     53c:	f043 0340 	orr.w	r3, r3, #64	; 0x40
     540:	6213      	str	r3, [r2, #32]
     542:	2240      	movs	r2, #64	; 0x40
     544:	4b02      	ldr	r3, [pc, #8]	; (550 <TIMER_0_CLOCK_init+0x18>)
     546:	f8c3 211c 	str.w	r2, [r3, #284]	; 0x11c
     54a:	4770      	bx	lr
     54c:	40000800 	.word	0x40000800
     550:	40001c00 	.word	0x40001c00

00000554 <system_init>:
	hri_mclk_set_APBDMASK_TC7_bit(MCLK);
	hri_gclk_write_PCHCTRL_reg(GCLK, TC7_GCLK_ID, CONF_GCLK_TC7_SRC | (1 << GCLK_PCHCTRL_CHEN_Pos));
}

void system_init(void)
{
     554:	b508      	push	{r3, lr}
 * Currently the following initialization functions are supported:
 *  - System clock initialization
 */
static inline void init_mcu(void)
{
	_init_chip();
     556:	4b18      	ldr	r3, [pc, #96]	; (5b8 <system_init+0x64>)
     558:	4798      	blx	r3
	((Port *)hw)->Group[submodule_index].OUTCLR.reg = mask;
     55a:	4b18      	ldr	r3, [pc, #96]	; (5bc <system_init+0x68>)
     55c:	2240      	movs	r2, #64	; 0x40
     55e:	615a      	str	r2, [r3, #20]
	((Port *)hw)->Group[submodule_index].DIRSET.reg = mask;
     560:	609a      	str	r2, [r3, #8]
	((Port *)hw)->Group[submodule_index].WRCONFIG.reg = data;
     562:	f102 4280 	add.w	r2, r2, #1073741824	; 0x40000000
     566:	629a      	str	r2, [r3, #40]	; 0x28
     568:	f04f 4140 	mov.w	r1, #3221225472	; 0xc0000000
     56c:	6299      	str	r1, [r3, #40]	; 0x28
	tmp = ((Port *)hw)->Group[submodule_index].PINCFG[index].reg;
     56e:	f893 2046 	ldrb.w	r2, [r3, #70]	; 0x46
	tmp &= ~PORT_PINCFG_PMUXEN;
     572:	f002 02fe 	and.w	r2, r2, #254	; 0xfe
	((Port *)hw)->Group[submodule_index].PINCFG[index].reg = tmp;
     576:	f883 2046 	strb.w	r2, [r3, #70]	; 0x46
	((Port *)hw)->Group[submodule_index].OUTSET.reg = mask;
     57a:	2201      	movs	r2, #1
     57c:	f8c3 2098 	str.w	r2, [r3, #152]	; 0x98
	((Port *)hw)->Group[submodule_index].DIRSET.reg = mask;
     580:	f8c3 2088 	str.w	r2, [r3, #136]	; 0x88
	((Port *)hw)->Group[submodule_index].WRCONFIG.reg = data;
     584:	f102 4280 	add.w	r2, r2, #1073741824	; 0x40000000
     588:	f8c3 20a8 	str.w	r2, [r3, #168]	; 0xa8
     58c:	f8c3 10a8 	str.w	r1, [r3, #168]	; 0xa8
	tmp = ((Port *)hw)->Group[submodule_index].PINCFG[index].reg;
     590:	f893 20c0 	ldrb.w	r2, [r3, #192]	; 0xc0
	tmp &= ~PORT_PINCFG_PMUXEN;
     594:	f002 02fe 	and.w	r2, r2, #254	; 0xfe
	((Port *)hw)->Group[submodule_index].PINCFG[index].reg = tmp;
     598:	f883 20c0 	strb.w	r2, [r3, #192]	; 0xc0
	// Set pin direction to output
	gpio_set_pin_direction(ECAT_SPI_CS_PIN, GPIO_DIRECTION_OUT);

	gpio_set_pin_function(ECAT_SPI_CS_PIN, GPIO_PIN_FUNCTION_OFF);

	I2C_0_init();
     59c:	4b08      	ldr	r3, [pc, #32]	; (5c0 <system_init+0x6c>)
     59e:	4798      	blx	r3

	SPI_0_init();
     5a0:	4b08      	ldr	r3, [pc, #32]	; (5c4 <system_init+0x70>)
     5a2:	4798      	blx	r3

	TIMER_1_CLOCK_init();
     5a4:	4b08      	ldr	r3, [pc, #32]	; (5c8 <system_init+0x74>)
     5a6:	4798      	blx	r3

	TIMER_1_init();
     5a8:	4b08      	ldr	r3, [pc, #32]	; (5cc <system_init+0x78>)
     5aa:	4798      	blx	r3

	TIMER_0_CLOCK_init();
     5ac:	4b08      	ldr	r3, [pc, #32]	; (5d0 <system_init+0x7c>)
     5ae:	4798      	blx	r3

	TIMER_0_init();
     5b0:	4b08      	ldr	r3, [pc, #32]	; (5d4 <system_init+0x80>)
     5b2:	4798      	blx	r3
     5b4:	bd08      	pop	{r3, pc}
     5b6:	bf00      	nop
     5b8:	00000c69 	.word	0x00000c69
     5bc:	41008000 	.word	0x41008000
     5c0:	000003e1 	.word	0x000003e1
     5c4:	000004f5 	.word	0x000004f5
     5c8:	0000051d 	.word	0x0000051d
     5cc:	00001cdd 	.word	0x00001cdd
     5d0:	00000539 	.word	0x00000539
     5d4:	00001da1 	.word	0x00001da1

000005d8 <LAN9252_rx_susp>:
	((Port *)hw)->Group[submodule_index].OUTSET.reg = mask;
     5d8:	2201      	movs	r2, #1
     5da:	4b10      	ldr	r3, [pc, #64]	; (61c <LAN9252_rx_susp+0x44>)
     5dc:	f8c3 2098 	str.w	r2, [r3, #152]	; 0x98
static void LAN9252_rx_susp(struct _dma_resource *resource)
{
	gpio_set_pin_level(ECAT_SPI_CS_PIN, true);
	
	//volatile uint32_t *pointer = ((DMAC->WRBADDR.reg)+0x10*resource->channel_id+12);
	volatile uint32_t *pointer = ((DMAC->WRBADDR.reg)+12);
     5e0:	f503 5300 	add.w	r3, r3, #8192	; 0x2000
     5e4:	6b9b      	ldr	r3, [r3, #56]	; 0x38

	if (*pointer != &spi_rx_write_fifo_dma_descriptor){
     5e6:	68da      	ldr	r2, [r3, #12]
     5e8:	4b0d      	ldr	r3, [pc, #52]	; (620 <LAN9252_rx_susp+0x48>)
     5ea:	429a      	cmp	r2, r3
     5ec:	d00d      	beq.n	60a <LAN9252_rx_susp+0x32>
		DMAC->Channel[0].CHCTRLB.reg = 0x2; // Resume
     5ee:	4b0d      	ldr	r3, [pc, #52]	; (624 <LAN9252_rx_susp+0x4c>)
     5f0:	2202      	movs	r2, #2
     5f2:	f883 2044 	strb.w	r2, [r3, #68]	; 0x44
	((Port *)hw)->Group[submodule_index].OUTCLR.reg = mask;
     5f6:	2001      	movs	r0, #1
     5f8:	4908      	ldr	r1, [pc, #32]	; (61c <LAN9252_rx_susp+0x44>)
     5fa:	f8c1 0094 	str.w	r0, [r1, #148]	; 0x94
		gpio_set_pin_level(ECAT_SPI_CS_PIN, false);
		DMAC->Channel[1].CHCTRLB.reg = 0x2; // Resume
     5fe:	f883 2054 	strb.w	r2, [r3, #84]	; 0x54
		tx_ethercat_done = false;
     602:	2200      	movs	r2, #0
     604:	4b08      	ldr	r3, [pc, #32]	; (628 <LAN9252_rx_susp+0x50>)
     606:	701a      	strb	r2, [r3, #0]
     608:	4770      	bx	lr
	}
	else{
		tx_ethercat_done = true;
     60a:	2201      	movs	r2, #1
     60c:	4b06      	ldr	r3, [pc, #24]	; (628 <LAN9252_rx_susp+0x50>)
     60e:	701a      	strb	r2, [r3, #0]
 */
__STATIC_INLINE void __NVIC_EnableIRQ(IRQn_Type IRQn)
{
  if ((int32_t)(IRQn) >= 0)
  {
    NVIC->ISER[(((uint32_t)IRQn) >> 5UL)] = (uint32_t)(1UL << (((uint32_t)IRQn) & 0x1FUL));
     610:	f44f 2280 	mov.w	r2, #262144	; 0x40000
     614:	4b05      	ldr	r3, [pc, #20]	; (62c <LAN9252_rx_susp+0x54>)
     616:	60da      	str	r2, [r3, #12]
     618:	4770      	bx	lr
     61a:	bf00      	nop
     61c:	41008000 	.word	0x41008000
     620:	20000558 	.word	0x20000558
     624:	4100a000 	.word	0x4100a000
     628:	20000568 	.word	0x20000568
     62c:	e000e100 	.word	0xe000e100

00000630 <setup_transfer_descriptor>:
	
}

static void setup_transfer_descriptor(enum dma_transfer_descriptor_type type, DmacDescriptor *descriptor, const uint32_t start, 
										const uint32_t lenght, const uint32_t next_descriptor, uint16_t block_action)
{
     630:	b430      	push	{r4, r5}
}

static inline void hri_dmacdescriptor_set_BTCTRL_VALID_bit(const void *const hw)
{
	DMAC_CRITICAL_SECTION_ENTER();
	((DmacDescriptor *)hw)->BTCTRL.reg |= DMAC_BTCTRL_VALID;
     632:	880c      	ldrh	r4, [r1, #0]
     634:	b2a4      	uxth	r4, r4
     636:	f044 0401 	orr.w	r4, r4, #1
     63a:	800c      	strh	r4, [r1, #0]

static inline void hri_dmacdescriptor_write_BTCTRL_EVOSEL_bf(const void *const hw, hri_dmacdescriptor_btctrl_reg_t data)
{
	uint16_t tmp;
	DMAC_CRITICAL_SECTION_ENTER();
	tmp = ((DmacDescriptor *)hw)->BTCTRL.reg;
     63c:	880c      	ldrh	r4, [r1, #0]
     63e:	b2a4      	uxth	r4, r4
	tmp &= ~DMAC_BTCTRL_EVOSEL_Msk;
	tmp |= DMAC_BTCTRL_EVOSEL(data);
     640:	f044 0406 	orr.w	r4, r4, #6
	((DmacDescriptor *)hw)->BTCTRL.reg = tmp;
     644:	800c      	strh	r4, [r1, #0]
static inline void hri_dmacdescriptor_write_BTCTRL_BLOCKACT_bf(const void *const               hw,
                                                               hri_dmacdescriptor_btctrl_reg_t data)
{
	uint16_t tmp;
	DMAC_CRITICAL_SECTION_ENTER();
	tmp = ((DmacDescriptor *)hw)->BTCTRL.reg;
     646:	880c      	ldrh	r4, [r1, #0]
     648:	b2a4      	uxth	r4, r4
	tmp &= ~DMAC_BTCTRL_BLOCKACT_Msk;
     64a:	f024 0418 	bic.w	r4, r4, #24
	tmp |= DMAC_BTCTRL_BLOCKACT(data);
     64e:	f8bd 500c 	ldrh.w	r5, [sp, #12]
     652:	00ed      	lsls	r5, r5, #3
     654:	f005 0518 	and.w	r5, r5, #24
     658:	432c      	orrs	r4, r5
	((DmacDescriptor *)hw)->BTCTRL.reg = tmp;
     65a:	800c      	strh	r4, [r1, #0]
static inline void hri_dmacdescriptor_write_BTCTRL_BEATSIZE_bf(const void *const               hw,
                                                               hri_dmacdescriptor_btctrl_reg_t data)
{
	uint16_t tmp;
	DMAC_CRITICAL_SECTION_ENTER();
	tmp = ((DmacDescriptor *)hw)->BTCTRL.reg;
     65c:	880c      	ldrh	r4, [r1, #0]
     65e:	b2a4      	uxth	r4, r4
	tmp &= ~DMAC_BTCTRL_BEATSIZE_Msk;
     660:	f424 7440 	bic.w	r4, r4, #768	; 0x300
     664:	b2a4      	uxth	r4, r4
	tmp |= DMAC_BTCTRL_BEATSIZE(data);
	((DmacDescriptor *)hw)->BTCTRL.reg = tmp;
     666:	800c      	strh	r4, [r1, #0]
	hri_dmacdescriptor_set_BTCTRL_VALID_bit(descriptor);										// 1.Validate the Descriptor
	hri_dmacdescriptor_write_BTCTRL_EVOSEL_bf(descriptor, DMAC_BTCTRL_EVOSEL_BURST_Val);		// 2. Define mentions 0x3 as Burst, but 0x3 = BEAT (Event strobe when beat transfer complete)
	hri_dmacdescriptor_write_BTCTRL_BLOCKACT_bf(descriptor, block_action);						// 3. block_action
	hri_dmacdescriptor_write_BTCTRL_BEATSIZE_bf(descriptor, DMAC_BTCTRL_BEATSIZE_BYTE_Val);		// 4. beat_size
		
	switch (type){
     668:	2803      	cmp	r0, #3
     66a:	d814      	bhi.n	696 <setup_transfer_descriptor+0x66>
     66c:	e8df f000 	tbb	[pc, r0]
     670:	4b253902 	.word	0x4b253902
	tmp = ((DmacDescriptor *)hw)->BTCTRL.reg;
     674:	8808      	ldrh	r0, [r1, #0]
     676:	b280      	uxth	r0, r0
	tmp |= value << DMAC_BTCTRL_SRCINC_Pos;
     678:	f440 6080 	orr.w	r0, r0, #1024	; 0x400
	((DmacDescriptor *)hw)->BTCTRL.reg = tmp;
     67c:	8008      	strh	r0, [r1, #0]
	tmp = ((DmacDescriptor *)hw)->BTCTRL.reg;
     67e:	8808      	ldrh	r0, [r1, #0]
     680:	b280      	uxth	r0, r0
	tmp &= ~DMAC_BTCTRL_DSTINC;
     682:	f420 6000 	bic.w	r0, r0, #2048	; 0x800
     686:	b280      	uxth	r0, r0
	((DmacDescriptor *)hw)->BTCTRL.reg = tmp;
     688:	8008      	strh	r0, [r1, #0]
		case DMA_TRANSFER_DESCRIPTOR_TX:
			hri_dmacdescriptor_write_BTCTRL_SRCINC_bit(descriptor, true);						// 5. src_increment_enable = true
			hri_dmacdescriptor_write_BTCTRL_DSTINC_bit(descriptor, false);						// 6. dst_increment_enable = false
			hri_dmacdescriptor_write_SRCADDR_SRCADDR_bf(descriptor, start+lenght);				// 10. source_address
     68a:	441a      	add	r2, r3
static inline void hri_dmacdescriptor_write_SRCADDR_SRCADDR_bf(const void *const                hw,
                                                               hri_dmacdescriptor_srcaddr_reg_t data)
{
	uint32_t tmp;
	DMAC_CRITICAL_SECTION_ENTER();
	tmp = ((DmacDescriptor *)hw)->SRCADDR.reg;
     68c:	6848      	ldr	r0, [r1, #4]
	tmp &= ~DMAC_SRCADDR_SRCADDR_Msk;
	tmp |= DMAC_SRCADDR_SRCADDR(data);
	((DmacDescriptor *)hw)->SRCADDR.reg = tmp;
     68e:	604a      	str	r2, [r1, #4]
static inline void hri_dmacdescriptor_write_DSTADDR_DSTADDR_bf(const void *const                hw,
                                                               hri_dmacdescriptor_dstaddr_reg_t data)
{
	uint32_t tmp;
	DMAC_CRITICAL_SECTION_ENTER();
	tmp = ((DmacDescriptor *)hw)->DSTADDR.reg;
     690:	688a      	ldr	r2, [r1, #8]
	tmp &= ~DMAC_DSTADDR_DSTADDR_Msk;
	tmp |= DMAC_DSTADDR_DSTADDR(data);
	((DmacDescriptor *)hw)->DSTADDR.reg = tmp;
     692:	4a26      	ldr	r2, [pc, #152]	; (72c <setup_transfer_descriptor+0xfc>)
     694:	608a      	str	r2, [r1, #8]
	tmp = ((DmacDescriptor *)hw)->BTCTRL.reg;
     696:	880a      	ldrh	r2, [r1, #0]
     698:	b292      	uxth	r2, r2
	tmp &= ~DMAC_BTCTRL_STEPSEL;
     69a:	f422 5280 	bic.w	r2, r2, #4096	; 0x1000
     69e:	b292      	uxth	r2, r2
	((DmacDescriptor *)hw)->BTCTRL.reg = tmp;
     6a0:	800a      	strh	r2, [r1, #0]
	tmp = ((DmacDescriptor *)hw)->BTCTRL.reg;
     6a2:	880a      	ldrh	r2, [r1, #0]
	tmp &= ~DMAC_BTCTRL_STEPSIZE_Msk;
     6a4:	f3c2 020c 	ubfx	r2, r2, #0, #13
	((DmacDescriptor *)hw)->BTCTRL.reg = tmp;
     6a8:	800a      	strh	r2, [r1, #0]
		break;		
	}
	
	hri_dmacdescriptor_write_BTCTRL_STEPSEL_bit(descriptor, false);								// 7. step_selection = DMA_STEPSEL_DST
	hri_dmacdescriptor_write_BTCTRL_STEPSIZE_bf(descriptor, DMAC_BTCTRL_STEPSIZE_X1_Val);		// 8. step_size = DMA_ADDRESS_INCREMENT_STEP_SIZE_1
	hri_dmacdescriptor_write_BTCNT_BTCNT_bf(descriptor, lenght);								// 9. block_transfer_count;
     6aa:	b29b      	uxth	r3, r3
	tmp = ((DmacDescriptor *)hw)->BTCNT.reg;
     6ac:	884a      	ldrh	r2, [r1, #2]
	((DmacDescriptor *)hw)->BTCNT.reg = tmp;
     6ae:	804b      	strh	r3, [r1, #2]
static inline void hri_dmacdescriptor_write_DESCADDR_DESCADDR_bf(const void *const                 hw,
                                                                 hri_dmacdescriptor_descaddr_reg_t data)
{
	uint32_t tmp;
	DMAC_CRITICAL_SECTION_ENTER();
	tmp = ((DmacDescriptor *)hw)->DESCADDR.reg;
     6b0:	68cb      	ldr	r3, [r1, #12]
	tmp &= ~DMAC_DESCADDR_DESCADDR_Msk;
	tmp |= DMAC_DESCADDR_DESCADDR(data);
	((DmacDescriptor *)hw)->DESCADDR.reg = tmp;
     6b2:	9b02      	ldr	r3, [sp, #8]
     6b4:	60cb      	str	r3, [r1, #12]
	hri_dmacdescriptor_write_DESCADDR_DESCADDR_bf(descriptor, next_descriptor);					// 12. next_descriptor_address = 0;
     6b6:	bc30      	pop	{r4, r5}
     6b8:	4770      	bx	lr
	tmp = ((DmacDescriptor *)hw)->BTCTRL.reg;
     6ba:	880a      	ldrh	r2, [r1, #0]
     6bc:	b292      	uxth	r2, r2
	tmp &= ~DMAC_BTCTRL_SRCINC;
     6be:	f422 6280 	bic.w	r2, r2, #1024	; 0x400
     6c2:	b292      	uxth	r2, r2
	((DmacDescriptor *)hw)->BTCTRL.reg = tmp;
     6c4:	800a      	strh	r2, [r1, #0]
	tmp = ((DmacDescriptor *)hw)->BTCTRL.reg;
     6c6:	880a      	ldrh	r2, [r1, #0]
     6c8:	b292      	uxth	r2, r2
	tmp &= ~DMAC_BTCTRL_DSTINC;
     6ca:	f422 6200 	bic.w	r2, r2, #2048	; 0x800
     6ce:	b292      	uxth	r2, r2
	((DmacDescriptor *)hw)->BTCTRL.reg = tmp;
     6d0:	800a      	strh	r2, [r1, #0]
			hri_dmacdescriptor_write_SRCADDR_SRCADDR_bf(descriptor, dummy_register);			// 10. source_address
     6d2:	4a17      	ldr	r2, [pc, #92]	; (730 <setup_transfer_descriptor+0x100>)
     6d4:	6812      	ldr	r2, [r2, #0]
	tmp = ((DmacDescriptor *)hw)->SRCADDR.reg;
     6d6:	6848      	ldr	r0, [r1, #4]
	((DmacDescriptor *)hw)->SRCADDR.reg = tmp;
     6d8:	604a      	str	r2, [r1, #4]
	tmp = ((DmacDescriptor *)hw)->DSTADDR.reg;
     6da:	688a      	ldr	r2, [r1, #8]
	((DmacDescriptor *)hw)->DSTADDR.reg = tmp;
     6dc:	4a13      	ldr	r2, [pc, #76]	; (72c <setup_transfer_descriptor+0xfc>)
     6de:	608a      	str	r2, [r1, #8]
     6e0:	e7d9      	b.n	696 <setup_transfer_descriptor+0x66>
	tmp = ((DmacDescriptor *)hw)->BTCTRL.reg;
     6e2:	8808      	ldrh	r0, [r1, #0]
     6e4:	b280      	uxth	r0, r0
	tmp &= ~DMAC_BTCTRL_SRCINC;
     6e6:	f420 6080 	bic.w	r0, r0, #1024	; 0x400
     6ea:	b280      	uxth	r0, r0
	((DmacDescriptor *)hw)->BTCTRL.reg = tmp;
     6ec:	8008      	strh	r0, [r1, #0]
	tmp = ((DmacDescriptor *)hw)->BTCTRL.reg;
     6ee:	8808      	ldrh	r0, [r1, #0]
     6f0:	b280      	uxth	r0, r0
	tmp |= value << DMAC_BTCTRL_DSTINC_Pos;
     6f2:	f440 6000 	orr.w	r0, r0, #2048	; 0x800
	((DmacDescriptor *)hw)->BTCTRL.reg = tmp;
     6f6:	8008      	strh	r0, [r1, #0]
	tmp = ((DmacDescriptor *)hw)->SRCADDR.reg;
     6f8:	6848      	ldr	r0, [r1, #4]
	((DmacDescriptor *)hw)->SRCADDR.reg = tmp;
     6fa:	480c      	ldr	r0, [pc, #48]	; (72c <setup_transfer_descriptor+0xfc>)
     6fc:	6048      	str	r0, [r1, #4]
			hri_dmacdescriptor_write_DSTADDR_DSTADDR_bf(descriptor, start+lenght);				// 11. destination_address
     6fe:	441a      	add	r2, r3
	tmp = ((DmacDescriptor *)hw)->DSTADDR.reg;
     700:	6888      	ldr	r0, [r1, #8]
	((DmacDescriptor *)hw)->DSTADDR.reg = tmp;
     702:	608a      	str	r2, [r1, #8]
     704:	e7c7      	b.n	696 <setup_transfer_descriptor+0x66>
	tmp = ((DmacDescriptor *)hw)->BTCTRL.reg;
     706:	880a      	ldrh	r2, [r1, #0]
     708:	b292      	uxth	r2, r2
	tmp &= ~DMAC_BTCTRL_SRCINC;
     70a:	f422 6280 	bic.w	r2, r2, #1024	; 0x400
     70e:	b292      	uxth	r2, r2
	((DmacDescriptor *)hw)->BTCTRL.reg = tmp;
     710:	800a      	strh	r2, [r1, #0]
	tmp = ((DmacDescriptor *)hw)->BTCTRL.reg;
     712:	880a      	ldrh	r2, [r1, #0]
     714:	b292      	uxth	r2, r2
	tmp &= ~DMAC_BTCTRL_DSTINC;
     716:	f422 6200 	bic.w	r2, r2, #2048	; 0x800
     71a:	b292      	uxth	r2, r2
	((DmacDescriptor *)hw)->BTCTRL.reg = tmp;
     71c:	800a      	strh	r2, [r1, #0]
	tmp = ((DmacDescriptor *)hw)->SRCADDR.reg;
     71e:	684a      	ldr	r2, [r1, #4]
	((DmacDescriptor *)hw)->SRCADDR.reg = tmp;
     720:	4a02      	ldr	r2, [pc, #8]	; (72c <setup_transfer_descriptor+0xfc>)
     722:	604a      	str	r2, [r1, #4]
	tmp = ((DmacDescriptor *)hw)->DSTADDR.reg;
     724:	688a      	ldr	r2, [r1, #8]
	((DmacDescriptor *)hw)->DSTADDR.reg = tmp;
     726:	4a03      	ldr	r2, [pc, #12]	; (734 <setup_transfer_descriptor+0x104>)
     728:	608a      	str	r2, [r1, #8]
     72a:	e7b4      	b.n	696 <setup_transfer_descriptor+0x66>
     72c:	43000428 	.word	0x43000428
     730:	00004c5c 	.word	0x00004c5c
     734:	20000420 	.word	0x20000420

00000738 <TC7_Handler>:
void TC7_Handler(void){
     738:	b5f0      	push	{r4, r5, r6, r7, lr}
     73a:	b083      	sub	sp, #12
	TC7->COUNT16.INTFLAG.bit.OVF =1;
     73c:	4a16      	ldr	r2, [pc, #88]	; (798 <TC7_Handler+0x60>)
     73e:	7a93      	ldrb	r3, [r2, #10]
     740:	f043 0301 	orr.w	r3, r3, #1
     744:	7293      	strb	r3, [r2, #10]
		tx_ethercat = true;
     746:	2201      	movs	r2, #1
     748:	4b14      	ldr	r3, [pc, #80]	; (79c <TC7_Handler+0x64>)
     74a:	701a      	strb	r2, [r3, #0]
	if(tx_ethercat_done){
     74c:	4b14      	ldr	r3, [pc, #80]	; (7a0 <TC7_Handler+0x68>)
     74e:	781b      	ldrb	r3, [r3, #0]
     750:	b183      	cbz	r3, 774 <TC7_Handler+0x3c>
		volatile int i=0;
     752:	2300      	movs	r3, #0
     754:	9301      	str	r3, [sp, #4]
     756:	4611      	mov	r1, r2
     758:	4a12      	ldr	r2, [pc, #72]	; (7a4 <TC7_Handler+0x6c>)
     75a:	f8c2 1094 	str.w	r1, [r2, #148]	; 0x94
		DMAC->Channel[0].CHCTRLB.reg = 0x2; // Resume		
     75e:	f502 5200 	add.w	r2, r2, #8192	; 0x2000
     762:	2102      	movs	r1, #2
     764:	f882 1044 	strb.w	r1, [r2, #68]	; 0x44
		DMAC->Channel[1].CHCTRLB.reg = 0x2; // Resume
     768:	f882 1054 	strb.w	r1, [r2, #84]	; 0x54
		tx_ethercat_done = false;
     76c:	4a0c      	ldr	r2, [pc, #48]	; (7a0 <TC7_Handler+0x68>)
     76e:	7013      	strb	r3, [r2, #0]
	};
     770:	b003      	add	sp, #12
     772:	bdf0      	pop	{r4, r5, r6, r7, pc}
	((Port *)hw)->Group[submodule_index].OUTSET.reg = mask;
     774:	4b0b      	ldr	r3, [pc, #44]	; (7a4 <TC7_Handler+0x6c>)
     776:	2501      	movs	r5, #1
     778:	f8c3 5098 	str.w	r5, [r3, #152]	; 0x98
		tx_ethercat_done = false;
     77c:	4e08      	ldr	r6, [pc, #32]	; (7a0 <TC7_Handler+0x68>)
     77e:	2400      	movs	r4, #0
     780:	7034      	strb	r4, [r6, #0]
	((Port *)hw)->Group[submodule_index].OUTCLR.reg = mask;
     782:	f8c3 5094 	str.w	r5, [r3, #148]	; 0x94
		_dma_enable_transaction(0,false);
     786:	4621      	mov	r1, r4
     788:	4620      	mov	r0, r4
     78a:	4f07      	ldr	r7, [pc, #28]	; (7a8 <TC7_Handler+0x70>)
     78c:	47b8      	blx	r7
		_dma_enable_transaction(1,false);
     78e:	4621      	mov	r1, r4
     790:	4628      	mov	r0, r5
     792:	47b8      	blx	r7
		tx_ethercat_done = false;
     794:	7034      	strb	r4, [r6, #0]
	};
     796:	e7eb      	b.n	770 <TC7_Handler+0x38>
     798:	43001800 	.word	0x43001800
     79c:	20000520 	.word	0x20000520
     7a0:	20000568 	.word	0x20000568
     7a4:	41008000 	.word	0x41008000
     7a8:	00000f5d 	.word	0x00000f5d

000007ac <configure_ethercat_dma_descriptors>:
{
     7ac:	e92d 4ff0 	stmdb	sp!, {r4, r5, r6, r7, r8, r9, sl, fp, lr}
     7b0:	b083      	sub	sp, #12
	setup_transfer_descriptor(DMA_TRANSFER_DESCRIPTOR_TX, &spi_abort_fifo_dma_descriptor, abort_fifo_start, abort_fifo_length, &spi_clear_rd_fifo_dma_descriptor, DMAC_BTCTRL_BLOCKACT_SUSPEND_Val);			//DMA_BLOCK_ACTION_SUSPEND
     7b2:	f8df 81b8 	ldr.w	r8, [pc, #440]	; 96c <configure_ethercat_dma_descriptors+0x1c0>
     7b6:	4f61      	ldr	r7, [pc, #388]	; (93c <configure_ethercat_dma_descriptors+0x190>)
     7b8:	2602      	movs	r6, #2
     7ba:	9601      	str	r6, [sp, #4]
     7bc:	f8df 91b0 	ldr.w	r9, [pc, #432]	; 970 <configure_ethercat_dma_descriptors+0x1c4>
     7c0:	f8cd 9000 	str.w	r9, [sp]
     7c4:	2313      	movs	r3, #19
     7c6:	f8d8 2004 	ldr.w	r2, [r8, #4]
     7ca:	4639      	mov	r1, r7
     7cc:	2000      	movs	r0, #0
     7ce:	4d5c      	ldr	r5, [pc, #368]	; (940 <configure_ethercat_dma_descriptors+0x194>)
     7d0:	47a8      	blx	r5
	setup_transfer_descriptor(DMA_TRANSFER_DESCRIPTOR_TX,&spi_clear_rd_fifo_dma_descriptor,wr_pdram_start,wr_pdram_lenght+4*write_var_num,&spi_write_cl_fifo_dma_descriptor,DMAC_BTCTRL_BLOCKACT_SUSPEND_Val);	//DMA_BLOCK_ACTION_SUSPEND
     7d2:	f8d8 b008 	ldr.w	fp, [r8, #8]
     7d6:	9601      	str	r6, [sp, #4]
     7d8:	4c5a      	ldr	r4, [pc, #360]	; (944 <configure_ethercat_dma_descriptors+0x198>)
     7da:	9400      	str	r4, [sp, #0]
     7dc:	2343      	movs	r3, #67	; 0x43
     7de:	465a      	mov	r2, fp
     7e0:	4649      	mov	r1, r9
     7e2:	2000      	movs	r0, #0
     7e4:	47a8      	blx	r5
	setup_transfer_descriptor(DMA_TRANSFER_DESCRIPTOR_TX,&spi_write_cl_fifo_dma_descriptor,cl_pdram_start,cl_pdram_lenght,&spi_write_fifo_dma_descriptor,DMAC_BTCTRL_BLOCKACT_SUSPEND_Val);						//DMA_BLOCK_ACTION_SUSPEND
     7e6:	4b58      	ldr	r3, [pc, #352]	; (948 <configure_ethercat_dma_descriptors+0x19c>)
     7e8:	681a      	ldr	r2, [r3, #0]
     7ea:	f8df 9188 	ldr.w	r9, [pc, #392]	; 974 <configure_ethercat_dma_descriptors+0x1c8>
     7ee:	9601      	str	r6, [sp, #4]
     7f0:	f8cd 9000 	str.w	r9, [sp]
     7f4:	230b      	movs	r3, #11
     7f6:	4621      	mov	r1, r4
     7f8:	2000      	movs	r0, #0
     7fa:	47a8      	blx	r5
	setup_transfer_descriptor(DMA_TRANSFER_DESCRIPTOR_TX,&spi_write_fifo_dma_descriptor,wr_pdram_start,wr_pdram_lenght,&spi_write2ram_dma_descriptor,DMAC_BTCTRL_BLOCKACT_NOACT_Val);							//DMA_BLOCK_ACTION_NOACT
     7fc:	2400      	movs	r4, #0
     7fe:	9401      	str	r4, [sp, #4]
     800:	f8df a174 	ldr.w	sl, [pc, #372]	; 978 <configure_ethercat_dma_descriptors+0x1cc>
     804:	f8cd a000 	str.w	sl, [sp]
     808:	2303      	movs	r3, #3
     80a:	465a      	mov	r2, fp
     80c:	4649      	mov	r1, r9
     80e:	4620      	mov	r0, r4
     810:	47a8      	blx	r5
	setup_transfer_descriptor(DMA_TRANSFER_DESCRIPTOR_TX,&spi_write2ram_dma_descriptor,&ram_buffer[ram_real_wr_start],4*write_var_num,&spi_config_fifo_dma_descriptor,DMAC_BTCTRL_BLOCKACT_SUSPEND_Val);		//DMA_BLOCK_ACTION_SUSPEND
     812:	9601      	str	r6, [sp, #4]
     814:	f8df b164 	ldr.w	fp, [pc, #356]	; 97c <configure_ethercat_dma_descriptors+0x1d0>
     818:	f8cd b000 	str.w	fp, [sp]
     81c:	2340      	movs	r3, #64	; 0x40
     81e:	4a4b      	ldr	r2, [pc, #300]	; (94c <configure_ethercat_dma_descriptors+0x1a0>)
     820:	4651      	mov	r1, sl
     822:	4620      	mov	r0, r4
     824:	47a8      	blx	r5
	setup_transfer_descriptor(DMA_TRANSFER_DESCRIPTOR_TX,&spi_config_fifo_dma_descriptor,cf_pdram_start,cf_pdram_lenght,&spi_read_fifo_dma_descriptor,DMAC_BTCTRL_BLOCKACT_SUSPEND_Val);						//DMA_BLOCK_ACTION_SUSPEND		
     826:	9601      	str	r6, [sp, #4]
     828:	f8df a154 	ldr.w	sl, [pc, #340]	; 980 <configure_ethercat_dma_descriptors+0x1d4>
     82c:	f8cd a000 	str.w	sl, [sp]
     830:	2313      	movs	r3, #19
     832:	f8d8 200c 	ldr.w	r2, [r8, #12]
     836:	4659      	mov	r1, fp
     838:	4620      	mov	r0, r4
     83a:	47a8      	blx	r5
	setup_transfer_descriptor(DMA_TRANSFER_DESCRIPTOR_TX,&spi_read_fifo_dma_descriptor,rd_pdram_start,rd_pdram_lenght,&spi_read2ram_dma_descriptor,DMAC_BTCTRL_BLOCKACT_NOACT_Val);								//DMA_BLOCK_ACTION_NOACT
     83c:	f8d8 2010 	ldr.w	r2, [r8, #16]
     840:	9401      	str	r4, [sp, #4]
     842:	f8df 8140 	ldr.w	r8, [pc, #320]	; 984 <configure_ethercat_dma_descriptors+0x1d8>
     846:	f8cd 8000 	str.w	r8, [sp]
     84a:	2303      	movs	r3, #3
     84c:	4651      	mov	r1, sl
     84e:	4620      	mov	r0, r4
     850:	47a8      	blx	r5
	setup_transfer_descriptor(DMA_TRANSFER_DESCRIPTOR_TX_DUMMY,&spi_read2ram_dma_descriptor,0,4*read_var_num,&spi_write_fifo_dma_descriptor,DMAC_BTCTRL_BLOCKACT_SUSPEND_Val);									//DMA_BLOCK_ACTION_SUSPEND
     852:	9601      	str	r6, [sp, #4]
     854:	f8cd 9000 	str.w	r9, [sp]
     858:	2340      	movs	r3, #64	; 0x40
     85a:	4622      	mov	r2, r4
     85c:	4641      	mov	r1, r8
     85e:	4630      	mov	r0, r6
     860:	47a8      	blx	r5
	setup_transfer_descriptor(DMA_TRANSFER_DESCRIPTOR_RX_DUMMY,&spi_rx_abort_fifo_dma_descriptor,0,cf_pdram_lenght,&spi_rx_clear_rd_fifo_dma_descriptor,DMAC_BTCTRL_BLOCKACT_SUSPEND_Val);						//DMA_BLOCK_ACTION_SUSPEND
     862:	f8df 8124 	ldr.w	r8, [pc, #292]	; 988 <configure_ethercat_dma_descriptors+0x1dc>
     866:	9601      	str	r6, [sp, #4]
     868:	f8df 9120 	ldr.w	r9, [pc, #288]	; 98c <configure_ethercat_dma_descriptors+0x1e0>
     86c:	f8cd 9000 	str.w	r9, [sp]
     870:	2313      	movs	r3, #19
     872:	4622      	mov	r2, r4
     874:	4641      	mov	r1, r8
     876:	2003      	movs	r0, #3
     878:	47a8      	blx	r5
	setup_transfer_descriptor(DMA_TRANSFER_DESCRIPTOR_RX_DUMMY,&spi_rx_clear_rd_fifo_dma_descriptor,0,wr_pdram_lenght+4*write_var_num,&spi_rx_write_cl_fifo_dma_descriptor,DMAC_BTCTRL_BLOCKACT_SUSPEND_Val);	//DMA_BLOCK_ACTION_SUSPEND
     87a:	9601      	str	r6, [sp, #4]
     87c:	f8df a110 	ldr.w	sl, [pc, #272]	; 990 <configure_ethercat_dma_descriptors+0x1e4>
     880:	f8cd a000 	str.w	sl, [sp]
     884:	2343      	movs	r3, #67	; 0x43
     886:	4622      	mov	r2, r4
     888:	4649      	mov	r1, r9
     88a:	2003      	movs	r0, #3
     88c:	47a8      	blx	r5
	setup_transfer_descriptor(DMA_TRANSFER_DESCRIPTOR_RX_DUMMY,&spi_rx_write_cl_fifo_dma_descriptor,0,cl_pdram_lenght,&spi_rx_write_fifo_dma_descriptor,DMAC_BTCTRL_BLOCKACT_SUSPEND_Val);						//DMA_BLOCK_ACTION_SUSPEND
     88e:	f8df 9104 	ldr.w	r9, [pc, #260]	; 994 <configure_ethercat_dma_descriptors+0x1e8>
     892:	9601      	str	r6, [sp, #4]
     894:	f8cd 9000 	str.w	r9, [sp]
     898:	230b      	movs	r3, #11
     89a:	4622      	mov	r2, r4
     89c:	4651      	mov	r1, sl
     89e:	2003      	movs	r0, #3
     8a0:	47a8      	blx	r5
	setup_transfer_descriptor(DMA_TRANSFER_DESCRIPTOR_RX_DUMMY,&spi_rx_write_fifo_dma_descriptor,0,spi_head+4*write_var_num,&spi_rx_config_fifo_dma_descriptor,DMAC_BTCTRL_BLOCKACT_SUSPEND_Val);				//DMA_BLOCK_ACTION_SUSPEND
     8a2:	9601      	str	r6, [sp, #4]
     8a4:	f8df a0f0 	ldr.w	sl, [pc, #240]	; 998 <configure_ethercat_dma_descriptors+0x1ec>
     8a8:	f8cd a000 	str.w	sl, [sp]
     8ac:	2343      	movs	r3, #67	; 0x43
     8ae:	4622      	mov	r2, r4
     8b0:	4649      	mov	r1, r9
     8b2:	2003      	movs	r0, #3
     8b4:	47a8      	blx	r5
	setup_transfer_descriptor(DMA_TRANSFER_DESCRIPTOR_RX_DUMMY,&spi_rx_config_fifo_dma_descriptor,0,cf_pdram_lenght,&spi_rx_read_fifo_dma_descriptor,DMAC_BTCTRL_BLOCKACT_SUSPEND_Val);							//DMA_BLOCK_ACTION_SUSPEND
     8b6:	9601      	str	r6, [sp, #4]
     8b8:	f8df b0e0 	ldr.w	fp, [pc, #224]	; 99c <configure_ethercat_dma_descriptors+0x1f0>
     8bc:	f8cd b000 	str.w	fp, [sp]
     8c0:	2313      	movs	r3, #19
     8c2:	4622      	mov	r2, r4
     8c4:	4651      	mov	r1, sl
     8c6:	2003      	movs	r0, #3
     8c8:	47a8      	blx	r5
	setup_transfer_descriptor(DMA_TRANSFER_DESCRIPTOR_RX_DUMMY,&spi_rx_read_fifo_dma_descriptor,0,spi_head,&spi_rx_read2ram_dma_descriptor,DMAC_BTCTRL_BLOCKACT_NOACT_Val);										//DMA_BLOCK_ACTION_NOACT
     8ca:	9401      	str	r4, [sp, #4]
     8cc:	f8df a0d0 	ldr.w	sl, [pc, #208]	; 9a0 <configure_ethercat_dma_descriptors+0x1f4>
     8d0:	f8cd a000 	str.w	sl, [sp]
     8d4:	2303      	movs	r3, #3
     8d6:	4622      	mov	r2, r4
     8d8:	4659      	mov	r1, fp
     8da:	4618      	mov	r0, r3
     8dc:	47a8      	blx	r5
	setup_transfer_descriptor(DMA_TRANSFER_DESCRIPTOR_RX,&spi_rx_read2ram_dma_descriptor,&ram_buffer[ram_rd_start],4*read_var_num,&spi_rx_write_fifo_dma_descriptor,DMAC_BTCTRL_BLOCKACT_SUSPEND_Val);			//DMA_BLOCK_ACTION_SUSPEND
     8de:	9601      	str	r6, [sp, #4]
     8e0:	f8cd 9000 	str.w	r9, [sp]
     8e4:	2340      	movs	r3, #64	; 0x40
     8e6:	4a19      	ldr	r2, [pc, #100]	; (94c <configure_ethercat_dma_descriptors+0x1a0>)
     8e8:	441a      	add	r2, r3
     8ea:	4651      	mov	r1, sl
     8ec:	2001      	movs	r0, #1
     8ee:	47a8      	blx	r5
	spi_m_dma_register_callback(&SPI_0, SPI_DEV_CB_DMA_SUSPEND, LAN9252_rx_susp);
     8f0:	4d17      	ldr	r5, [pc, #92]	; (950 <configure_ethercat_dma_descriptors+0x1a4>)
     8f2:	4a18      	ldr	r2, [pc, #96]	; (954 <configure_ethercat_dma_descriptors+0x1a8>)
     8f4:	4631      	mov	r1, r6
     8f6:	4628      	mov	r0, r5
     8f8:	4b17      	ldr	r3, [pc, #92]	; (958 <configure_ethercat_dma_descriptors+0x1ac>)
     8fa:	4798      	blx	r3
	_dma_set_descriptor(0, spi_rx_abort_fifo_dma_descriptor);
     8fc:	f8d8 300c 	ldr.w	r3, [r8, #12]
     900:	9300      	str	r3, [sp, #0]
     902:	e898 000e 	ldmia.w	r8, {r1, r2, r3}
     906:	4620      	mov	r0, r4
     908:	4e14      	ldr	r6, [pc, #80]	; (95c <configure_ethercat_dma_descriptors+0x1b0>)
     90a:	47b0      	blx	r6
	_dma_set_descriptor(1, spi_abort_fifo_dma_descriptor);
     90c:	68fb      	ldr	r3, [r7, #12]
     90e:	9300      	str	r3, [sp, #0]
     910:	e897 000e 	ldmia.w	r7, {r1, r2, r3}
     914:	2001      	movs	r0, #1
     916:	47b0      	blx	r6
	spi_m_dma_enable(&SPI_0);
     918:	4628      	mov	r0, r5
     91a:	4b11      	ldr	r3, [pc, #68]	; (960 <configure_ethercat_dma_descriptors+0x1b4>)
     91c:	4798      	blx	r3
     91e:	2601      	movs	r6, #1
     920:	4b10      	ldr	r3, [pc, #64]	; (964 <configure_ethercat_dma_descriptors+0x1b8>)
     922:	f8c3 6094 	str.w	r6, [r3, #148]	; 0x94
	_dma_enable_transaction(0,false);
     926:	4621      	mov	r1, r4
     928:	4620      	mov	r0, r4
     92a:	4d0f      	ldr	r5, [pc, #60]	; (968 <configure_ethercat_dma_descriptors+0x1bc>)
     92c:	47a8      	blx	r5
	_dma_enable_transaction(1,false);
     92e:	4621      	mov	r1, r4
     930:	4630      	mov	r0, r6
     932:	47a8      	blx	r5
}
     934:	b003      	add	sp, #12
     936:	e8bd 8ff0 	ldmia.w	sp!, {r4, r5, r6, r7, r8, r9, sl, fp, pc}
     93a:	bf00      	nop
     93c:	20000510 	.word	0x20000510
     940:	00000631 	.word	0x00000631
     944:	20000538 	.word	0x20000538
     948:	20000000 	.word	0x20000000
     94c:	20000460 	.word	0x20000460
     950:	20000380 	.word	0x20000380
     954:	000005d9 	.word	0x000005d9
     958:	00000bed 	.word	0x00000bed
     95c:	00000fe5 	.word	0x00000fe5
     960:	00000bc5 	.word	0x00000bc5
     964:	41008000 	.word	0x41008000
     968:	00000f5d 	.word	0x00000f5d
     96c:	00004c5c 	.word	0x00004c5c
     970:	20000440 	.word	0x20000440
     974:	200003f0 	.word	0x200003f0
     978:	20000410 	.word	0x20000410
     97c:	20000500 	.word	0x20000500
     980:	20000548 	.word	0x20000548
     984:	20000400 	.word	0x20000400
     988:	20000450 	.word	0x20000450
     98c:	200004e0 	.word	0x200004e0
     990:	200004f0 	.word	0x200004f0
     994:	20000558 	.word	0x20000558
     998:	200003d0 	.word	0x200003d0
     99c:	200003e0 	.word	0x200003e0
     9a0:	20000528 	.word	0x20000528

000009a4 <delay_us>:

/**
 * \brief Perform delay in us
 */
void delay_us(const uint16_t us)
{
     9a4:	b510      	push	{r4, lr}
	_delay_cycles(hardware, _get_cycles_for_us(us));
     9a6:	4b04      	ldr	r3, [pc, #16]	; (9b8 <delay_us+0x14>)
     9a8:	681c      	ldr	r4, [r3, #0]
     9aa:	4b04      	ldr	r3, [pc, #16]	; (9bc <delay_us+0x18>)
     9ac:	4798      	blx	r3
     9ae:	4601      	mov	r1, r0
     9b0:	4620      	mov	r0, r4
     9b2:	4b03      	ldr	r3, [pc, #12]	; (9c0 <delay_us+0x1c>)
     9b4:	4798      	blx	r3
     9b6:	bd10      	pop	{r4, pc}
     9b8:	2000017c 	.word	0x2000017c
     9bc:	00000c25 	.word	0x00000c25
     9c0:	00000c61 	.word	0x00000c61

000009c4 <delay_ms>:

/**
 * \brief Perform delay in ms
 */
void delay_ms(const uint16_t ms)
{
     9c4:	b510      	push	{r4, lr}
	_delay_cycles(hardware, _get_cycles_for_ms(ms));
     9c6:	4b04      	ldr	r3, [pc, #16]	; (9d8 <delay_ms+0x14>)
     9c8:	681c      	ldr	r4, [r3, #0]
     9ca:	4b04      	ldr	r3, [pc, #16]	; (9dc <delay_ms+0x18>)
     9cc:	4798      	blx	r3
     9ce:	4601      	mov	r1, r0
     9d0:	4620      	mov	r0, r4
     9d2:	4b03      	ldr	r3, [pc, #12]	; (9e0 <delay_ms+0x1c>)
     9d4:	4798      	blx	r3
     9d6:	bd10      	pop	{r4, pc}
     9d8:	2000017c 	.word	0x2000017c
     9dc:	00000c3d 	.word	0x00000c3d
     9e0:	00000c61 	.word	0x00000c61

000009e4 <i2c_m_sync_write>:

/**
 * \brief Sync version of I2C I/O write
 */
static int32_t i2c_m_sync_write(struct io_descriptor *io, const uint8_t *buf, const uint16_t n)
{
     9e4:	b510      	push	{r4, lr}
     9e6:	b084      	sub	sp, #16
	struct i2c_m_sync_desc *i2c = CONTAINER_OF(io, struct i2c_m_sync_desc, io);
	struct _i2c_m_msg       msg;
	int32_t                 ret;

	msg.addr   = i2c->slave_addr;
     9e8:	8903      	ldrh	r3, [r0, #8]
     9ea:	f8ad 3004 	strh.w	r3, [sp, #4]
	msg.len    = n;
     9ee:	4614      	mov	r4, r2
     9f0:	9202      	str	r2, [sp, #8]
	msg.flags  = I2C_M_STOP;
     9f2:	f44f 4300 	mov.w	r3, #32768	; 0x8000
     9f6:	f8ad 3006 	strh.w	r3, [sp, #6]
	msg.buffer = (uint8_t *)buf;
     9fa:	9103      	str	r1, [sp, #12]

	ret = _i2c_m_sync_transfer(&i2c->device, &msg);
     9fc:	a901      	add	r1, sp, #4
     9fe:	3814      	subs	r0, #20
     a00:	4b03      	ldr	r3, [pc, #12]	; (a10 <i2c_m_sync_write+0x2c>)
     a02:	4798      	blx	r3

	if (ret) {
     a04:	b910      	cbnz	r0, a0c <i2c_m_sync_write+0x28>
		return ret;
	}

	return n;
}
     a06:	4620      	mov	r0, r4
     a08:	b004      	add	sp, #16
     a0a:	bd10      	pop	{r4, pc}
		return ret;
     a0c:	4604      	mov	r4, r0
     a0e:	e7fa      	b.n	a06 <i2c_m_sync_write+0x22>
     a10:	000016e5 	.word	0x000016e5

00000a14 <i2c_m_sync_read>:
{
     a14:	b510      	push	{r4, lr}
     a16:	b084      	sub	sp, #16
	msg.addr   = i2c->slave_addr;
     a18:	8903      	ldrh	r3, [r0, #8]
     a1a:	f8ad 3004 	strh.w	r3, [sp, #4]
	msg.len    = n;
     a1e:	4614      	mov	r4, r2
     a20:	9202      	str	r2, [sp, #8]
	msg.flags  = I2C_M_STOP | I2C_M_RD;
     a22:	f248 0301 	movw	r3, #32769	; 0x8001
     a26:	f8ad 3006 	strh.w	r3, [sp, #6]
	msg.buffer = buf;
     a2a:	9103      	str	r1, [sp, #12]
	ret = _i2c_m_sync_transfer(&i2c->device, &msg);
     a2c:	a901      	add	r1, sp, #4
     a2e:	3814      	subs	r0, #20
     a30:	4b03      	ldr	r3, [pc, #12]	; (a40 <i2c_m_sync_read+0x2c>)
     a32:	4798      	blx	r3
	if (ret) {
     a34:	b910      	cbnz	r0, a3c <i2c_m_sync_read+0x28>
}
     a36:	4620      	mov	r0, r4
     a38:	b004      	add	sp, #16
     a3a:	bd10      	pop	{r4, pc}
		return ret;
     a3c:	4604      	mov	r4, r0
     a3e:	e7fa      	b.n	a36 <i2c_m_sync_read+0x22>
     a40:	000016e5 	.word	0x000016e5

00000a44 <i2c_m_sync_init>:

/**
 * \brief Sync version of i2c initialize
 */
int32_t i2c_m_sync_init(struct i2c_m_sync_desc *i2c, void *hw)
{
     a44:	b538      	push	{r3, r4, r5, lr}
     a46:	460d      	mov	r5, r1
	int32_t init_status;
	ASSERT(i2c);
     a48:	4604      	mov	r4, r0
     a4a:	225e      	movs	r2, #94	; 0x5e
     a4c:	4908      	ldr	r1, [pc, #32]	; (a70 <i2c_m_sync_init+0x2c>)
     a4e:	3000      	adds	r0, #0
     a50:	bf18      	it	ne
     a52:	2001      	movne	r0, #1
     a54:	4b07      	ldr	r3, [pc, #28]	; (a74 <i2c_m_sync_init+0x30>)
     a56:	4798      	blx	r3

	init_status = _i2c_m_sync_init(&i2c->device, hw);
     a58:	4629      	mov	r1, r5
     a5a:	4620      	mov	r0, r4
     a5c:	4b06      	ldr	r3, [pc, #24]	; (a78 <i2c_m_sync_init+0x34>)
     a5e:	4798      	blx	r3
	if (init_status) {
     a60:	4603      	mov	r3, r0
     a62:	b918      	cbnz	r0, a6c <i2c_m_sync_init+0x28>
		return init_status;
	}

	/* Init I/O */
	i2c->io.read  = i2c_m_sync_read;
     a64:	4a05      	ldr	r2, [pc, #20]	; (a7c <i2c_m_sync_init+0x38>)
     a66:	61a2      	str	r2, [r4, #24]
	i2c->io.write = i2c_m_sync_write;
     a68:	4a05      	ldr	r2, [pc, #20]	; (a80 <i2c_m_sync_init+0x3c>)
     a6a:	6162      	str	r2, [r4, #20]

	return ERR_NONE;
}
     a6c:	4618      	mov	r0, r3
     a6e:	bd38      	pop	{r3, r4, r5, pc}
     a70:	00004c70 	.word	0x00004c70
     a74:	00000c1d 	.word	0x00000c1d
     a78:	0000163d 	.word	0x0000163d
     a7c:	00000a15 	.word	0x00000a15
     a80:	000009e5 	.word	0x000009e5

00000a84 <i2c_m_sync_enable>:

/**
 * \brief Sync version of i2c enable
 */
int32_t i2c_m_sync_enable(struct i2c_m_sync_desc *i2c)
{
     a84:	b508      	push	{r3, lr}
	return _i2c_m_sync_enable(&i2c->device);
     a86:	4b01      	ldr	r3, [pc, #4]	; (a8c <i2c_m_sync_enable+0x8>)
     a88:	4798      	blx	r3
}
     a8a:	bd08      	pop	{r3, pc}
     a8c:	0000166d 	.word	0x0000166d

00000a90 <i2c_m_sync_set_slaveaddr>:
/**
 * \brief Sync version of i2c set slave address
 */
int32_t i2c_m_sync_set_slaveaddr(struct i2c_m_sync_desc *i2c, int16_t addr, int32_t addr_len)
{
	return i2c->slave_addr = (addr & 0x3ff) | (addr_len & I2C_M_TEN);
     a90:	f3c1 0109 	ubfx	r1, r1, #0, #10
     a94:	f402 6280 	and.w	r2, r2, #1024	; 0x400
     a98:	430a      	orrs	r2, r1
     a9a:	8382      	strh	r2, [r0, #28]
}
     a9c:	4610      	mov	r0, r2
     a9e:	4770      	bx	lr

00000aa0 <i2c_m_sync_get_io_descriptor>:
/**
 * \brief Retrieve I/O descriptor
 */
int32_t i2c_m_sync_get_io_descriptor(struct i2c_m_sync_desc *const i2c, struct io_descriptor **io)
{
	*io = &i2c->io;
     aa0:	3014      	adds	r0, #20
     aa2:	6008      	str	r0, [r1, #0]
	return ERR_NONE;
}
     aa4:	2000      	movs	r0, #0
     aa6:	4770      	bx	lr

00000aa8 <io_write>:

/**
 * \brief I/O write interface
 */
int32_t io_write(struct io_descriptor *const io_descr, const uint8_t *const buf, const uint16_t length)
{
     aa8:	b570      	push	{r4, r5, r6, lr}
     aaa:	460d      	mov	r5, r1
     aac:	4616      	mov	r6, r2
	ASSERT(io_descr && buf);
     aae:	4604      	mov	r4, r0
     ab0:	b168      	cbz	r0, ace <io_write+0x26>
     ab2:	b151      	cbz	r1, aca <io_write+0x22>
     ab4:	2001      	movs	r0, #1
     ab6:	2234      	movs	r2, #52	; 0x34
     ab8:	4906      	ldr	r1, [pc, #24]	; (ad4 <io_write+0x2c>)
     aba:	4b07      	ldr	r3, [pc, #28]	; (ad8 <io_write+0x30>)
     abc:	4798      	blx	r3
	return io_descr->write(io_descr, buf, length);
     abe:	6823      	ldr	r3, [r4, #0]
     ac0:	4632      	mov	r2, r6
     ac2:	4629      	mov	r1, r5
     ac4:	4620      	mov	r0, r4
     ac6:	4798      	blx	r3
}
     ac8:	bd70      	pop	{r4, r5, r6, pc}
	ASSERT(io_descr && buf);
     aca:	2000      	movs	r0, #0
     acc:	e7f3      	b.n	ab6 <io_write+0xe>
     ace:	2000      	movs	r0, #0
     ad0:	e7f1      	b.n	ab6 <io_write+0xe>
     ad2:	bf00      	nop
     ad4:	00004c8c 	.word	0x00004c8c
     ad8:	00000c1d 	.word	0x00000c1d

00000adc <io_read>:

/**
 * \brief I/O read interface
 */
int32_t io_read(struct io_descriptor *const io_descr, uint8_t *const buf, const uint16_t length)
{
     adc:	b570      	push	{r4, r5, r6, lr}
     ade:	460d      	mov	r5, r1
     ae0:	4616      	mov	r6, r2
	ASSERT(io_descr && buf);
     ae2:	4604      	mov	r4, r0
     ae4:	b168      	cbz	r0, b02 <io_read+0x26>
     ae6:	b151      	cbz	r1, afe <io_read+0x22>
     ae8:	2001      	movs	r0, #1
     aea:	223d      	movs	r2, #61	; 0x3d
     aec:	4906      	ldr	r1, [pc, #24]	; (b08 <io_read+0x2c>)
     aee:	4b07      	ldr	r3, [pc, #28]	; (b0c <io_read+0x30>)
     af0:	4798      	blx	r3
	return io_descr->read(io_descr, buf, length);
     af2:	6863      	ldr	r3, [r4, #4]
     af4:	4632      	mov	r2, r6
     af6:	4629      	mov	r1, r5
     af8:	4620      	mov	r0, r4
     afa:	4798      	blx	r3
}
     afc:	bd70      	pop	{r4, r5, r6, pc}
	ASSERT(io_descr && buf);
     afe:	2000      	movs	r0, #0
     b00:	e7f3      	b.n	aea <io_read+0xe>
     b02:	2000      	movs	r0, #0
     b04:	e7f1      	b.n	aea <io_read+0xe>
     b06:	bf00      	nop
     b08:	00004c8c 	.word	0x00004c8c
     b0c:	00000c1d 	.word	0x00000c1d

00000b10 <_spi_m_dma_io_write>:
 *  \return ERR_NONE on success, or an error code on failure.
 *  \retval ERR_NONE Success, transfer started.
 *  \retval ERR_BUSY Busy.
 */
static int32_t _spi_m_dma_io_write(struct io_descriptor *io, const uint8_t *const buf, const uint16_t length)
{
     b10:	b570      	push	{r4, r5, r6, lr}
     b12:	460d      	mov	r5, r1
     b14:	4616      	mov	r6, r2
	ASSERT(io);
     b16:	4604      	mov	r4, r0
     b18:	2298      	movs	r2, #152	; 0x98
     b1a:	4907      	ldr	r1, [pc, #28]	; (b38 <_spi_m_dma_io_write+0x28>)
     b1c:	3000      	adds	r0, #0
     b1e:	bf18      	it	ne
     b20:	2001      	movne	r0, #1
     b22:	4b06      	ldr	r3, [pc, #24]	; (b3c <_spi_m_dma_io_write+0x2c>)
     b24:	4798      	blx	r3

	struct spi_m_dma_descriptor *spi = CONTAINER_OF(io, struct spi_m_dma_descriptor, io);
	return _spi_m_dma_transfer(&spi->dev, buf, NULL, length);
     b26:	4633      	mov	r3, r6
     b28:	2200      	movs	r2, #0
     b2a:	4629      	mov	r1, r5
     b2c:	f1a4 0020 	sub.w	r0, r4, #32
     b30:	4c03      	ldr	r4, [pc, #12]	; (b40 <_spi_m_dma_io_write+0x30>)
     b32:	47a0      	blx	r4
}
     b34:	bd70      	pop	{r4, r5, r6, pc}
     b36:	bf00      	nop
     b38:	00004ca0 	.word	0x00004ca0
     b3c:	00000c1d 	.word	0x00000c1d
     b40:	00001bc9 	.word	0x00001bc9

00000b44 <_spi_m_dma_io_read>:
{
     b44:	b570      	push	{r4, r5, r6, lr}
     b46:	460d      	mov	r5, r1
     b48:	4616      	mov	r6, r2
	ASSERT(io);
     b4a:	4604      	mov	r4, r0
     b4c:	2281      	movs	r2, #129	; 0x81
     b4e:	4907      	ldr	r1, [pc, #28]	; (b6c <_spi_m_dma_io_read+0x28>)
     b50:	3000      	adds	r0, #0
     b52:	bf18      	it	ne
     b54:	2001      	movne	r0, #1
     b56:	4b06      	ldr	r3, [pc, #24]	; (b70 <_spi_m_dma_io_read+0x2c>)
     b58:	4798      	blx	r3
	return _spi_m_dma_transfer(&spi->dev, NULL, buf, length);
     b5a:	4633      	mov	r3, r6
     b5c:	462a      	mov	r2, r5
     b5e:	2100      	movs	r1, #0
     b60:	f1a4 0020 	sub.w	r0, r4, #32
     b64:	4c03      	ldr	r4, [pc, #12]	; (b74 <_spi_m_dma_io_read+0x30>)
     b66:	47a0      	blx	r4
}
     b68:	bd70      	pop	{r4, r5, r6, pc}
     b6a:	bf00      	nop
     b6c:	00004ca0 	.word	0x00004ca0
     b70:	00000c1d 	.word	0x00000c1d
     b74:	00001bc9 	.word	0x00001bc9

00000b78 <spi_m_dma_init>:
{
     b78:	b538      	push	{r3, r4, r5, lr}
     b7a:	460c      	mov	r4, r1
	ASSERT(spi && hw);
     b7c:	4605      	mov	r5, r0
     b7e:	b1a8      	cbz	r0, bac <spi_m_dma_init+0x34>
     b80:	b191      	cbz	r1, ba8 <spi_m_dma_init+0x30>
     b82:	2001      	movs	r0, #1
     b84:	223b      	movs	r2, #59	; 0x3b
     b86:	490a      	ldr	r1, [pc, #40]	; (bb0 <spi_m_dma_init+0x38>)
     b88:	4b0a      	ldr	r3, [pc, #40]	; (bb4 <spi_m_dma_init+0x3c>)
     b8a:	4798      	blx	r3
	spi->dev.prvt = (void *)hw;
     b8c:	4628      	mov	r0, r5
     b8e:	f840 4f04 	str.w	r4, [r0, #4]!
	rc            = _spi_m_dma_init(&spi->dev, hw);
     b92:	4621      	mov	r1, r4
     b94:	4b08      	ldr	r3, [pc, #32]	; (bb8 <spi_m_dma_init+0x40>)
     b96:	4798      	blx	r3
	if (rc) {
     b98:	4603      	mov	r3, r0
     b9a:	b918      	cbnz	r0, ba4 <spi_m_dma_init+0x2c>
	spi->io.read  = _spi_m_dma_io_read;
     b9c:	4a07      	ldr	r2, [pc, #28]	; (bbc <spi_m_dma_init+0x44>)
     b9e:	62aa      	str	r2, [r5, #40]	; 0x28
	spi->io.write = _spi_m_dma_io_write;
     ba0:	4a07      	ldr	r2, [pc, #28]	; (bc0 <spi_m_dma_init+0x48>)
     ba2:	626a      	str	r2, [r5, #36]	; 0x24
}
     ba4:	4618      	mov	r0, r3
     ba6:	bd38      	pop	{r3, r4, r5, pc}
	ASSERT(spi && hw);
     ba8:	2000      	movs	r0, #0
     baa:	e7eb      	b.n	b84 <spi_m_dma_init+0xc>
     bac:	2000      	movs	r0, #0
     bae:	e7e9      	b.n	b84 <spi_m_dma_init+0xc>
     bb0:	00004ca0 	.word	0x00004ca0
     bb4:	00000c1d 	.word	0x00000c1d
     bb8:	00001995 	.word	0x00001995
     bbc:	00000b45 	.word	0x00000b45
     bc0:	00000b11 	.word	0x00000b11

00000bc4 <spi_m_dma_enable>:
{
     bc4:	b510      	push	{r4, lr}
	ASSERT(spi);
     bc6:	4604      	mov	r4, r0
     bc8:	2251      	movs	r2, #81	; 0x51
     bca:	4905      	ldr	r1, [pc, #20]	; (be0 <spi_m_dma_enable+0x1c>)
     bcc:	3000      	adds	r0, #0
     bce:	bf18      	it	ne
     bd0:	2001      	movne	r0, #1
     bd2:	4b04      	ldr	r3, [pc, #16]	; (be4 <spi_m_dma_enable+0x20>)
     bd4:	4798      	blx	r3
	_spi_m_dma_enable(&spi->dev);
     bd6:	1d20      	adds	r0, r4, #4
     bd8:	4b03      	ldr	r3, [pc, #12]	; (be8 <spi_m_dma_enable+0x24>)
     bda:	4798      	blx	r3
     bdc:	bd10      	pop	{r4, pc}
     bde:	bf00      	nop
     be0:	00004ca0 	.word	0x00004ca0
     be4:	00000c1d 	.word	0x00000c1d
     be8:	00001b11 	.word	0x00001b11

00000bec <spi_m_dma_register_callback>:
	return _spi_m_dma_transfer(&spi->dev, txbuf, rxbuf, length);
}

void spi_m_dma_register_callback(struct spi_m_dma_descriptor *spi, const enum spi_m_dma_cb_type type,
                                 spi_m_dma_cb_t func)
{
     bec:	b570      	push	{r4, r5, r6, lr}
     bee:	460d      	mov	r5, r1
     bf0:	4616      	mov	r6, r2
	ASSERT(spi);
     bf2:	4604      	mov	r4, r0
     bf4:	22a8      	movs	r2, #168	; 0xa8
     bf6:	4906      	ldr	r1, [pc, #24]	; (c10 <spi_m_dma_register_callback+0x24>)
     bf8:	3000      	adds	r0, #0
     bfa:	bf18      	it	ne
     bfc:	2001      	movne	r0, #1
     bfe:	4b05      	ldr	r3, [pc, #20]	; (c14 <spi_m_dma_register_callback+0x28>)
     c00:	4798      	blx	r3
	_spi_m_dma_register_callback(&spi->dev, (enum _spi_dma_dev_cb_type)type, func);
     c02:	4632      	mov	r2, r6
     c04:	4629      	mov	r1, r5
     c06:	1d20      	adds	r0, r4, #4
     c08:	4b03      	ldr	r3, [pc, #12]	; (c18 <spi_m_dma_register_callback+0x2c>)
     c0a:	4798      	blx	r3
     c0c:	bd70      	pop	{r4, r5, r6, pc}
     c0e:	bf00      	nop
     c10:	00004ca0 	.word	0x00004ca0
     c14:	00000c1d 	.word	0x00000c1d
     c18:	00001b45 	.word	0x00001b45

00000c1c <assert>:
/**
 * \brief Assert function
 */
void assert(const bool condition, const char *const file, const int line)
{
	if (!(condition)) {
     c1c:	b900      	cbnz	r0, c20 <assert+0x4>
		__asm("BKPT #0");
     c1e:	be00      	bkpt	0x0000
     c20:	4770      	bx	lr
	...

00000c24 <_get_cycles_for_us>:
 */
static inline uint32_t _get_cycles_for_us_internal(const uint16_t us, const uint32_t freq, const uint8_t power)
{
	switch (power) {
	case 9:
		return (us * (freq / 1000000) + 2) / 3;
     c24:	2364      	movs	r3, #100	; 0x64
     c26:	fb03 f000 	mul.w	r0, r3, r0
     c2a:	3002      	adds	r0, #2
     c2c:	4b02      	ldr	r3, [pc, #8]	; (c38 <_get_cycles_for_us+0x14>)
     c2e:	fba3 3000 	umull	r3, r0, r3, r0
 * \brief Retrieve the amount of cycles to delay for the given amount of us
 */
uint32_t _get_cycles_for_us(const uint16_t us)
{
	return _get_cycles_for_us_internal(us, CONF_CPU_FREQUENCY, CPU_FREQ_POWER);
}
     c32:	0840      	lsrs	r0, r0, #1
     c34:	4770      	bx	lr
     c36:	bf00      	nop
     c38:	aaaaaaab 	.word	0xaaaaaaab

00000c3c <_get_cycles_for_ms>:
 */
static inline uint32_t _get_cycles_for_ms_internal(const uint16_t ms, const uint32_t freq, const uint8_t power)
{
	switch (power) {
	case 9:
		return (ms * (freq / 1000000) + 2) / 3 * 1000;
     c3c:	2364      	movs	r3, #100	; 0x64
     c3e:	fb03 f300 	mul.w	r3, r3, r0
     c42:	3302      	adds	r3, #2
     c44:	4804      	ldr	r0, [pc, #16]	; (c58 <_get_cycles_for_ms+0x1c>)
     c46:	fba0 2303 	umull	r2, r3, r0, r3
     c4a:	085b      	lsrs	r3, r3, #1
 * \brief Retrieve the amount of cycles to delay for the given amount of ms
 */
uint32_t _get_cycles_for_ms(const uint16_t ms)
{
	return _get_cycles_for_ms_internal(ms, CONF_CPU_FREQUENCY, CPU_FREQ_POWER);
}
     c4c:	f44f 707a 	mov.w	r0, #1000	; 0x3e8
     c50:	fb00 f003 	mul.w	r0, r0, r3
     c54:	4770      	bx	lr
     c56:	bf00      	nop
     c58:	aaaaaaab 	.word	0xaaaaaaab
     c5c:	00000000 	.word	0x00000000

00000c60 <_delay_cycles>:
	__asm(".align 3 \n"
	      "__delay:\n"
	      "subs r1, r1, #1\n"
	      "bhi __delay\n");
#elif defined __GNUC__
	__asm(".syntax unified\n"
     c60:	3901      	subs	r1, #1
     c62:	d8fd      	bhi.n	c60 <_delay_cycles>
     c64:	4770      	bx	lr
     c66:	bf00      	nop

00000c68 <_init_chip>:

/**
 * \brief Initialize the hardware abstraction layer
 */
void _init_chip(void)
{
     c68:	b508      	push	{r3, lr}
}

static inline void hri_nvmctrl_set_CTRLA_RWS_bf(const void *const hw, hri_nvmctrl_ctrla_reg_t mask)
{
	NVMCTRL_CRITICAL_SECTION_ENTER();
	((Nvmctrl *)hw)->CTRLA.reg |= NVMCTRL_CTRLA_RWS(mask);
     c6a:	4a0d      	ldr	r2, [pc, #52]	; (ca0 <_init_chip+0x38>)
     c6c:	8813      	ldrh	r3, [r2, #0]
     c6e:	b29b      	uxth	r3, r3
     c70:	f443 63c0 	orr.w	r3, r3, #1536	; 0x600
     c74:	8013      	strh	r3, [r2, #0]
	hri_nvmctrl_set_CTRLA_RWS_bf(NVMCTRL, CONF_NVM_WAIT_STATE);

	_osc32kctrl_init_sources();
     c76:	4b0b      	ldr	r3, [pc, #44]	; (ca4 <_init_chip+0x3c>)
     c78:	4798      	blx	r3
	_oscctrl_init_sources();
     c7a:	4b0b      	ldr	r3, [pc, #44]	; (ca8 <_init_chip+0x40>)
     c7c:	4798      	blx	r3
	_mclk_init();
     c7e:	4b0b      	ldr	r3, [pc, #44]	; (cac <_init_chip+0x44>)
     c80:	4798      	blx	r3
#if _GCLK_INIT_1ST
	_gclk_init_generators_by_fref(_GCLK_INIT_1ST);
#endif
	_oscctrl_init_referenced_generators();
     c82:	4b0b      	ldr	r3, [pc, #44]	; (cb0 <_init_chip+0x48>)
     c84:	4798      	blx	r3
	_gclk_init_generators_by_fref(_GCLK_INIT_LAST);
     c86:	f640 70ff 	movw	r0, #4095	; 0xfff
     c8a:	4b0a      	ldr	r3, [pc, #40]	; (cb4 <_init_chip+0x4c>)
     c8c:	4798      	blx	r3
	((Mclk *)hw)->AHBMASK.reg |= MCLK_AHBMASK_DMAC;
     c8e:	4a0a      	ldr	r2, [pc, #40]	; (cb8 <_init_chip+0x50>)
     c90:	6913      	ldr	r3, [r2, #16]
     c92:	f443 7300 	orr.w	r3, r3, #512	; 0x200
     c96:	6113      	str	r3, [r2, #16]

#if CONF_DMAC_ENABLE
	hri_mclk_set_AHBMASK_DMAC_bit(MCLK);
	_dma_init();
     c98:	4b08      	ldr	r3, [pc, #32]	; (cbc <_init_chip+0x54>)
     c9a:	4798      	blx	r3
     c9c:	bd08      	pop	{r3, pc}
     c9e:	bf00      	nop
     ca0:	41004000 	.word	0x41004000
     ca4:	00001041 	.word	0x00001041
     ca8:	00001055 	.word	0x00001055
     cac:	00001035 	.word	0x00001035
     cb0:	00001071 	.word	0x00001071
     cb4:	00001011 	.word	0x00001011
     cb8:	40000800 	.word	0x40000800
     cbc:	00000d41 	.word	0x00000d41

00000cc0 <_dmac_handler>:
}
/**
 * \internal DMAC interrupt handler
 */
static void _dmac_handler(void)
{
     cc0:	b508      	push	{r3, lr}
	tmp = ((Dmac *)hw)->INTPEND.reg;
     cc2:	4a1d      	ldr	r2, [pc, #116]	; (d38 <_dmac_handler+0x78>)
     cc4:	8c13      	ldrh	r3, [r2, #32]
	uint8_t               channel      = hri_dmac_get_INTPEND_reg(DMAC, DMAC_INTPEND_ID_Msk);
     cc6:	f003 031f 	and.w	r3, r3, #31
	struct _dma_resource *tmp_resource = &_resources[channel];
     cca:	481c      	ldr	r0, [pc, #112]	; (d3c <_dmac_handler+0x7c>)
     ccc:	eb00 1003 	add.w	r0, r0, r3, lsl #4
	tmp = ((Dmac *)hw)->INTPEND.reg;
     cd0:	8c12      	ldrh	r2, [r2, #32]

	if (hri_dmac_get_INTPEND_TERR_bit(DMAC)) {
     cd2:	f412 7f80 	tst.w	r2, #256	; 0x100
     cd6:	d10a      	bne.n	cee <_dmac_handler+0x2e>
	tmp = ((Dmac *)hw)->INTPEND.reg;
     cd8:	4a17      	ldr	r2, [pc, #92]	; (d38 <_dmac_handler+0x78>)
     cda:	8c12      	ldrh	r2, [r2, #32]
		hri_dmac_clear_CHINTFLAG_TERR_bit(DMAC, channel);
		tmp_resource->dma_cb.error(tmp_resource);
	} else if (hri_dmac_get_INTPEND_TCMPL_bit(DMAC)) {
     cdc:	f412 7f00 	tst.w	r2, #512	; 0x200
     ce0:	d110      	bne.n	d04 <_dmac_handler+0x44>
	tmp = ((Dmac *)hw)->INTPEND.reg;
     ce2:	4a15      	ldr	r2, [pc, #84]	; (d38 <_dmac_handler+0x78>)
     ce4:	8c12      	ldrh	r2, [r2, #32]
		hri_dmac_clear_CHINTFLAG_TCMPL_bit(DMAC, channel);
		tmp_resource->dma_cb.transfer_done(tmp_resource);
	} else if (hri_dmac_get_INTPEND_SUSP_bit(DMAC)) {
     ce6:	f412 6f80 	tst.w	r2, #1024	; 0x400
     cea:	d117      	bne.n	d1c <_dmac_handler+0x5c>
     cec:	bd08      	pop	{r3, pc}
	return (((Dmac *)hw)->Channel[submodule_index].CHINTFLAG.reg & DMAC_CHINTFLAG_TERR) >> DMAC_CHINTFLAG_TERR_Pos;
}

static inline void hri_dmac_clear_CHINTFLAG_TERR_bit(const void *const hw, uint8_t submodule_index)
{
	((Dmac *)hw)->Channel[submodule_index].CHINTFLAG.reg = DMAC_CHINTFLAG_TERR;
     cee:	011b      	lsls	r3, r3, #4
     cf0:	f103 4282 	add.w	r2, r3, #1090519040	; 0x41000000
     cf4:	f502 4220 	add.w	r2, r2, #40960	; 0xa000
     cf8:	2101      	movs	r1, #1
     cfa:	f882 104e 	strb.w	r1, [r2, #78]	; 0x4e
		tmp_resource->dma_cb.error(tmp_resource);
     cfe:	6843      	ldr	r3, [r0, #4]
     d00:	4798      	blx	r3
     d02:	bd08      	pop	{r3, pc}
	return (((Dmac *)hw)->Channel[submodule_index].CHINTFLAG.reg & DMAC_CHINTFLAG_TCMPL) >> DMAC_CHINTFLAG_TCMPL_Pos;
}

static inline void hri_dmac_clear_CHINTFLAG_TCMPL_bit(const void *const hw, uint8_t submodule_index)
{
	((Dmac *)hw)->Channel[submodule_index].CHINTFLAG.reg = DMAC_CHINTFLAG_TCMPL;
     d04:	011b      	lsls	r3, r3, #4
     d06:	f103 4282 	add.w	r2, r3, #1090519040	; 0x41000000
     d0a:	f502 4220 	add.w	r2, r2, #40960	; 0xa000
     d0e:	2102      	movs	r1, #2
     d10:	f882 104e 	strb.w	r1, [r2, #78]	; 0x4e
		tmp_resource->dma_cb.transfer_done(tmp_resource);
     d14:	4a09      	ldr	r2, [pc, #36]	; (d3c <_dmac_handler+0x7c>)
     d16:	58d3      	ldr	r3, [r2, r3]
     d18:	4798      	blx	r3
     d1a:	bd08      	pop	{r3, pc}
	return (((Dmac *)hw)->Channel[submodule_index].CHINTFLAG.reg & DMAC_CHINTFLAG_SUSP) >> DMAC_CHINTFLAG_SUSP_Pos;
}

static inline void hri_dmac_clear_CHINTFLAG_SUSP_bit(const void *const hw, uint8_t submodule_index)
{
	((Dmac *)hw)->Channel[submodule_index].CHINTFLAG.reg = DMAC_CHINTFLAG_SUSP;
     d1c:	011b      	lsls	r3, r3, #4
     d1e:	f103 4282 	add.w	r2, r3, #1090519040	; 0x41000000
     d22:	f502 4220 	add.w	r2, r2, #40960	; 0xa000
     d26:	2104      	movs	r1, #4
     d28:	f882 104e 	strb.w	r1, [r2, #78]	; 0x4e
	hri_dmac_clear_CHINTFLAG_SUSP_bit(DMAC, channel);
	tmp_resource->dma_cb.suspend_done(tmp_resource);		
     d2c:	4a03      	ldr	r2, [pc, #12]	; (d3c <_dmac_handler+0x7c>)
     d2e:	4413      	add	r3, r2
     d30:	689b      	ldr	r3, [r3, #8]
     d32:	4798      	blx	r3
	}
}
     d34:	e7da      	b.n	cec <_dmac_handler+0x2c>
     d36:	bf00      	nop
     d38:	4100a000 	.word	0x4100a000
     d3c:	20000180 	.word	0x20000180

00000d40 <_dma_init>:
{
     d40:	b430      	push	{r4, r5}
	((Dmac *)hw)->CTRL.reg &= ~DMAC_CTRL_DMAENABLE;
     d42:	4a3d      	ldr	r2, [pc, #244]	; (e38 <_dma_init+0xf8>)
     d44:	8813      	ldrh	r3, [r2, #0]
     d46:	b29b      	uxth	r3, r3
     d48:	f023 0302 	bic.w	r3, r3, #2
     d4c:	b29b      	uxth	r3, r3
     d4e:	8013      	strh	r3, [r2, #0]
	((Dmac *)hw)->CRCCTRL.reg &= ~mask;
     d50:	8853      	ldrh	r3, [r2, #2]
     d52:	b29b      	uxth	r3, r3
     d54:	f423 537c 	bic.w	r3, r3, #16128	; 0x3f00
     d58:	b29b      	uxth	r3, r3
     d5a:	8053      	strh	r3, [r2, #2]
	((Dmac *)hw)->CTRL.reg |= DMAC_CTRL_SWRST;
     d5c:	8813      	ldrh	r3, [r2, #0]
     d5e:	b29b      	uxth	r3, r3
     d60:	f043 0301 	orr.w	r3, r3, #1
     d64:	8013      	strh	r3, [r2, #0]
	tmp = ((Dmac *)hw)->CTRL.reg;
     d66:	4b34      	ldr	r3, [pc, #208]	; (e38 <_dma_init+0xf8>)
     d68:	881b      	ldrh	r3, [r3, #0]
	while (hri_dmac_get_CTRL_SWRST_bit(DMAC))
     d6a:	f013 0f01 	tst.w	r3, #1
     d6e:	d1fa      	bne.n	d66 <_dma_init+0x26>
	((Dmac *)hw)->CTRL.reg = data;
     d70:	4a31      	ldr	r2, [pc, #196]	; (e38 <_dma_init+0xf8>)
     d72:	f44f 6370 	mov.w	r3, #3840	; 0xf00
     d76:	8013      	strh	r3, [r2, #0]
	tmp = ((Dmac *)hw)->DBGCTRL.reg;
     d78:	7b53      	ldrb	r3, [r2, #13]
	tmp &= ~DMAC_DBGCTRL_DBGRUN;
     d7a:	f003 03fe 	and.w	r3, r3, #254	; 0xfe
	tmp |= value << DMAC_DBGCTRL_DBGRUN_Pos;
     d7e:	f043 0301 	orr.w	r3, r3, #1
	((Dmac *)hw)->DBGCTRL.reg = tmp;
     d82:	7353      	strb	r3, [r2, #13]
	((Dmac *)hw)->PRICTRL0.reg = data;
     d84:	2300      	movs	r3, #0
     d86:	6153      	str	r3, [r2, #20]
	hri_dmac_write_BASEADDR_reg(DMAC, (uint32_t)_descriptor_section);
     d88:	492c      	ldr	r1, [pc, #176]	; (e3c <_dma_init+0xfc>)
	((Dmac *)hw)->BASEADDR.reg = data;
     d8a:	6351      	str	r1, [r2, #52]	; 0x34
	hri_dmac_write_WRBADDR_reg(DMAC, (uint32_t)_write_back_section);
     d8c:	492c      	ldr	r1, [pc, #176]	; (e40 <_dma_init+0x100>)
	((Dmac *)hw)->WRBADDR.reg = data;
     d8e:	6391      	str	r1, [r2, #56]	; 0x38
	for (i = 0; i < DMAC_CH_NUM; i++) {
     d90:	e016      	b.n	dc0 <_dma_init+0x80>
		hri_dmac_write_CHCTRLA_reg(DMAC, i, _cfgs[i].ctrla);
     d92:	4a2c      	ldr	r2, [pc, #176]	; (e44 <_dma_init+0x104>)
     d94:	f852 5033 	ldr.w	r5, [r2, r3, lsl #3]

static inline void hri_dmac_write_CHCTRLA_reg(const void *const hw, uint8_t submodule_index,
                                              hri_dmac_chctrla_reg_t data)
{
	DMAC_CRITICAL_SECTION_ENTER();
	((Dmac *)hw)->Channel[submodule_index].CHCTRLA.reg = data;
     d98:	4c27      	ldr	r4, [pc, #156]	; (e38 <_dma_init+0xf8>)
     d9a:	1d19      	adds	r1, r3, #4
     d9c:	0109      	lsls	r1, r1, #4
     d9e:	1860      	adds	r0, r4, r1
     da0:	5065      	str	r5, [r4, r1]
		hri_dmac_write_CHPRILVL_reg(DMAC, i, _cfgs[i].prilvl);
     da2:	eb02 02c3 	add.w	r2, r2, r3, lsl #3
     da6:	7911      	ldrb	r1, [r2, #4]

static inline void hri_dmac_write_CHPRILVL_reg(const void *const hw, uint8_t submodule_index,
                                               hri_dmac_chprilvl_reg_t data)
{
	DMAC_CRITICAL_SECTION_ENTER();
	((Dmac *)hw)->Channel[submodule_index].CHPRILVL.reg = data;
     da8:	7141      	strb	r1, [r0, #5]
		hri_dmac_write_CHEVCTRL_reg(DMAC, i, _cfgs[i].evctrl);
     daa:	7951      	ldrb	r1, [r2, #5]

static inline void hri_dmac_write_CHEVCTRL_reg(const void *const hw, uint8_t submodule_index,
                                               hri_dmac_chevctrl_reg_t data)
{
	DMAC_CRITICAL_SECTION_ENTER();
	((Dmac *)hw)->Channel[submodule_index].CHEVCTRL.reg = data;
     dac:	7181      	strb	r1, [r0, #6]
		hri_dmacdescriptor_write_BTCTRL_reg(&_descriptor_section[i], _cfgs[i].btctrl);
     dae:	88d4      	ldrh	r4, [r2, #6]
	((DmacDescriptor *)hw)->BTCTRL.reg = data;
     db0:	4922      	ldr	r1, [pc, #136]	; (e3c <_dma_init+0xfc>)
     db2:	011a      	lsls	r2, r3, #4
     db4:	1888      	adds	r0, r1, r2
     db6:	528c      	strh	r4, [r1, r2]
	((DmacDescriptor *)hw)->DESCADDR.reg = data;
     db8:	2200      	movs	r2, #0
     dba:	60c2      	str	r2, [r0, #12]
	for (i = 0; i < DMAC_CH_NUM; i++) {
     dbc:	3301      	adds	r3, #1
     dbe:	b2db      	uxtb	r3, r3
     dc0:	2b1f      	cmp	r3, #31
     dc2:	d9e6      	bls.n	d92 <_dma_init+0x52>
     dc4:	2300      	movs	r3, #0
     dc6:	e00a      	b.n	dde <_dma_init+0x9e>
		NVIC_DisableIRQ(DMAC_0_IRQn + i);
     dc8:	f103 011f 	add.w	r1, r3, #31
     dcc:	b20a      	sxth	r2, r1
  \param [in]      IRQn  Device specific interrupt number.
  \note    IRQn must not be negative.
 */
__STATIC_INLINE void __NVIC_DisableIRQ(IRQn_Type IRQn)
{
  if ((int32_t)(IRQn) >= 0)
     dce:	2a00      	cmp	r2, #0
     dd0:	da10      	bge.n	df4 <_dma_init+0xb4>
  \param [in]      IRQn  Device specific interrupt number.
  \note    IRQn must not be negative.
 */
__STATIC_INLINE void __NVIC_ClearPendingIRQ(IRQn_Type IRQn)
{
  if ((int32_t)(IRQn) >= 0)
     dd2:	2a00      	cmp	r2, #0
     dd4:	da1c      	bge.n	e10 <_dma_init+0xd0>
  if ((int32_t)(IRQn) >= 0)
     dd6:	2a00      	cmp	r2, #0
     dd8:	da24      	bge.n	e24 <_dma_init+0xe4>
	for (i = 0; i < 5; i++) {
     dda:	3301      	adds	r3, #1
     ddc:	b2db      	uxtb	r3, r3
     dde:	2b04      	cmp	r3, #4
     de0:	d9f2      	bls.n	dc8 <_dma_init+0x88>
	((Dmac *)hw)->CTRL.reg |= DMAC_CTRL_DMAENABLE;
     de2:	4a15      	ldr	r2, [pc, #84]	; (e38 <_dma_init+0xf8>)
     de4:	8813      	ldrh	r3, [r2, #0]
     de6:	b29b      	uxth	r3, r3
     de8:	f043 0302 	orr.w	r3, r3, #2
     dec:	8013      	strh	r3, [r2, #0]
}
     dee:	2000      	movs	r0, #0
     df0:	bc30      	pop	{r4, r5}
     df2:	4770      	bx	lr
    NVIC->ICER[(((uint32_t)IRQn) >> 5UL)] = (uint32_t)(1UL << (((uint32_t)IRQn) & 0x1FUL));
     df4:	0950      	lsrs	r0, r2, #5
     df6:	f001 051f 	and.w	r5, r1, #31
     dfa:	2401      	movs	r4, #1
     dfc:	40ac      	lsls	r4, r5
     dfe:	3020      	adds	r0, #32
     e00:	4d11      	ldr	r5, [pc, #68]	; (e48 <_dma_init+0x108>)
     e02:	f845 4020 	str.w	r4, [r5, r0, lsl #2]
  __ASM volatile ("dsb 0xF":::"memory");
     e06:	f3bf 8f4f 	dsb	sy
  __ASM volatile ("isb 0xF":::"memory");
     e0a:	f3bf 8f6f 	isb	sy
     e0e:	e7e0      	b.n	dd2 <_dma_init+0x92>
  {
    NVIC->ICPR[(((uint32_t)IRQn) >> 5UL)] = (uint32_t)(1UL << (((uint32_t)IRQn) & 0x1FUL));
     e10:	0950      	lsrs	r0, r2, #5
     e12:	f001 051f 	and.w	r5, r1, #31
     e16:	2401      	movs	r4, #1
     e18:	40ac      	lsls	r4, r5
     e1a:	3060      	adds	r0, #96	; 0x60
     e1c:	4d0a      	ldr	r5, [pc, #40]	; (e48 <_dma_init+0x108>)
     e1e:	f845 4020 	str.w	r4, [r5, r0, lsl #2]
     e22:	e7d8      	b.n	dd6 <_dma_init+0x96>
    NVIC->ISER[(((uint32_t)IRQn) >> 5UL)] = (uint32_t)(1UL << (((uint32_t)IRQn) & 0x1FUL));
     e24:	0952      	lsrs	r2, r2, #5
     e26:	f001 011f 	and.w	r1, r1, #31
     e2a:	2001      	movs	r0, #1
     e2c:	fa00 f101 	lsl.w	r1, r0, r1
     e30:	4805      	ldr	r0, [pc, #20]	; (e48 <_dma_init+0x108>)
     e32:	f840 1022 	str.w	r1, [r0, r2, lsl #2]
     e36:	e7d0      	b.n	dda <_dma_init+0x9a>
     e38:	4100a000 	.word	0x4100a000
     e3c:	20000570 	.word	0x20000570
     e40:	20000770 	.word	0x20000770
     e44:	00004cbc 	.word	0x00004cbc
     e48:	e000e100 	.word	0xe000e100

00000e4c <_dma_set_irq_state>:
	if (DMA_TRANSFER_COMPLETE_CB == type) {
     e4c:	b991      	cbnz	r1, e74 <_dma_set_irq_state+0x28>
	if (value == 0x0) {
     e4e:	b942      	cbnz	r2, e62 <_dma_set_irq_state+0x16>
		((Dmac *)hw)->Channel[submodule_index].CHINTENCLR.reg = DMAC_CHINTENSET_TCMPL;
     e50:	0100      	lsls	r0, r0, #4
     e52:	f100 4082 	add.w	r0, r0, #1090519040	; 0x41000000
     e56:	f500 4020 	add.w	r0, r0, #40960	; 0xa000
     e5a:	2302      	movs	r3, #2
     e5c:	f880 304c 	strb.w	r3, [r0, #76]	; 0x4c
     e60:	4770      	bx	lr
		((Dmac *)hw)->Channel[submodule_index].CHINTENSET.reg = DMAC_CHINTENSET_TCMPL;
     e62:	0100      	lsls	r0, r0, #4
     e64:	f100 4082 	add.w	r0, r0, #1090519040	; 0x41000000
     e68:	f500 4020 	add.w	r0, r0, #40960	; 0xa000
     e6c:	2302      	movs	r3, #2
     e6e:	f880 304d 	strb.w	r3, [r0, #77]	; 0x4d
     e72:	4770      	bx	lr
	} else if (DMA_TRANSFER_ERROR_CB == type) {
     e74:	2901      	cmp	r1, #1
     e76:	d002      	beq.n	e7e <_dma_set_irq_state+0x32>
	} else if (DMA_TRANSFER_SUSPEND_CB == type) {
     e78:	2902      	cmp	r1, #2
     e7a:	d012      	beq.n	ea2 <_dma_set_irq_state+0x56>
     e7c:	4770      	bx	lr
	if (value == 0x0) {
     e7e:	b93a      	cbnz	r2, e90 <_dma_set_irq_state+0x44>
		((Dmac *)hw)->Channel[submodule_index].CHINTENCLR.reg = DMAC_CHINTENSET_TERR;
     e80:	0100      	lsls	r0, r0, #4
     e82:	f100 4082 	add.w	r0, r0, #1090519040	; 0x41000000
     e86:	f500 4020 	add.w	r0, r0, #40960	; 0xa000
     e8a:	f880 104c 	strb.w	r1, [r0, #76]	; 0x4c
     e8e:	4770      	bx	lr
		((Dmac *)hw)->Channel[submodule_index].CHINTENSET.reg = DMAC_CHINTENSET_TERR;
     e90:	0100      	lsls	r0, r0, #4
     e92:	f100 4082 	add.w	r0, r0, #1090519040	; 0x41000000
     e96:	f500 4020 	add.w	r0, r0, #40960	; 0xa000
     e9a:	2301      	movs	r3, #1
     e9c:	f880 304d 	strb.w	r3, [r0, #77]	; 0x4d
     ea0:	4770      	bx	lr
	if (value == 0x0) {
     ea2:	b142      	cbz	r2, eb6 <_dma_set_irq_state+0x6a>
		((Dmac *)hw)->Channel[submodule_index].CHINTENSET.reg = DMAC_CHINTENSET_SUSP;
     ea4:	0100      	lsls	r0, r0, #4
     ea6:	f100 4082 	add.w	r0, r0, #1090519040	; 0x41000000
     eaa:	f500 4020 	add.w	r0, r0, #40960	; 0xa000
     eae:	2304      	movs	r3, #4
     eb0:	f880 304d 	strb.w	r3, [r0, #77]	; 0x4d
}
     eb4:	e7e2      	b.n	e7c <_dma_set_irq_state+0x30>
		((Dmac *)hw)->Channel[submodule_index].CHINTENCLR.reg = DMAC_CHINTENSET_SUSP;
     eb6:	0100      	lsls	r0, r0, #4
     eb8:	f100 4082 	add.w	r0, r0, #1090519040	; 0x41000000
     ebc:	f500 4020 	add.w	r0, r0, #40960	; 0xa000
     ec0:	2304      	movs	r3, #4
     ec2:	f880 304c 	strb.w	r3, [r0, #76]	; 0x4c
     ec6:	4770      	bx	lr

00000ec8 <_dma_set_destination_address>:
	((DmacDescriptor *)hw)->DSTADDR.reg = data;
     ec8:	4b02      	ldr	r3, [pc, #8]	; (ed4 <_dma_set_destination_address+0xc>)
     eca:	eb03 1000 	add.w	r0, r3, r0, lsl #4
     ece:	6081      	str	r1, [r0, #8]
}
     ed0:	2000      	movs	r0, #0
     ed2:	4770      	bx	lr
     ed4:	20000570 	.word	0x20000570

00000ed8 <_dma_set_source_address>:
	((DmacDescriptor *)hw)->SRCADDR.reg = data;
     ed8:	4b02      	ldr	r3, [pc, #8]	; (ee4 <_dma_set_source_address+0xc>)
     eda:	eb03 1000 	add.w	r0, r3, r0, lsl #4
     ede:	6041      	str	r1, [r0, #4]
}
     ee0:	2000      	movs	r0, #0
     ee2:	4770      	bx	lr
     ee4:	20000570 	.word	0x20000570

00000ee8 <_dma_srcinc_enable>:
	tmp = ((DmacDescriptor *)hw)->BTCTRL.reg;
     ee8:	4a05      	ldr	r2, [pc, #20]	; (f00 <_dma_srcinc_enable+0x18>)
     eea:	0100      	lsls	r0, r0, #4
     eec:	5a13      	ldrh	r3, [r2, r0]
     eee:	b29b      	uxth	r3, r3
	tmp &= ~DMAC_BTCTRL_SRCINC;
     ef0:	f423 6380 	bic.w	r3, r3, #1024	; 0x400
	tmp |= value << DMAC_BTCTRL_SRCINC_Pos;
     ef4:	ea43 2181 	orr.w	r1, r3, r1, lsl #10
     ef8:	b289      	uxth	r1, r1
	((DmacDescriptor *)hw)->BTCTRL.reg = tmp;
     efa:	5211      	strh	r1, [r2, r0]
}
     efc:	2000      	movs	r0, #0
     efe:	4770      	bx	lr
     f00:	20000570 	.word	0x20000570

00000f04 <_dma_set_data_amount>:
{
     f04:	b430      	push	{r4, r5}
	return ((DmacDescriptor *)hw)->DSTADDR.reg;
     f06:	4c14      	ldr	r4, [pc, #80]	; (f58 <_dma_set_data_amount+0x54>)
     f08:	0102      	lsls	r2, r0, #4
     f0a:	18a3      	adds	r3, r4, r2
     f0c:	689d      	ldr	r5, [r3, #8]
	tmp = ((DmacDescriptor *)hw)->BTCTRL.reg;
     f0e:	5aa3      	ldrh	r3, [r4, r2]
	uint8_t  beat_size = hri_dmacdescriptor_read_BTCTRL_BEATSIZE_bf(&_descriptor_section[channel]);
     f10:	f3c3 2301 	ubfx	r3, r3, #8, #2
	tmp = ((DmacDescriptor *)hw)->BTCTRL.reg;
     f14:	5aa2      	ldrh	r2, [r4, r2]
	if (hri_dmacdescriptor_get_BTCTRL_DSTINC_bit(&_descriptor_section[channel])) {
     f16:	f412 6f00 	tst.w	r2, #2048	; 0x800
     f1a:	d006      	beq.n	f2a <_dma_set_data_amount+0x26>
		hri_dmacdescriptor_write_DSTADDR_reg(&_descriptor_section[channel], address + amount * (1 << beat_size));
     f1c:	fa01 f403 	lsl.w	r4, r1, r3
     f20:	442c      	add	r4, r5
	((DmacDescriptor *)hw)->DSTADDR.reg = data;
     f22:	4a0d      	ldr	r2, [pc, #52]	; (f58 <_dma_set_data_amount+0x54>)
     f24:	eb02 1200 	add.w	r2, r2, r0, lsl #4
     f28:	6094      	str	r4, [r2, #8]
	return ((DmacDescriptor *)hw)->SRCADDR.reg;
     f2a:	4c0b      	ldr	r4, [pc, #44]	; (f58 <_dma_set_data_amount+0x54>)
     f2c:	0102      	lsls	r2, r0, #4
     f2e:	18a5      	adds	r5, r4, r2
     f30:	686d      	ldr	r5, [r5, #4]
	tmp = ((DmacDescriptor *)hw)->BTCTRL.reg;
     f32:	5aa2      	ldrh	r2, [r4, r2]
	if (hri_dmacdescriptor_get_BTCTRL_SRCINC_bit(&_descriptor_section[channel])) {
     f34:	f412 6f80 	tst.w	r2, #1024	; 0x400
     f38:	d005      	beq.n	f46 <_dma_set_data_amount+0x42>
		hri_dmacdescriptor_write_SRCADDR_reg(&_descriptor_section[channel], address + amount * (1 << beat_size));
     f3a:	fa01 f303 	lsl.w	r3, r1, r3
     f3e:	442b      	add	r3, r5
	((DmacDescriptor *)hw)->SRCADDR.reg = data;
     f40:	eb04 1200 	add.w	r2, r4, r0, lsl #4
     f44:	6053      	str	r3, [r2, #4]
	hri_dmacdescriptor_write_BTCNT_reg(&_descriptor_section[channel], amount);
     f46:	b289      	uxth	r1, r1
	((DmacDescriptor *)hw)->BTCNT.reg = data;
     f48:	4b03      	ldr	r3, [pc, #12]	; (f58 <_dma_set_data_amount+0x54>)
     f4a:	eb03 1000 	add.w	r0, r3, r0, lsl #4
     f4e:	8041      	strh	r1, [r0, #2]
}
     f50:	2000      	movs	r0, #0
     f52:	bc30      	pop	{r4, r5}
     f54:	4770      	bx	lr
     f56:	bf00      	nop
     f58:	20000570 	.word	0x20000570

00000f5c <_dma_enable_transaction>:
{
     f5c:	b410      	push	{r4}
	((DmacDescriptor *)hw)->BTCTRL.reg |= DMAC_BTCTRL_VALID;
     f5e:	4c0c      	ldr	r4, [pc, #48]	; (f90 <_dma_enable_transaction+0x34>)
     f60:	0102      	lsls	r2, r0, #4
     f62:	5aa3      	ldrh	r3, [r4, r2]
     f64:	b29b      	uxth	r3, r3
     f66:	f043 0301 	orr.w	r3, r3, #1
     f6a:	52a3      	strh	r3, [r4, r2]
	((Dmac *)hw)->Channel[submodule_index].CHCTRLA.reg |= DMAC_CHCTRLA_ENABLE;
     f6c:	4c09      	ldr	r4, [pc, #36]	; (f94 <_dma_enable_transaction+0x38>)
     f6e:	1d03      	adds	r3, r0, #4
     f70:	011b      	lsls	r3, r3, #4
     f72:	58e2      	ldr	r2, [r4, r3]
     f74:	f042 0202 	orr.w	r2, r2, #2
     f78:	50e2      	str	r2, [r4, r3]
	if (software_trigger) {
     f7a:	b129      	cbz	r1, f88 <_dma_enable_transaction+0x2c>
		hri_dmac_set_SWTRIGCTRL_reg(DMAC, 1 << channel);
     f7c:	2301      	movs	r3, #1
     f7e:	fa03 f000 	lsl.w	r0, r3, r0
	((Dmac *)hw)->SWTRIGCTRL.reg |= mask;
     f82:	6922      	ldr	r2, [r4, #16]
     f84:	4310      	orrs	r0, r2
     f86:	6120      	str	r0, [r4, #16]
}
     f88:	2000      	movs	r0, #0
     f8a:	f85d 4b04 	ldr.w	r4, [sp], #4
     f8e:	4770      	bx	lr
     f90:	20000570 	.word	0x20000570
     f94:	4100a000 	.word	0x4100a000

00000f98 <_dma_get_channel_resource>:
	*resource = &_resources[channel];
     f98:	4b02      	ldr	r3, [pc, #8]	; (fa4 <_dma_get_channel_resource+0xc>)
     f9a:	eb03 1101 	add.w	r1, r3, r1, lsl #4
     f9e:	6001      	str	r1, [r0, #0]
}
     fa0:	2000      	movs	r0, #0
     fa2:	4770      	bx	lr
     fa4:	20000180 	.word	0x20000180

00000fa8 <DMAC_0_Handler>:
/**
 * \brief DMAC interrupt handler
 */
void DMAC_0_Handler(void)
{
     fa8:	b508      	push	{r3, lr}
	_dmac_handler();
     faa:	4b01      	ldr	r3, [pc, #4]	; (fb0 <DMAC_0_Handler+0x8>)
     fac:	4798      	blx	r3
     fae:	bd08      	pop	{r3, pc}
     fb0:	00000cc1 	.word	0x00000cc1

00000fb4 <DMAC_1_Handler>:
}
/**
 * \brief DMAC interrupt handler
 */
void DMAC_1_Handler(void)
{
     fb4:	b508      	push	{r3, lr}
	_dmac_handler();
     fb6:	4b01      	ldr	r3, [pc, #4]	; (fbc <DMAC_1_Handler+0x8>)
     fb8:	4798      	blx	r3
     fba:	bd08      	pop	{r3, pc}
     fbc:	00000cc1 	.word	0x00000cc1

00000fc0 <DMAC_2_Handler>:
}
/**
 * \brief DMAC interrupt handler
 */
void DMAC_2_Handler(void)
{
     fc0:	b508      	push	{r3, lr}
	_dmac_handler();
     fc2:	4b01      	ldr	r3, [pc, #4]	; (fc8 <DMAC_2_Handler+0x8>)
     fc4:	4798      	blx	r3
     fc6:	bd08      	pop	{r3, pc}
     fc8:	00000cc1 	.word	0x00000cc1

00000fcc <DMAC_3_Handler>:
}
/**
 * \brief DMAC interrupt handler
 */
void DMAC_3_Handler(void)
{
     fcc:	b508      	push	{r3, lr}
	_dmac_handler();
     fce:	4b01      	ldr	r3, [pc, #4]	; (fd4 <DMAC_3_Handler+0x8>)
     fd0:	4798      	blx	r3
     fd2:	bd08      	pop	{r3, pc}
     fd4:	00000cc1 	.word	0x00000cc1

00000fd8 <DMAC_4_Handler>:
}
/**
 * \brief DMAC interrupt handler
 */
void DMAC_4_Handler(void)
{
     fd8:	b508      	push	{r3, lr}
	_dmac_handler();
     fda:	4b01      	ldr	r3, [pc, #4]	; (fe0 <DMAC_4_Handler+0x8>)
     fdc:	4798      	blx	r3
     fde:	bd08      	pop	{r3, pc}
     fe0:	00000cc1 	.word	0x00000cc1

00000fe4 <_dma_set_descriptor>:
}

void _dma_set_descriptor(uint8_t channel, DmacDescriptor descriptor){
     fe4:	b084      	sub	sp, #16
     fe6:	b470      	push	{r4, r5, r6}
     fe8:	b085      	sub	sp, #20
     fea:	4606      	mov	r6, r0
     fec:	a809      	add	r0, sp, #36	; 0x24
     fee:	e880 000e 	stmia.w	r0, {r1, r2, r3}
     ff2:	c80f      	ldmia	r0, {r0, r1, r2, r3}
     ff4:	e88d 000f 	stmia.w	sp, {r0, r1, r2, r3}
	_descriptor_section[channel] = descriptor;
     ff8:	4d04      	ldr	r5, [pc, #16]	; (100c <_dma_set_descriptor+0x28>)
     ffa:	eb05 1506 	add.w	r5, r5, r6, lsl #4
     ffe:	e885 000f 	stmia.w	r5, {r0, r1, r2, r3}
}
    1002:	b005      	add	sp, #20
    1004:	bc70      	pop	{r4, r5, r6}
    1006:	b004      	add	sp, #16
    1008:	4770      	bx	lr
    100a:	bf00      	nop
    100c:	20000570 	.word	0x20000570

00001010 <_gclk_init_generators_by_fref>:

void _gclk_init_generators_by_fref(uint32_t bm)
{

#if CONF_GCLK_GENERATOR_0_CONFIG == 1
	if (bm & (1ul << 0)) {
    1010:	f010 0f01 	tst.w	r0, #1
    1014:	d008      	beq.n	1028 <_gclk_init_generators_by_fref+0x18>
	((Gclk *)hw)->GENCTRL[index].reg = data;
    1016:	4a05      	ldr	r2, [pc, #20]	; (102c <_gclk_init_generators_by_fref+0x1c>)
    1018:	4b05      	ldr	r3, [pc, #20]	; (1030 <_gclk_init_generators_by_fref+0x20>)
    101a:	621a      	str	r2, [r3, #32]
	while (((Gclk *)hw)->SYNCBUSY.reg & reg) {
    101c:	4b04      	ldr	r3, [pc, #16]	; (1030 <_gclk_init_generators_by_fref+0x20>)
    101e:	685a      	ldr	r2, [r3, #4]
    1020:	f643 73fd 	movw	r3, #16381	; 0x3ffd
    1024:	421a      	tst	r2, r3
    1026:	d1f9      	bne.n	101c <_gclk_init_generators_by_fref+0xc>
    1028:	4770      	bx	lr
    102a:	bf00      	nop
    102c:	00010108 	.word	0x00010108
    1030:	40001c00 	.word	0x40001c00

00001034 <_mclk_init>:
	((Mclk *)hw)->CPUDIV.reg = data;
    1034:	2201      	movs	r2, #1
    1036:	4b01      	ldr	r3, [pc, #4]	; (103c <_mclk_init+0x8>)
    1038:	715a      	strb	r2, [r3, #5]
    103a:	4770      	bx	lr
    103c:	40000800 	.word	0x40000800

00001040 <_osc32kctrl_init_sources>:
}

static inline hri_osc32kctrl_osculp32k_reg_t hri_osc32kctrl_read_OSCULP32K_CALIB_bf(const void *const hw)
{
	uint32_t tmp;
	tmp = ((Osc32kctrl *)hw)->OSCULP32K.reg;
    1040:	4b03      	ldr	r3, [pc, #12]	; (1050 <_osc32kctrl_init_sources+0x10>)
    1042:	69da      	ldr	r2, [r3, #28]
	calib = hri_osc32kctrl_read_OSCULP32K_CALIB_bf(hw);
	hri_osc32kctrl_write_OSCULP32K_reg(hw,
#if CONF_OSCULP32K_CALIB_ENABLE == 1
	                                   OSC32KCTRL_OSCULP32K_CALIB(CONF_OSCULP32K_CALIB)
#else
	                                   OSC32KCTRL_OSCULP32K_CALIB(calib)
    1044:	f402 527c 	and.w	r2, r2, #16128	; 0x3f00
}

static inline void hri_osc32kctrl_write_OSCULP32K_reg(const void *const hw, hri_osc32kctrl_osculp32k_reg_t data)
{
	OSC32KCTRL_CRITICAL_SECTION_ENTER();
	((Osc32kctrl *)hw)->OSCULP32K.reg = data;
    1048:	61da      	str	r2, [r3, #28]
	((Osc32kctrl *)hw)->RTCCTRL.reg = data;
    104a:	2201      	movs	r2, #1
    104c:	741a      	strb	r2, [r3, #16]
    104e:	4770      	bx	lr
    1050:	40001400 	.word	0x40001400

00001054 <_oscctrl_init_sources>:
}

static inline void hri_oscctrl_write_XOSCCTRL_reg(const void *const hw, uint8_t index, hri_oscctrl_xoscctrl_reg_t data)
{
	OSCCTRL_CRITICAL_SECTION_ENTER();
	((Oscctrl *)hw)->XOSCCTRL[index].reg = data;
    1054:	4a04      	ldr	r2, [pc, #16]	; (1068 <_oscctrl_init_sources+0x14>)
    1056:	4b05      	ldr	r3, [pc, #20]	; (106c <_oscctrl_init_sources+0x18>)
    1058:	619a      	str	r2, [r3, #24]
	return (((Oscctrl *)hw)->STATUS.reg & OSCCTRL_STATUS_XOSCRDY1) >> OSCCTRL_STATUS_XOSCRDY1_Pos;
    105a:	4b04      	ldr	r3, [pc, #16]	; (106c <_oscctrl_init_sources+0x18>)
    105c:	691b      	ldr	r3, [r3, #16]
	        | (CONF_XOSC1_XTALEN << OSCCTRL_XOSCCTRL_XTALEN_Pos) | (CONF_XOSC1_ENABLE << OSCCTRL_XOSCCTRL_ENABLE_Pos));
#endif

#if CONF_XOSC1_CONFIG == 1
#if CONF_XOSC1_ENABLE == 1
	while (!hri_oscctrl_get_STATUS_XOSCRDY1_bit(hw))
    105e:	f013 0f02 	tst.w	r3, #2
    1062:	d0fa      	beq.n	105a <_oscctrl_init_sources+0x6>
	hri_oscctrl_set_XOSCCTRL_ONDEMAND_bit(hw, 1);
#endif
#endif

	(void)hw;
}
    1064:	4770      	bx	lr
    1066:	bf00      	nop
    1068:	03002606 	.word	0x03002606
    106c:	40001000 	.word	0x40001000

00001070 <_oscctrl_init_referenced_generators>:
	((Oscctrl *)hw)->Dpll[submodule_index].DPLLRATIO.reg = data;
    1070:	2231      	movs	r2, #49	; 0x31
    1072:	4b0e      	ldr	r3, [pc, #56]	; (10ac <_oscctrl_init_referenced_generators+0x3c>)
    1074:	649a      	str	r2, [r3, #72]	; 0x48
	while (((Oscctrl *)hw)->Dpll[submodule_index].DPLLSYNCBUSY.reg & reg) {
    1076:	4b0d      	ldr	r3, [pc, #52]	; (10ac <_oscctrl_init_referenced_generators+0x3c>)
    1078:	6d1b      	ldr	r3, [r3, #80]	; 0x50
    107a:	f013 0f06 	tst.w	r3, #6
    107e:	d1fa      	bne.n	1076 <_oscctrl_init_referenced_generators+0x6>
	((Oscctrl *)hw)->Dpll[submodule_index].DPLLCTRLB.reg = data;
    1080:	4b0a      	ldr	r3, [pc, #40]	; (10ac <_oscctrl_init_referenced_generators+0x3c>)
    1082:	4a0b      	ldr	r2, [pc, #44]	; (10b0 <_oscctrl_init_referenced_generators+0x40>)
    1084:	64da      	str	r2, [r3, #76]	; 0x4c
	((Oscctrl *)hw)->Dpll[submodule_index].DPLLCTRLA.reg = data;
    1086:	2202      	movs	r2, #2
    1088:	f883 2044 	strb.w	r2, [r3, #68]	; 0x44
	while (((Oscctrl *)hw)->Dpll[submodule_index].DPLLSYNCBUSY.reg & reg) {
    108c:	4b07      	ldr	r3, [pc, #28]	; (10ac <_oscctrl_init_referenced_generators+0x3c>)
    108e:	6d1b      	ldr	r3, [r3, #80]	; 0x50
    1090:	f013 0f02 	tst.w	r3, #2
    1094:	d1fa      	bne.n	108c <_oscctrl_init_referenced_generators+0x1c>
	return (((Oscctrl *)hw)->Dpll[submodule_index].DPLLSTATUS.reg & OSCCTRL_DPLLSTATUS_LOCK)
    1096:	4b05      	ldr	r3, [pc, #20]	; (10ac <_oscctrl_init_referenced_generators+0x3c>)
    1098:	6d5b      	ldr	r3, [r3, #84]	; 0x54
#endif
#endif

#if CONF_FDPLL1_CONFIG == 1
#if CONF_FDPLL1_ENABLE == 1
	while (!(hri_oscctrl_get_DPLLSTATUS_LOCK_bit(hw, 1) || hri_oscctrl_get_DPLLSTATUS_CLKRDY_bit(hw, 1)))
    109a:	f013 0f01 	tst.w	r3, #1
    109e:	d104      	bne.n	10aa <_oscctrl_init_referenced_generators+0x3a>
	return (((Oscctrl *)hw)->Dpll[submodule_index].DPLLSTATUS.reg & OSCCTRL_DPLLSTATUS_CLKRDY)
    10a0:	4b02      	ldr	r3, [pc, #8]	; (10ac <_oscctrl_init_referenced_generators+0x3c>)
    10a2:	6d5b      	ldr	r3, [r3, #84]	; 0x54
    10a4:	f013 0f02 	tst.w	r3, #2
    10a8:	d0f5      	beq.n	1096 <_oscctrl_init_referenced_generators+0x26>
    10aa:	4770      	bx	lr
    10ac:	40001000 	.word	0x40001000
    10b0:	00020060 	.word	0x00020060

000010b4 <RAMECC_Handler>:

/**
 * \internal RAMECC interrupt handler
 */
void RAMECC_Handler(void)
{
    10b4:	b500      	push	{lr}
    10b6:	b083      	sub	sp, #12
	return tmp;
}

static inline hri_ramecc_intflag_reg_t hri_ramecc_read_INTFLAG_reg(const void *const hw)
{
	return ((Ramecc *)hw)->INTFLAG.reg;
    10b8:	4b0d      	ldr	r3, [pc, #52]	; (10f0 <RAMECC_Handler+0x3c>)
    10ba:	789b      	ldrb	r3, [r3, #2]
    10bc:	b2db      	uxtb	r3, r3
	struct _ramecc_device *dev      = (struct _ramecc_device *)&device;
	volatile uint32_t      int_mask = hri_ramecc_read_INTFLAG_reg(RAMECC);
    10be:	9301      	str	r3, [sp, #4]

	if (int_mask & RAMECC_INTFLAG_DUALE && dev->ramecc_cb.dual_bit_err) {
    10c0:	9b01      	ldr	r3, [sp, #4]
    10c2:	f013 0f02 	tst.w	r3, #2
    10c6:	d006      	beq.n	10d6 <RAMECC_Handler+0x22>
    10c8:	4b0a      	ldr	r3, [pc, #40]	; (10f4 <RAMECC_Handler+0x40>)
    10ca:	681b      	ldr	r3, [r3, #0]
    10cc:	b11b      	cbz	r3, 10d6 <RAMECC_Handler+0x22>
	return tmp;
}

static inline hri_ramecc_erraddr_reg_t hri_ramecc_read_ERRADDR_reg(const void *const hw)
{
	return ((Ramecc *)hw)->ERRADDR.reg;
    10ce:	4a08      	ldr	r2, [pc, #32]	; (10f0 <RAMECC_Handler+0x3c>)
    10d0:	6850      	ldr	r0, [r2, #4]
		dev->ramecc_cb.dual_bit_err((uint32_t)hri_ramecc_read_ERRADDR_reg(RAMECC));
    10d2:	4798      	blx	r3
    10d4:	e009      	b.n	10ea <RAMECC_Handler+0x36>
	} else if (int_mask & RAMECC_INTFLAG_SINGLEE && dev->ramecc_cb.single_bit_err) {
    10d6:	9b01      	ldr	r3, [sp, #4]
    10d8:	f013 0f01 	tst.w	r3, #1
    10dc:	d005      	beq.n	10ea <RAMECC_Handler+0x36>
    10de:	4b05      	ldr	r3, [pc, #20]	; (10f4 <RAMECC_Handler+0x40>)
    10e0:	685b      	ldr	r3, [r3, #4]
    10e2:	b113      	cbz	r3, 10ea <RAMECC_Handler+0x36>
    10e4:	4a02      	ldr	r2, [pc, #8]	; (10f0 <RAMECC_Handler+0x3c>)
    10e6:	6850      	ldr	r0, [r2, #4]
		dev->ramecc_cb.single_bit_err((uint32_t)hri_ramecc_read_ERRADDR_reg(RAMECC));
    10e8:	4798      	blx	r3
	} else {
		return;
	}
}
    10ea:	b003      	add	sp, #12
    10ec:	f85d fb04 	ldr.w	pc, [sp], #4
    10f0:	41020000 	.word	0x41020000
    10f4:	20000970 	.word	0x20000970

000010f8 <_sercom_get_hardware_index>:

/**
 * \brief Retrieve ordinal number of the given sercom hardware instance
 */
static uint8_t _sercom_get_hardware_index(const void *const hw)
{
    10f8:	b470      	push	{r4, r5, r6}
    10fa:	b089      	sub	sp, #36	; 0x24
    10fc:	4606      	mov	r6, r0
	Sercom *const sercom_modules[] = SERCOM_INSTS;
    10fe:	466c      	mov	r4, sp
    1100:	4d0c      	ldr	r5, [pc, #48]	; (1134 <_sercom_get_hardware_index+0x3c>)
    1102:	cd0f      	ldmia	r5!, {r0, r1, r2, r3}
    1104:	c40f      	stmia	r4!, {r0, r1, r2, r3}
    1106:	e895 000f 	ldmia.w	r5, {r0, r1, r2, r3}
    110a:	e884 000f 	stmia.w	r4, {r0, r1, r2, r3}
	/* Find index for SERCOM instance. */
	for (uint32_t i = 0; i < SERCOM_INST_NUM; i++) {
    110e:	2000      	movs	r0, #0
    1110:	2807      	cmp	r0, #7
    1112:	d80a      	bhi.n	112a <_sercom_get_hardware_index+0x32>
		if ((uint32_t)hw == (uint32_t)sercom_modules[i]) {
    1114:	ab08      	add	r3, sp, #32
    1116:	eb03 0380 	add.w	r3, r3, r0, lsl #2
    111a:	f853 3c20 	ldr.w	r3, [r3, #-32]
    111e:	42b3      	cmp	r3, r6
    1120:	d001      	beq.n	1126 <_sercom_get_hardware_index+0x2e>
	for (uint32_t i = 0; i < SERCOM_INST_NUM; i++) {
    1122:	3001      	adds	r0, #1
    1124:	e7f4      	b.n	1110 <_sercom_get_hardware_index+0x18>
			return i;
    1126:	b2c0      	uxtb	r0, r0
    1128:	e000      	b.n	112c <_sercom_get_hardware_index+0x34>
		}
	}
	return 0;
    112a:	2000      	movs	r0, #0
}
    112c:	b009      	add	sp, #36	; 0x24
    112e:	bc70      	pop	{r4, r5, r6}
    1130:	4770      	bx	lr
    1132:	bf00      	nop
    1134:	00004dbc 	.word	0x00004dbc

00001138 <_spi_sync_enable>:
	};
}

static inline bool hri_sercomspi_is_syncing(const void *const hw, hri_sercomspi_syncbusy_reg_t reg)
{
	return ((Sercom *)hw)->SPI.SYNCBUSY.reg & reg;
    1138:	69c3      	ldr	r3, [r0, #28]
 *
 * \return Enabling status
 */
static int32_t _spi_sync_enable(void *const hw)
{
	if (hri_sercomspi_is_syncing(hw, SERCOM_SPI_SYNCBUSY_SWRST)) {
    113a:	f013 0f01 	tst.w	r3, #1
    113e:	d109      	bne.n	1154 <_spi_sync_enable+0x1c>
}

static inline void hri_sercomspi_set_CTRLA_ENABLE_bit(const void *const hw)
{
	SERCOM_CRITICAL_SECTION_ENTER();
	((Sercom *)hw)->SPI.CTRLA.reg |= SERCOM_SPI_CTRLA_ENABLE;
    1140:	6803      	ldr	r3, [r0, #0]
    1142:	f043 0302 	orr.w	r3, r3, #2
    1146:	6003      	str	r3, [r0, #0]
	while (((Sercom *)hw)->SPI.SYNCBUSY.reg & reg) {
    1148:	69c3      	ldr	r3, [r0, #28]
    114a:	f013 0f03 	tst.w	r3, #3
    114e:	d1fb      	bne.n	1148 <_spi_sync_enable+0x10>
		return ERR_BUSY;
	}

	hri_sercomspi_set_CTRLA_ENABLE_bit(hw);

	return ERR_NONE;
    1150:	2000      	movs	r0, #0
    1152:	4770      	bx	lr
		return ERR_BUSY;
    1154:	f06f 0003 	mvn.w	r0, #3
}
    1158:	4770      	bx	lr

0000115a <_spi_sync_rx_enable>:
	return ((Sercom *)hw)->SPI.SYNCBUSY.reg & reg;
    115a:	69c3      	ldr	r3, [r0, #28]
 *
 * \return Enabling status
 */
static int32_t _spi_sync_rx_enable(void *const hw)
{
	if (hri_sercomspi_is_syncing(hw, SERCOM_SPI_SYNCBUSY_CTRLB)) {
    115c:	f013 0f04 	tst.w	r3, #4
    1160:	d109      	bne.n	1176 <_spi_sync_rx_enable+0x1c>
}

static inline void hri_sercomspi_set_CTRLB_RXEN_bit(const void *const hw)
{
	SERCOM_CRITICAL_SECTION_ENTER();
	((Sercom *)hw)->SPI.CTRLB.reg |= SERCOM_SPI_CTRLB_RXEN;
    1162:	6843      	ldr	r3, [r0, #4]
    1164:	f443 3300 	orr.w	r3, r3, #131072	; 0x20000
    1168:	6043      	str	r3, [r0, #4]
	while (((Sercom *)hw)->SPI.SYNCBUSY.reg & reg) {
    116a:	69c3      	ldr	r3, [r0, #28]
    116c:	f013 0f17 	tst.w	r3, #23
    1170:	d1fb      	bne.n	116a <_spi_sync_rx_enable+0x10>
		return ERR_BUSY;
	}

	hri_sercomspi_set_CTRLB_RXEN_bit(hw);

	return ERR_NONE;
    1172:	2000      	movs	r0, #0
    1174:	4770      	bx	lr
		return ERR_BUSY;
    1176:	f06f 0003 	mvn.w	r0, #3
}
    117a:	4770      	bx	lr

0000117c <_spi_sync_rx_disable>:
	return ((Sercom *)hw)->SPI.SYNCBUSY.reg & reg;
    117c:	69c3      	ldr	r3, [r0, #28]
 *
 * \return Disabling status
 */
static int32_t _spi_sync_rx_disable(void *const hw)
{
	if (hri_sercomspi_is_syncing(hw, SERCOM_SPI_SYNCBUSY_CTRLB)) {
    117e:	f013 0f04 	tst.w	r3, #4
    1182:	d109      	bne.n	1198 <_spi_sync_rx_disable+0x1c>
}

static inline void hri_sercomspi_clear_CTRLB_RXEN_bit(const void *const hw)
{
	SERCOM_CRITICAL_SECTION_ENTER();
	((Sercom *)hw)->SPI.CTRLB.reg &= ~SERCOM_SPI_CTRLB_RXEN;
    1184:	6843      	ldr	r3, [r0, #4]
    1186:	f423 3300 	bic.w	r3, r3, #131072	; 0x20000
    118a:	6043      	str	r3, [r0, #4]
	while (((Sercom *)hw)->SPI.SYNCBUSY.reg & reg) {
    118c:	69c3      	ldr	r3, [r0, #28]
    118e:	f013 0f17 	tst.w	r3, #23
    1192:	d1fb      	bne.n	118c <_spi_sync_rx_disable+0x10>
		return ERR_BUSY;
	}
	hri_sercomspi_clear_CTRLB_RXEN_bit(hw);

	return ERR_NONE;
    1194:	2000      	movs	r0, #0
    1196:	4770      	bx	lr
		return ERR_BUSY;
    1198:	f06f 0003 	mvn.w	r0, #3
}
    119c:	4770      	bx	lr

0000119e <_spi_m_get_source_for_dma>:
 *  \return The spi source address
 */
static uint32_t _spi_m_get_source_for_dma(void *const hw)
{
	return (uint32_t) & (((Sercom *)hw)->SPI.DATA);
}
    119e:	3028      	adds	r0, #40	; 0x28
    11a0:	4770      	bx	lr

000011a2 <_spi_m_get_destination_for_dma>:
 *  \return The spi destination address
 */
static uint32_t _spi_m_get_destination_for_dma(void *const hw)
{
	return (uint32_t) & (((Sercom *)hw)->SPI.DATA);
}
    11a2:	3028      	adds	r0, #40	; 0x28
    11a4:	4770      	bx	lr
	...

000011a8 <_spi_get_tx_dma_channel>:
 *  \param[in] hw_addr The hardware register base address
 *
 *  \return SPI TX DMA channel index.
 */
static uint8_t _spi_get_tx_dma_channel(const void *const hw)
{
    11a8:	b508      	push	{r3, lr}
	uint8_t index = _sercom_get_hardware_index(hw);
    11aa:	4b04      	ldr	r3, [pc, #16]	; (11bc <_spi_get_tx_dma_channel+0x14>)
    11ac:	4798      	blx	r3

	switch (index) {
    11ae:	2805      	cmp	r0, #5
    11b0:	d001      	beq.n	11b6 <_spi_get_tx_dma_channel+0xe>
	case 0:
		return CONF_SERCOM_0_SPI_M_DMA_TX_CHANNEL;
    11b2:	2000      	movs	r0, #0
    11b4:	bd08      	pop	{r3, pc}
	case 3:
		return CONF_SERCOM_3_SPI_M_DMA_TX_CHANNEL;
	case 4:
		return CONF_SERCOM_4_SPI_M_DMA_TX_CHANNEL;
	case 5:
		return CONF_SERCOM_5_SPI_M_DMA_TX_CHANNEL;
    11b6:	2001      	movs	r0, #1
	case 7:
		return CONF_SERCOM_7_SPI_M_DMA_TX_CHANNEL;
	default:
		return CONF_SERCOM_0_SPI_M_DMA_TX_CHANNEL;
	}
}
    11b8:	bd08      	pop	{r3, pc}
    11ba:	bf00      	nop
    11bc:	000010f9 	.word	0x000010f9

000011c0 <_spi_is_rx_dma_channel_enabled>:
 *  \param[in] hw_addr The hardware register base address
 *
 *  \return one if enabled.
 */
static uint8_t _spi_is_rx_dma_channel_enabled(const void *const hw)
{
    11c0:	b508      	push	{r3, lr}
	uint8_t index = _sercom_get_hardware_index(hw);
    11c2:	4b04      	ldr	r3, [pc, #16]	; (11d4 <_spi_is_rx_dma_channel_enabled+0x14>)
    11c4:	4798      	blx	r3

	switch (index) {
    11c6:	2805      	cmp	r0, #5
    11c8:	d001      	beq.n	11ce <_spi_is_rx_dma_channel_enabled+0xe>
	case 0:
		return CONF_SERCOM_0_SPI_RX_CHANNEL;
    11ca:	2000      	movs	r0, #0
    11cc:	bd08      	pop	{r3, pc}
	case 3:
		return CONF_SERCOM_3_SPI_RX_CHANNEL;
	case 4:
		return CONF_SERCOM_4_SPI_RX_CHANNEL;
	case 5:
		return CONF_SERCOM_5_SPI_RX_CHANNEL;
    11ce:	2001      	movs	r0, #1
	case 7:
		return CONF_SERCOM_7_SPI_RX_CHANNEL;
	default:
		return false;
	}
}
    11d0:	bd08      	pop	{r3, pc}
    11d2:	bf00      	nop
    11d4:	000010f9 	.word	0x000010f9

000011d8 <_spi_get_rx_dma_channel>:
 *  \param[in] hw_addr The hardware register base address
 *
 *  \return SPI RX DMA channel index.
 */
static uint8_t _spi_get_rx_dma_channel(const void *const hw)
{
    11d8:	b508      	push	{r3, lr}
	uint8_t index = _sercom_get_hardware_index(hw);
    11da:	4b07      	ldr	r3, [pc, #28]	; (11f8 <_spi_get_rx_dma_channel+0x20>)
    11dc:	4798      	blx	r3

	switch (index) {
    11de:	2807      	cmp	r0, #7
    11e0:	d807      	bhi.n	11f2 <_spi_get_rx_dma_channel+0x1a>
    11e2:	e8df f000 	tbb	[pc, r0]
    11e6:	0404      	.short	0x0404
    11e8:	06040404 	.word	0x06040404
    11ec:	0404      	.short	0x0404
	case 0:
		return CONF_SERCOM_0_SPI_M_DMA_RX_CHANNEL;
    11ee:	2001      	movs	r0, #1
    11f0:	bd08      	pop	{r3, pc}
	case 3:
		return CONF_SERCOM_3_SPI_M_DMA_RX_CHANNEL;
	case 4:
		return CONF_SERCOM_4_SPI_M_DMA_RX_CHANNEL;
	case 5:
		return CONF_SERCOM_5_SPI_M_DMA_RX_CHANNEL;
    11f2:	2000      	movs	r0, #0
	case 7:
		return CONF_SERCOM_7_SPI_M_DMA_RX_CHANNEL;
	default:
		return CONF_SERCOM_0_SPI_M_DMA_TX_CHANNEL;
	}
}
    11f4:	bd08      	pop	{r3, pc}
    11f6:	bf00      	nop
    11f8:	000010f9 	.word	0x000010f9

000011fc <_spi_dma_rx_complete>:
/**
 *  \brief Callback for RX
 *  \param[in, out] dev Pointer to the DMA resource.
 */
static void _spi_dma_rx_complete(struct _dma_resource *resource)
{
    11fc:	b508      	push	{r3, lr}
	struct _spi_m_dma_dev *dev = (struct _spi_m_dma_dev *)resource->back;
    11fe:	68c3      	ldr	r3, [r0, #12]

	if (dev->callbacks.rx) {
    1200:	689b      	ldr	r3, [r3, #8]
    1202:	b103      	cbz	r3, 1206 <_spi_dma_rx_complete+0xa>
		dev->callbacks.rx(resource);
    1204:	4798      	blx	r3
    1206:	bd08      	pop	{r3, pc}

00001208 <_spi_dma_suspend_complete>:
	}
}

static void _spi_dma_suspend_complete(struct _dma_resource *resource)
{
    1208:	b508      	push	{r3, lr}
	struct _spi_m_dma_dev *dev = (struct _spi_m_dma_dev *)resource->back;
    120a:	68c3      	ldr	r3, [r0, #12]

	if (dev->callbacks.sus) {
    120c:	68db      	ldr	r3, [r3, #12]
    120e:	b103      	cbz	r3, 1212 <_spi_dma_suspend_complete+0xa>
		dev->callbacks.sus(resource);
    1210:	4798      	blx	r3
    1212:	bd08      	pop	{r3, pc}

00001214 <_spi_dma_tx_complete>:
/**
 *  \brief Callback for TX
 *  \param[in, out] dev Pointer to the DMA resource.
 */
static void _spi_dma_tx_complete(struct _dma_resource *resource)
{
    1214:	b508      	push	{r3, lr}
	struct _spi_m_dma_dev *dev = (struct _spi_m_dma_dev *)resource->back;
    1216:	68c3      	ldr	r3, [r0, #12]

	if (dev->callbacks.tx) {
    1218:	685b      	ldr	r3, [r3, #4]
    121a:	b103      	cbz	r3, 121e <_spi_dma_tx_complete+0xa>
		dev->callbacks.tx(resource);
    121c:	4798      	blx	r3
    121e:	bd08      	pop	{r3, pc}

00001220 <_spi_dma_error_occured>:
/**
 *  \brief Callback for ERROR
 *  \param[in, out] dev Pointer to the DMA resource.
 */
static void _spi_dma_error_occured(struct _dma_resource *resource)
{
    1220:	b508      	push	{r3, lr}
	struct _spi_m_dma_dev *dev = (struct _spi_m_dma_dev *)resource->back;
    1222:	68c3      	ldr	r3, [r0, #12]

	if (dev->callbacks.error) {
    1224:	691b      	ldr	r3, [r3, #16]
    1226:	b103      	cbz	r3, 122a <_spi_dma_error_occured+0xa>
		dev->callbacks.error(resource);
    1228:	4798      	blx	r3
    122a:	bd08      	pop	{r3, pc}

0000122c <_get_i2cm_index>:
{
    122c:	b508      	push	{r3, lr}
	uint8_t sercom_offset = _sercom_get_hardware_index(hw);
    122e:	4b0d      	ldr	r3, [pc, #52]	; (1264 <_get_i2cm_index+0x38>)
    1230:	4798      	blx	r3
	for (i = 0; i < ARRAY_SIZE(_i2cms); i++) {
    1232:	2300      	movs	r3, #0
    1234:	b143      	cbz	r3, 1248 <_get_i2cm_index+0x1c>
	ASSERT(false);
    1236:	f240 32a7 	movw	r2, #935	; 0x3a7
    123a:	490b      	ldr	r1, [pc, #44]	; (1268 <_get_i2cm_index+0x3c>)
    123c:	2000      	movs	r0, #0
    123e:	4b0b      	ldr	r3, [pc, #44]	; (126c <_get_i2cm_index+0x40>)
    1240:	4798      	blx	r3
	return -1;
    1242:	f04f 30ff 	mov.w	r0, #4294967295
}
    1246:	bd08      	pop	{r3, pc}
		if (_i2cms[i].number == sercom_offset) {
    1248:	eb03 0243 	add.w	r2, r3, r3, lsl #1
    124c:	00d1      	lsls	r1, r2, #3
    124e:	4a08      	ldr	r2, [pc, #32]	; (1270 <_get_i2cm_index+0x44>)
    1250:	440a      	add	r2, r1
    1252:	f892 2038 	ldrb.w	r2, [r2, #56]	; 0x38
    1256:	4290      	cmp	r0, r2
    1258:	d002      	beq.n	1260 <_get_i2cm_index+0x34>
	for (i = 0; i < ARRAY_SIZE(_i2cms); i++) {
    125a:	3301      	adds	r3, #1
    125c:	b2db      	uxtb	r3, r3
    125e:	e7e9      	b.n	1234 <_get_i2cm_index+0x8>
			return i;
    1260:	b258      	sxtb	r0, r3
    1262:	bd08      	pop	{r3, pc}
    1264:	000010f9 	.word	0x000010f9
    1268:	00004e30 	.word	0x00004e30
    126c:	00000c1d 	.word	0x00000c1d
    1270:	00004dbc 	.word	0x00004dbc

00001274 <_i2c_m_sync_init_impl>:
{
    1274:	b538      	push	{r3, r4, r5, lr}
    1276:	4605      	mov	r5, r0
    1278:	460c      	mov	r4, r1
	uint8_t i = _get_i2cm_index(hw);
    127a:	4608      	mov	r0, r1
    127c:	4b33      	ldr	r3, [pc, #204]	; (134c <_i2c_m_sync_init_impl+0xd8>)
    127e:	4798      	blx	r3
    1280:	b2c0      	uxtb	r0, r0
	return ((Sercom *)hw)->I2CM.SYNCBUSY.reg & reg;
    1282:	69e3      	ldr	r3, [r4, #28]
	if (!hri_sercomi2cm_is_syncing(hw, SERCOM_I2CM_SYNCBUSY_SWRST)) {
    1284:	f013 0f01 	tst.w	r3, #1
    1288:	d122      	bne.n	12d0 <_i2c_m_sync_init_impl+0x5c>
		uint32_t mode = _i2cms[i].ctrl_a & SERCOM_I2CM_CTRLA_MODE_Msk;
    128a:	eb00 0340 	add.w	r3, r0, r0, lsl #1
    128e:	00da      	lsls	r2, r3, #3
    1290:	4b2f      	ldr	r3, [pc, #188]	; (1350 <_i2c_m_sync_init_impl+0xdc>)
    1292:	4413      	add	r3, r2
    1294:	6bda      	ldr	r2, [r3, #60]	; 0x3c
    1296:	f002 021c 	and.w	r2, r2, #28
	while (((Sercom *)hw)->I2CM.SYNCBUSY.reg & reg) {
    129a:	69e3      	ldr	r3, [r4, #28]
    129c:	f013 0f03 	tst.w	r3, #3
    12a0:	d1fb      	bne.n	129a <_i2c_m_sync_init_impl+0x26>
	tmp = ((Sercom *)hw)->I2CM.CTRLA.reg;
    12a2:	6823      	ldr	r3, [r4, #0]
		if (hri_sercomi2cm_get_CTRLA_reg(hw, SERCOM_I2CM_CTRLA_ENABLE)) {
    12a4:	f013 0f02 	tst.w	r3, #2
    12a8:	d00b      	beq.n	12c2 <_i2c_m_sync_init_impl+0x4e>
	((Sercom *)hw)->I2CM.CTRLA.reg &= ~SERCOM_I2CM_CTRLA_ENABLE;
    12aa:	6823      	ldr	r3, [r4, #0]
    12ac:	f023 0302 	bic.w	r3, r3, #2
    12b0:	6023      	str	r3, [r4, #0]
	while (((Sercom *)hw)->I2CM.SYNCBUSY.reg & reg) {
    12b2:	69e3      	ldr	r3, [r4, #28]
    12b4:	f013 0f03 	tst.w	r3, #3
    12b8:	d1fb      	bne.n	12b2 <_i2c_m_sync_init_impl+0x3e>
    12ba:	69e3      	ldr	r3, [r4, #28]
    12bc:	f013 0f02 	tst.w	r3, #2
    12c0:	d1fb      	bne.n	12ba <_i2c_m_sync_init_impl+0x46>
		hri_sercomi2cm_write_CTRLA_reg(hw, SERCOM_I2CM_CTRLA_SWRST | mode);
    12c2:	f042 0201 	orr.w	r2, r2, #1
	((Sercom *)hw)->I2CM.CTRLA.reg = data;
    12c6:	6022      	str	r2, [r4, #0]
	while (((Sercom *)hw)->I2CM.SYNCBUSY.reg & reg) {
    12c8:	69e3      	ldr	r3, [r4, #28]
    12ca:	f013 0f03 	tst.w	r3, #3
    12ce:	d1fb      	bne.n	12c8 <_i2c_m_sync_init_impl+0x54>
    12d0:	69e3      	ldr	r3, [r4, #28]
    12d2:	f013 0f01 	tst.w	r3, #1
    12d6:	d1fb      	bne.n	12d0 <_i2c_m_sync_init_impl+0x5c>
	hri_sercomi2cm_write_CTRLA_reg(hw, _i2cms[i].ctrl_a);
    12d8:	eb00 0340 	add.w	r3, r0, r0, lsl #1
    12dc:	00da      	lsls	r2, r3, #3
    12de:	4b1c      	ldr	r3, [pc, #112]	; (1350 <_i2c_m_sync_init_impl+0xdc>)
    12e0:	4413      	add	r3, r2
    12e2:	6bdb      	ldr	r3, [r3, #60]	; 0x3c
	((Sercom *)hw)->I2CM.CTRLA.reg = data;
    12e4:	6023      	str	r3, [r4, #0]
	while (((Sercom *)hw)->I2CM.SYNCBUSY.reg & reg) {
    12e6:	69e3      	ldr	r3, [r4, #28]
    12e8:	f013 0f03 	tst.w	r3, #3
    12ec:	d1fb      	bne.n	12e6 <_i2c_m_sync_init_impl+0x72>
	hri_sercomi2cm_write_CTRLB_reg(hw, _i2cms[i].ctrl_b);
    12ee:	eb00 0340 	add.w	r3, r0, r0, lsl #1
    12f2:	00da      	lsls	r2, r3, #3
    12f4:	4b16      	ldr	r3, [pc, #88]	; (1350 <_i2c_m_sync_init_impl+0xdc>)
    12f6:	4413      	add	r3, r2
    12f8:	6c1b      	ldr	r3, [r3, #64]	; 0x40
	((Sercom *)hw)->I2CM.CTRLB.reg = data;
    12fa:	6063      	str	r3, [r4, #4]
	while (((Sercom *)hw)->I2CM.SYNCBUSY.reg & reg) {
    12fc:	69e3      	ldr	r3, [r4, #28]
    12fe:	f013 0f04 	tst.w	r3, #4
    1302:	d1fb      	bne.n	12fc <_i2c_m_sync_init_impl+0x88>
	hri_sercomi2cm_write_BAUD_reg(hw, _i2cms[i].baud);
    1304:	0042      	lsls	r2, r0, #1
    1306:	4402      	add	r2, r0
    1308:	00d1      	lsls	r1, r2, #3
    130a:	4b11      	ldr	r3, [pc, #68]	; (1350 <_i2c_m_sync_init_impl+0xdc>)
    130c:	440b      	add	r3, r1
    130e:	6c5a      	ldr	r2, [r3, #68]	; 0x44
}

static inline void hri_sercomi2cm_write_BAUD_reg(const void *const hw, hri_sercomi2cm_baud_reg_t data)
{
	SERCOM_CRITICAL_SECTION_ENTER();
	((Sercom *)hw)->I2CM.BAUD.reg = data;
    1310:	60e2      	str	r2, [r4, #12]
	service->mode = (_i2cms[i].ctrl_a & SERCOM_I2CM_CTRLA_SPEED_Msk) >> SERCOM_I2CM_CTRLA_SPEED_Pos;
    1312:	f893 303f 	ldrb.w	r3, [r3, #63]	; 0x3f
    1316:	f003 0303 	and.w	r3, r3, #3
    131a:	81ab      	strh	r3, [r5, #12]
	hri_sercomi2cm_write_ADDR_HS_bit(hw, service->mode < I2C_HS ? 0 : 1);
    131c:	2b01      	cmp	r3, #1
    131e:	bf94      	ite	ls
    1320:	2300      	movls	r3, #0
    1322:	2301      	movhi	r3, #1

static inline void hri_sercomi2cm_write_ADDR_HS_bit(const void *const hw, bool value)
{
	uint32_t tmp;
	SERCOM_CRITICAL_SECTION_ENTER();
	tmp = ((Sercom *)hw)->I2CM.ADDR.reg;
    1324:	6a62      	ldr	r2, [r4, #36]	; 0x24
	tmp &= ~SERCOM_I2CM_ADDR_HS;
    1326:	f422 4280 	bic.w	r2, r2, #16384	; 0x4000
	tmp |= value << SERCOM_I2CM_ADDR_HS_Pos;
    132a:	ea42 3383 	orr.w	r3, r2, r3, lsl #14
	((Sercom *)hw)->I2CM.ADDR.reg = tmp;
    132e:	6263      	str	r3, [r4, #36]	; 0x24
	while (((Sercom *)hw)->I2CM.SYNCBUSY.reg & reg) {
    1330:	69e3      	ldr	r3, [r4, #28]
    1332:	f013 0f04 	tst.w	r3, #4
    1336:	d1fb      	bne.n	1330 <_i2c_m_sync_init_impl+0xbc>
	service->trise = _i2cms[i].trise;
    1338:	eb00 0040 	add.w	r0, r0, r0, lsl #1
    133c:	00c2      	lsls	r2, r0, #3
    133e:	4b04      	ldr	r3, [pc, #16]	; (1350 <_i2c_m_sync_init_impl+0xdc>)
    1340:	4413      	add	r3, r2
    1342:	f8b3 304a 	ldrh.w	r3, [r3, #74]	; 0x4a
    1346:	81eb      	strh	r3, [r5, #14]
}
    1348:	2000      	movs	r0, #0
    134a:	bd38      	pop	{r3, r4, r5, pc}
    134c:	0000122d 	.word	0x0000122d
    1350:	00004dbc 	.word	0x00004dbc

00001354 <_sercom_i2c_sync_send_address>:
{
    1354:	b570      	push	{r4, r5, r6, lr}
    1356:	4605      	mov	r5, r0
	void *             hw    = i2c_dev->hw;
    1358:	6904      	ldr	r4, [r0, #16]
	tmp = ((Sercom *)hw)->I2CM.CTRLA.reg;
    135a:	6826      	ldr	r6, [r4, #0]
	tmp = (tmp & SERCOM_I2CM_CTRLA_SCLSM) >> SERCOM_I2CM_CTRLA_SCLSM_Pos;
    135c:	f3c6 66c0 	ubfx	r6, r6, #27, #1
	ASSERT(i2c_dev);
    1360:	f240 52a6 	movw	r2, #1446	; 0x5a6
    1364:	4999      	ldr	r1, [pc, #612]	; (15cc <_sercom_i2c_sync_send_address+0x278>)
    1366:	3000      	adds	r0, #0
    1368:	bf18      	it	ne
    136a:	2001      	movne	r0, #1
    136c:	4b98      	ldr	r3, [pc, #608]	; (15d0 <_sercom_i2c_sync_send_address+0x27c>)
    136e:	4798      	blx	r3
	if (msg->len == 1 && sclsm) {
    1370:	686b      	ldr	r3, [r5, #4]
    1372:	2b01      	cmp	r3, #1
    1374:	d057      	beq.n	1426 <_sercom_i2c_sync_send_address+0xd2>
	((Sercom *)hw)->I2CM.CTRLB.reg &= ~SERCOM_I2CM_CTRLB_ACKACT;
    1376:	6863      	ldr	r3, [r4, #4]
    1378:	f423 2380 	bic.w	r3, r3, #262144	; 0x40000
    137c:	6063      	str	r3, [r4, #4]
	while (((Sercom *)hw)->I2CM.SYNCBUSY.reg & reg) {
    137e:	69e3      	ldr	r3, [r4, #28]
    1380:	f013 0f04 	tst.w	r3, #4
    1384:	d1fb      	bne.n	137e <_sercom_i2c_sync_send_address+0x2a>
	if (msg->addr & I2C_M_TEN) {
    1386:	882b      	ldrh	r3, [r5, #0]
    1388:	f413 6f80 	tst.w	r3, #1024	; 0x400
    138c:	d056      	beq.n	143c <_sercom_i2c_sync_send_address+0xe8>
		if (msg->flags & I2C_M_RD) {
    138e:	886a      	ldrh	r2, [r5, #2]
    1390:	f012 0f01 	tst.w	r2, #1
    1394:	d004      	beq.n	13a0 <_sercom_i2c_sync_send_address+0x4c>
			msg->flags |= I2C_M_TEN;
    1396:	886a      	ldrh	r2, [r5, #2]
    1398:	b292      	uxth	r2, r2
    139a:	f442 6280 	orr.w	r2, r2, #1024	; 0x400
    139e:	806a      	strh	r2, [r5, #2]
		                                  | (hri_sercomi2cm_read_ADDR_reg(hw) & SERCOM_I2CM_ADDR_HS));
    13a0:	f240 72fe 	movw	r2, #2046	; 0x7fe
    13a4:	ea02 0243 	and.w	r2, r2, r3, lsl #1
    13a8:	69e3      	ldr	r3, [r4, #28]
    13aa:	f013 0f04 	tst.w	r3, #4
    13ae:	d1fb      	bne.n	13a8 <_sercom_i2c_sync_send_address+0x54>
}

static inline hri_sercomi2cm_addr_reg_t hri_sercomi2cm_read_ADDR_reg(const void *const hw)
{
	hri_sercomi2cm_wait_for_sync(hw, SERCOM_I2CM_SYNCBUSY_SYSOP);
	return ((Sercom *)hw)->I2CM.ADDR.reg;
    13b0:	6a63      	ldr	r3, [r4, #36]	; 0x24
    13b2:	f403 4380 	and.w	r3, r3, #16384	; 0x4000
    13b6:	4313      	orrs	r3, r2
		hri_sercomi2cm_write_ADDR_reg(hw,
    13b8:	f443 4300 	orr.w	r3, r3, #32768	; 0x8000
	((Sercom *)hw)->I2CM.ADDR.reg = data;
    13bc:	6263      	str	r3, [r4, #36]	; 0x24
	while (((Sercom *)hw)->I2CM.SYNCBUSY.reg & reg) {
    13be:	69e3      	ldr	r3, [r4, #28]
    13c0:	f013 0f04 	tst.w	r3, #4
    13c4:	d1fb      	bne.n	13be <_sercom_i2c_sync_send_address+0x6a>
	void *   hw      = i2c_dev->hw;
    13c6:	692e      	ldr	r6, [r5, #16]
	uint32_t timeout = 65535;
    13c8:	f64f 72ff 	movw	r2, #65535	; 0xffff
	return ((Sercom *)hw)->I2CM.INTFLAG.reg;
    13cc:	7e33      	ldrb	r3, [r6, #24]
    13ce:	b2db      	uxtb	r3, r3
		*flags = hri_sercomi2cm_read_INTFLAG_reg(hw);
    13d0:	4618      	mov	r0, r3
		if (timeout-- == 0) {
    13d2:	1e51      	subs	r1, r2, #1
    13d4:	b11a      	cbz	r2, 13de <_sercom_i2c_sync_send_address+0x8a>
    13d6:	460a      	mov	r2, r1
	} while (!(*flags & MB_FLAG) && !(*flags & SB_FLAG));
    13d8:	f013 0f03 	tst.w	r3, #3
    13dc:	d0f6      	beq.n	13cc <_sercom_i2c_sync_send_address+0x78>
	tmp = ((Sercom *)hw)->I2CM.CTRLA.reg;
    13de:	6822      	ldr	r2, [r4, #0]
	tmp = (tmp & SERCOM_I2CM_CTRLA_SCLSM) >> SERCOM_I2CM_CTRLA_SCLSM_Pos;
    13e0:	f3c2 62c0 	ubfx	r2, r2, #27, #1
	while (((Sercom *)hw)->I2CM.SYNCBUSY.reg & reg) {
    13e4:	69e3      	ldr	r3, [r4, #28]
    13e6:	f013 0f04 	tst.w	r3, #4
    13ea:	d1fb      	bne.n	13e4 <_sercom_i2c_sync_send_address+0x90>
}

static inline hri_sercomi2cm_status_reg_t hri_sercomi2cm_read_STATUS_reg(const void *const hw)
{
	hri_sercomi2cm_wait_for_sync(hw, SERCOM_I2CM_SYNCBUSY_SYSOP);
	return ((Sercom *)hw)->I2CM.STATUS.reg;
    13ec:	8b63      	ldrh	r3, [r4, #26]
    13ee:	b29b      	uxth	r3, r3
	if (flags & MB_FLAG) {
    13f0:	f010 0f01 	tst.w	r0, #1
    13f4:	f000 809c 	beq.w	1530 <_sercom_i2c_sync_send_address+0x1dc>
		if (status & SERCOM_I2CM_STATUS_ARBLOST) {
    13f8:	f013 0f02 	tst.w	r3, #2
    13fc:	d032      	beq.n	1464 <_sercom_i2c_sync_send_address+0x110>
	((Sercom *)hw)->I2CM.INTFLAG.reg = SERCOM_I2CM_INTFLAG_MB;
    13fe:	2201      	movs	r2, #1
    1400:	7622      	strb	r2, [r4, #24]
			msg->flags |= I2C_M_FAIL;
    1402:	886a      	ldrh	r2, [r5, #2]
    1404:	b292      	uxth	r2, r2
    1406:	f442 5280 	orr.w	r2, r2, #4096	; 0x1000
    140a:	806a      	strh	r2, [r5, #2]
			msg->flags &= ~I2C_M_BUSY;
    140c:	886a      	ldrh	r2, [r5, #2]
    140e:	b292      	uxth	r2, r2
    1410:	f422 7280 	bic.w	r2, r2, #256	; 0x100
    1414:	b292      	uxth	r2, r2
    1416:	806a      	strh	r2, [r5, #2]
			if (status & SERCOM_I2CM_STATUS_BUSERR) {
    1418:	f013 0f01 	tst.w	r3, #1
    141c:	f000 80d1 	beq.w	15c2 <_sercom_i2c_sync_send_address+0x26e>
				return I2C_ERR_BUS;
    1420:	f06f 0004 	mvn.w	r0, #4
    1424:	bd70      	pop	{r4, r5, r6, pc}
	if (msg->len == 1 && sclsm) {
    1426:	2e00      	cmp	r6, #0
    1428:	d0a5      	beq.n	1376 <_sercom_i2c_sync_send_address+0x22>
	((Sercom *)hw)->I2CM.CTRLB.reg |= SERCOM_I2CM_CTRLB_ACKACT;
    142a:	6863      	ldr	r3, [r4, #4]
    142c:	f443 2380 	orr.w	r3, r3, #262144	; 0x40000
    1430:	6063      	str	r3, [r4, #4]
	while (((Sercom *)hw)->I2CM.SYNCBUSY.reg & reg) {
    1432:	69e3      	ldr	r3, [r4, #28]
    1434:	f013 0f04 	tst.w	r3, #4
    1438:	d1fb      	bne.n	1432 <_sercom_i2c_sync_send_address+0xde>
    143a:	e7a4      	b.n	1386 <_sercom_i2c_sync_send_address+0x32>
		                              ((msg->addr & SEVEN_ADDR_MASK) << 1) | (msg->flags & I2C_M_RD ? I2C_M_RD : 0x0)
    143c:	005b      	lsls	r3, r3, #1
    143e:	b2db      	uxtb	r3, r3
    1440:	886a      	ldrh	r2, [r5, #2]
    1442:	f002 0201 	and.w	r2, r2, #1
    1446:	431a      	orrs	r2, r3
    1448:	69e3      	ldr	r3, [r4, #28]
    144a:	f013 0f04 	tst.w	r3, #4
    144e:	d1fb      	bne.n	1448 <_sercom_i2c_sync_send_address+0xf4>
	return ((Sercom *)hw)->I2CM.ADDR.reg;
    1450:	6a63      	ldr	r3, [r4, #36]	; 0x24
		                                  | (hri_sercomi2cm_read_ADDR_reg(hw) & SERCOM_I2CM_ADDR_HS));
    1452:	f403 4380 	and.w	r3, r3, #16384	; 0x4000
		hri_sercomi2cm_write_ADDR_reg(hw,
    1456:	4313      	orrs	r3, r2
	((Sercom *)hw)->I2CM.ADDR.reg = data;
    1458:	6263      	str	r3, [r4, #36]	; 0x24
	while (((Sercom *)hw)->I2CM.SYNCBUSY.reg & reg) {
    145a:	69e3      	ldr	r3, [r4, #28]
    145c:	f013 0f04 	tst.w	r3, #4
    1460:	d1fb      	bne.n	145a <_sercom_i2c_sync_send_address+0x106>
    1462:	e7b0      	b.n	13c6 <_sercom_i2c_sync_send_address+0x72>
			if (status & SERCOM_I2CM_STATUS_RXNACK) {
    1464:	f013 0f04 	tst.w	r3, #4
    1468:	d11f      	bne.n	14aa <_sercom_i2c_sync_send_address+0x156>
			if (msg->flags & I2C_M_TEN) {
    146a:	886b      	ldrh	r3, [r5, #2]
    146c:	f413 6f80 	tst.w	r3, #1024	; 0x400
    1470:	d039      	beq.n	14e6 <_sercom_i2c_sync_send_address+0x192>
				                              ((((msg->addr & TEN_ADDR_MASK) >> 8) | TEN_ADDR_FRAME) << 1) | I2C_M_RD
    1472:	882b      	ldrh	r3, [r5, #0]
    1474:	121b      	asrs	r3, r3, #8
    1476:	005b      	lsls	r3, r3, #1
				                                  | (hri_sercomi2cm_read_ADDR_reg(hw) & SERCOM_I2CM_ADDR_HS));
    1478:	f003 0206 	and.w	r2, r3, #6
    147c:	69e3      	ldr	r3, [r4, #28]
    147e:	f013 0f04 	tst.w	r3, #4
    1482:	d1fb      	bne.n	147c <_sercom_i2c_sync_send_address+0x128>
	return ((Sercom *)hw)->I2CM.ADDR.reg;
    1484:	6a63      	ldr	r3, [r4, #36]	; 0x24
    1486:	f403 4380 	and.w	r3, r3, #16384	; 0x4000
    148a:	4313      	orrs	r3, r2
				hri_sercomi2cm_write_ADDR_reg(hw,
    148c:	f043 03f1 	orr.w	r3, r3, #241	; 0xf1
	((Sercom *)hw)->I2CM.ADDR.reg = data;
    1490:	6263      	str	r3, [r4, #36]	; 0x24
	while (((Sercom *)hw)->I2CM.SYNCBUSY.reg & reg) {
    1492:	69e3      	ldr	r3, [r4, #28]
    1494:	f013 0f04 	tst.w	r3, #4
    1498:	d1fb      	bne.n	1492 <_sercom_i2c_sync_send_address+0x13e>
				msg->flags &= ~I2C_M_TEN;
    149a:	886b      	ldrh	r3, [r5, #2]
    149c:	b29b      	uxth	r3, r3
    149e:	f423 6380 	bic.w	r3, r3, #1024	; 0x400
    14a2:	b29b      	uxth	r3, r3
    14a4:	806b      	strh	r3, [r5, #2]
				return I2C_OK;
    14a6:	2000      	movs	r0, #0
    14a8:	bd70      	pop	{r4, r5, r6, pc}
				if (msg->len > 0) {
    14aa:	686b      	ldr	r3, [r5, #4]
    14ac:	2b00      	cmp	r3, #0
    14ae:	dd04      	ble.n	14ba <_sercom_i2c_sync_send_address+0x166>
					msg->flags |= I2C_M_FAIL;
    14b0:	886b      	ldrh	r3, [r5, #2]
    14b2:	b29b      	uxth	r3, r3
    14b4:	f443 5380 	orr.w	r3, r3, #4096	; 0x1000
    14b8:	806b      	strh	r3, [r5, #2]
				if (msg->flags & I2C_M_STOP) {
    14ba:	886b      	ldrh	r3, [r5, #2]
    14bc:	f413 4f00 	tst.w	r3, #32768	; 0x8000
    14c0:	d108      	bne.n	14d4 <_sercom_i2c_sync_send_address+0x180>
				msg->flags &= ~I2C_M_BUSY;
    14c2:	886b      	ldrh	r3, [r5, #2]
    14c4:	b29b      	uxth	r3, r3
    14c6:	f423 7380 	bic.w	r3, r3, #256	; 0x100
    14ca:	b29b      	uxth	r3, r3
    14cc:	806b      	strh	r3, [r5, #2]
				return I2C_NACK;
    14ce:	f06f 0001 	mvn.w	r0, #1
    14d2:	bd70      	pop	{r4, r5, r6, pc}
	((Sercom *)hw)->I2CM.CTRLB.reg |= SERCOM_I2CM_CTRLB_CMD(mask);
    14d4:	6863      	ldr	r3, [r4, #4]
    14d6:	f443 3340 	orr.w	r3, r3, #196608	; 0x30000
    14da:	6063      	str	r3, [r4, #4]
	while (((Sercom *)hw)->I2CM.SYNCBUSY.reg & reg) {
    14dc:	69e3      	ldr	r3, [r4, #28]
    14de:	f013 0f04 	tst.w	r3, #4
    14e2:	d1fb      	bne.n	14dc <_sercom_i2c_sync_send_address+0x188>
    14e4:	e7ed      	b.n	14c2 <_sercom_i2c_sync_send_address+0x16e>
			if (msg->len == 0) {
    14e6:	6868      	ldr	r0, [r5, #4]
    14e8:	b998      	cbnz	r0, 1512 <_sercom_i2c_sync_send_address+0x1be>
				if (msg->flags & I2C_M_STOP) {
    14ea:	886b      	ldrh	r3, [r5, #2]
    14ec:	f413 4f00 	tst.w	r3, #32768	; 0x8000
    14f0:	d106      	bne.n	1500 <_sercom_i2c_sync_send_address+0x1ac>
				msg->flags &= ~I2C_M_BUSY;
    14f2:	886b      	ldrh	r3, [r5, #2]
    14f4:	b29b      	uxth	r3, r3
    14f6:	f423 7380 	bic.w	r3, r3, #256	; 0x100
    14fa:	b29b      	uxth	r3, r3
    14fc:	806b      	strh	r3, [r5, #2]
    14fe:	bd70      	pop	{r4, r5, r6, pc}
	((Sercom *)hw)->I2CM.CTRLB.reg |= SERCOM_I2CM_CTRLB_CMD(mask);
    1500:	6863      	ldr	r3, [r4, #4]
    1502:	f443 3340 	orr.w	r3, r3, #196608	; 0x30000
    1506:	6063      	str	r3, [r4, #4]
	while (((Sercom *)hw)->I2CM.SYNCBUSY.reg & reg) {
    1508:	69e3      	ldr	r3, [r4, #28]
    150a:	f013 0f04 	tst.w	r3, #4
    150e:	d1fb      	bne.n	1508 <_sercom_i2c_sync_send_address+0x1b4>
    1510:	e7ef      	b.n	14f2 <_sercom_i2c_sync_send_address+0x19e>
				hri_sercomi2cm_write_DATA_reg(hw, *msg->buffer);
    1512:	68ab      	ldr	r3, [r5, #8]
    1514:	781b      	ldrb	r3, [r3, #0]
	((Sercom *)hw)->I2CM.DATA.reg = data;
    1516:	62a3      	str	r3, [r4, #40]	; 0x28
	while (((Sercom *)hw)->I2CM.SYNCBUSY.reg & reg) {
    1518:	69e3      	ldr	r3, [r4, #28]
    151a:	f013 0f04 	tst.w	r3, #4
    151e:	d1fb      	bne.n	1518 <_sercom_i2c_sync_send_address+0x1c4>
				msg->buffer++;
    1520:	68ab      	ldr	r3, [r5, #8]
    1522:	3301      	adds	r3, #1
    1524:	60ab      	str	r3, [r5, #8]
				msg->len--;
    1526:	686b      	ldr	r3, [r5, #4]
    1528:	3b01      	subs	r3, #1
    152a:	606b      	str	r3, [r5, #4]
			return I2C_OK;
    152c:	2000      	movs	r0, #0
    152e:	bd70      	pop	{r4, r5, r6, pc}
	} else if (flags & SB_FLAG) {
    1530:	f010 0f02 	tst.w	r0, #2
    1534:	d048      	beq.n	15c8 <_sercom_i2c_sync_send_address+0x274>
		if ((msg->len) && !(status & SERCOM_I2CM_STATUS_RXNACK)) {
    1536:	6869      	ldr	r1, [r5, #4]
    1538:	2900      	cmp	r1, #0
    153a:	d03d      	beq.n	15b8 <_sercom_i2c_sync_send_address+0x264>
    153c:	f013 0f04 	tst.w	r3, #4
    1540:	d13a      	bne.n	15b8 <_sercom_i2c_sync_send_address+0x264>
			msg->len--;
    1542:	3901      	subs	r1, #1
    1544:	6069      	str	r1, [r5, #4]
			if ((msg->len == 0 && !sclsm) || (msg->len == 1 && sclsm)) {
    1546:	b901      	cbnz	r1, 154a <_sercom_i2c_sync_send_address+0x1f6>
    1548:	b1e2      	cbz	r2, 1584 <_sercom_i2c_sync_send_address+0x230>
    154a:	2901      	cmp	r1, #1
    154c:	d018      	beq.n	1580 <_sercom_i2c_sync_send_address+0x22c>
			if (msg->len == 0) {
    154e:	686b      	ldr	r3, [r5, #4]
    1550:	b94b      	cbnz	r3, 1566 <_sercom_i2c_sync_send_address+0x212>
				if (msg->flags & I2C_M_STOP) {
    1552:	886b      	ldrh	r3, [r5, #2]
    1554:	f413 4f00 	tst.w	r3, #32768	; 0x8000
    1558:	d11d      	bne.n	1596 <_sercom_i2c_sync_send_address+0x242>
				msg->flags &= ~I2C_M_BUSY;
    155a:	886b      	ldrh	r3, [r5, #2]
    155c:	b29b      	uxth	r3, r3
    155e:	f423 7380 	bic.w	r3, r3, #256	; 0x100
    1562:	b29b      	uxth	r3, r3
    1564:	806b      	strh	r3, [r5, #2]
			*msg->buffer++ = hri_sercomi2cm_read_DATA_reg(hw);
    1566:	68aa      	ldr	r2, [r5, #8]
    1568:	1c53      	adds	r3, r2, #1
    156a:	60ab      	str	r3, [r5, #8]
    156c:	69e3      	ldr	r3, [r4, #28]
    156e:	f013 0f04 	tst.w	r3, #4
    1572:	d1fb      	bne.n	156c <_sercom_i2c_sync_send_address+0x218>
	return ((Sercom *)hw)->I2CM.DATA.reg;
    1574:	6aa3      	ldr	r3, [r4, #40]	; 0x28
    1576:	7013      	strb	r3, [r2, #0]
	((Sercom *)hw)->I2CM.INTFLAG.reg = SERCOM_I2CM_INTFLAG_SB;
    1578:	2302      	movs	r3, #2
    157a:	7623      	strb	r3, [r4, #24]
	return I2C_OK;
    157c:	2000      	movs	r0, #0
    157e:	bd70      	pop	{r4, r5, r6, pc}
			if ((msg->len == 0 && !sclsm) || (msg->len == 1 && sclsm)) {
    1580:	2a00      	cmp	r2, #0
    1582:	d0e4      	beq.n	154e <_sercom_i2c_sync_send_address+0x1fa>
	((Sercom *)hw)->I2CM.CTRLB.reg |= SERCOM_I2CM_CTRLB_ACKACT;
    1584:	6863      	ldr	r3, [r4, #4]
    1586:	f443 2380 	orr.w	r3, r3, #262144	; 0x40000
    158a:	6063      	str	r3, [r4, #4]
	while (((Sercom *)hw)->I2CM.SYNCBUSY.reg & reg) {
    158c:	69e3      	ldr	r3, [r4, #28]
    158e:	f013 0f04 	tst.w	r3, #4
    1592:	d1fb      	bne.n	158c <_sercom_i2c_sync_send_address+0x238>
    1594:	e7db      	b.n	154e <_sercom_i2c_sync_send_address+0x1fa>
	((Sercom *)hw)->I2CM.CTRLB.reg &= ~SERCOM_I2CM_CTRLB_SMEN;
    1596:	6863      	ldr	r3, [r4, #4]
    1598:	f423 7380 	bic.w	r3, r3, #256	; 0x100
    159c:	6063      	str	r3, [r4, #4]
	while (((Sercom *)hw)->I2CM.SYNCBUSY.reg & reg) {
    159e:	69e3      	ldr	r3, [r4, #28]
    15a0:	f013 0f04 	tst.w	r3, #4
    15a4:	d1fb      	bne.n	159e <_sercom_i2c_sync_send_address+0x24a>
	((Sercom *)hw)->I2CM.CTRLB.reg |= SERCOM_I2CM_CTRLB_CMD(mask);
    15a6:	6863      	ldr	r3, [r4, #4]
    15a8:	f443 3340 	orr.w	r3, r3, #196608	; 0x30000
    15ac:	6063      	str	r3, [r4, #4]
	while (((Sercom *)hw)->I2CM.SYNCBUSY.reg & reg) {
    15ae:	69e3      	ldr	r3, [r4, #28]
    15b0:	f013 0f04 	tst.w	r3, #4
    15b4:	d1fb      	bne.n	15ae <_sercom_i2c_sync_send_address+0x25a>
    15b6:	e7d0      	b.n	155a <_sercom_i2c_sync_send_address+0x206>
	((Sercom *)hw)->I2CM.INTFLAG.reg = SERCOM_I2CM_INTFLAG_SB;
    15b8:	2302      	movs	r3, #2
    15ba:	7623      	strb	r3, [r4, #24]
			return I2C_NACK;
    15bc:	f06f 0001 	mvn.w	r0, #1
    15c0:	bd70      	pop	{r4, r5, r6, pc}
			return I2C_ERR_BAD_ADDRESS;
    15c2:	f06f 0003 	mvn.w	r0, #3
    15c6:	bd70      	pop	{r4, r5, r6, pc}
	return I2C_OK;
    15c8:	2000      	movs	r0, #0
}
    15ca:	bd70      	pop	{r4, r5, r6, pc}
    15cc:	00004e30 	.word	0x00004e30
    15d0:	00000c1d 	.word	0x00000c1d

000015d4 <_spi_m_dma_rx_enable>:
{
    15d4:	b510      	push	{r4, lr}
	ASSERT(dev && dev->prvt);
    15d6:	4604      	mov	r4, r0
    15d8:	b168      	cbz	r0, 15f6 <_spi_m_dma_rx_enable+0x22>
    15da:	6803      	ldr	r3, [r0, #0]
    15dc:	b14b      	cbz	r3, 15f2 <_spi_m_dma_rx_enable+0x1e>
    15de:	2001      	movs	r0, #1
    15e0:	f640 32fe 	movw	r2, #3070	; 0xbfe
    15e4:	4905      	ldr	r1, [pc, #20]	; (15fc <_spi_m_dma_rx_enable+0x28>)
    15e6:	4b06      	ldr	r3, [pc, #24]	; (1600 <_spi_m_dma_rx_enable+0x2c>)
    15e8:	4798      	blx	r3
	return _spi_sync_rx_enable(dev->prvt);
    15ea:	6820      	ldr	r0, [r4, #0]
    15ec:	4b05      	ldr	r3, [pc, #20]	; (1604 <_spi_m_dma_rx_enable+0x30>)
    15ee:	4798      	blx	r3
}
    15f0:	bd10      	pop	{r4, pc}
	ASSERT(dev && dev->prvt);
    15f2:	2000      	movs	r0, #0
    15f4:	e7f4      	b.n	15e0 <_spi_m_dma_rx_enable+0xc>
    15f6:	2000      	movs	r0, #0
    15f8:	e7f2      	b.n	15e0 <_spi_m_dma_rx_enable+0xc>
    15fa:	bf00      	nop
    15fc:	00004e30 	.word	0x00004e30
    1600:	00000c1d 	.word	0x00000c1d
    1604:	0000115b 	.word	0x0000115b

00001608 <_spi_m_dma_rx_disable>:
{
    1608:	b510      	push	{r4, lr}
	ASSERT(dev && dev->prvt);
    160a:	4604      	mov	r4, r0
    160c:	b168      	cbz	r0, 162a <_spi_m_dma_rx_disable+0x22>
    160e:	6803      	ldr	r3, [r0, #0]
    1610:	b14b      	cbz	r3, 1626 <_spi_m_dma_rx_disable+0x1e>
    1612:	2001      	movs	r0, #1
    1614:	f640 4205 	movw	r2, #3077	; 0xc05
    1618:	4905      	ldr	r1, [pc, #20]	; (1630 <_spi_m_dma_rx_disable+0x28>)
    161a:	4b06      	ldr	r3, [pc, #24]	; (1634 <_spi_m_dma_rx_disable+0x2c>)
    161c:	4798      	blx	r3
	return _spi_sync_rx_disable(dev->prvt);
    161e:	6820      	ldr	r0, [r4, #0]
    1620:	4b05      	ldr	r3, [pc, #20]	; (1638 <_spi_m_dma_rx_disable+0x30>)
    1622:	4798      	blx	r3
}
    1624:	bd10      	pop	{r4, pc}
	ASSERT(dev && dev->prvt);
    1626:	2000      	movs	r0, #0
    1628:	e7f4      	b.n	1614 <_spi_m_dma_rx_disable+0xc>
    162a:	2000      	movs	r0, #0
    162c:	e7f2      	b.n	1614 <_spi_m_dma_rx_disable+0xc>
    162e:	bf00      	nop
    1630:	00004e30 	.word	0x00004e30
    1634:	00000c1d 	.word	0x00000c1d
    1638:	0000117d 	.word	0x0000117d

0000163c <_i2c_m_sync_init>:
{
    163c:	b538      	push	{r3, r4, r5, lr}
    163e:	460d      	mov	r5, r1
	ASSERT(i2c_dev);
    1640:	4604      	mov	r4, r0
    1642:	f240 5219 	movw	r2, #1305	; 0x519
    1646:	4906      	ldr	r1, [pc, #24]	; (1660 <_i2c_m_sync_init+0x24>)
    1648:	3000      	adds	r0, #0
    164a:	bf18      	it	ne
    164c:	2001      	movne	r0, #1
    164e:	4b05      	ldr	r3, [pc, #20]	; (1664 <_i2c_m_sync_init+0x28>)
    1650:	4798      	blx	r3
	i2c_dev->hw = hw;
    1652:	6125      	str	r5, [r4, #16]
	return _i2c_m_sync_init_impl(&i2c_dev->service, hw);
    1654:	4629      	mov	r1, r5
    1656:	4620      	mov	r0, r4
    1658:	4b03      	ldr	r3, [pc, #12]	; (1668 <_i2c_m_sync_init+0x2c>)
    165a:	4798      	blx	r3
}
    165c:	bd38      	pop	{r3, r4, r5, pc}
    165e:	bf00      	nop
    1660:	00004e30 	.word	0x00004e30
    1664:	00000c1d 	.word	0x00000c1d
    1668:	00001275 	.word	0x00001275

0000166c <_i2c_m_sync_enable>:
{
    166c:	b570      	push	{r4, r5, r6, lr}
	ASSERT(i2c_dev);
    166e:	4e1b      	ldr	r6, [pc, #108]	; (16dc <_i2c_m_sync_enable+0x70>)
    1670:	4604      	mov	r4, r0
    1672:	f240 5236 	movw	r2, #1334	; 0x536
    1676:	4631      	mov	r1, r6
    1678:	3000      	adds	r0, #0
    167a:	bf18      	it	ne
    167c:	2001      	movne	r0, #1
    167e:	4d18      	ldr	r5, [pc, #96]	; (16e0 <_i2c_m_sync_enable+0x74>)
    1680:	47a8      	blx	r5
	return _i2c_m_enable_implementation(i2c_dev->hw);
    1682:	6924      	ldr	r4, [r4, #16]
	ASSERT(hw);
    1684:	f240 6206 	movw	r2, #1542	; 0x606
    1688:	4631      	mov	r1, r6
    168a:	1c20      	adds	r0, r4, #0
    168c:	bf18      	it	ne
    168e:	2001      	movne	r0, #1
    1690:	47a8      	blx	r5
	((Sercom *)hw)->I2CM.CTRLA.reg |= SERCOM_I2CM_CTRLA_ENABLE;
    1692:	6823      	ldr	r3, [r4, #0]
    1694:	f043 0302 	orr.w	r3, r3, #2
    1698:	6023      	str	r3, [r4, #0]
	while (((Sercom *)hw)->I2CM.SYNCBUSY.reg & reg) {
    169a:	69e3      	ldr	r3, [r4, #28]
    169c:	f013 0f03 	tst.w	r3, #3
    16a0:	d1fb      	bne.n	169a <_i2c_m_sync_enable+0x2e>
    16a2:	2104      	movs	r1, #4
    16a4:	f64f 72ff 	movw	r2, #65535	; 0xffff
    16a8:	69e3      	ldr	r3, [r4, #28]
    16aa:	f013 0f04 	tst.w	r3, #4
    16ae:	d1fb      	bne.n	16a8 <_i2c_m_sync_enable+0x3c>
	return (((Sercom *)hw)->I2CM.STATUS.reg & SERCOM_I2CM_STATUS_BUSSTATE_Msk) >> SERCOM_I2CM_STATUS_BUSSTATE_Pos;
    16b0:	8b63      	ldrh	r3, [r4, #26]
    16b2:	f3c3 1301 	ubfx	r3, r3, #4, #2
	while (hri_sercomi2cm_read_STATUS_BUSSTATE_bf(hw) != I2C_IDLE) {
    16b6:	2b01      	cmp	r3, #1
    16b8:	d00b      	beq.n	16d2 <_i2c_m_sync_enable+0x66>
		timeout--;
    16ba:	3a01      	subs	r2, #1
		if (timeout <= 0) {
    16bc:	2a00      	cmp	r2, #0
    16be:	dcf3      	bgt.n	16a8 <_i2c_m_sync_enable+0x3c>
			if (--timeout_attempt)
    16c0:	3901      	subs	r1, #1
    16c2:	d008      	beq.n	16d6 <_i2c_m_sync_enable+0x6a>
}

static inline void hri_sercomi2cm_clear_STATUS_reg(const void *const hw, hri_sercomi2cm_status_reg_t mask)
{
	SERCOM_CRITICAL_SECTION_ENTER();
	((Sercom *)hw)->I2CM.STATUS.reg = mask;
    16c4:	2310      	movs	r3, #16
    16c6:	8363      	strh	r3, [r4, #26]
	while (((Sercom *)hw)->I2CM.SYNCBUSY.reg & reg) {
    16c8:	69e3      	ldr	r3, [r4, #28]
    16ca:	f013 0f04 	tst.w	r3, #4
    16ce:	d1fb      	bne.n	16c8 <_i2c_m_sync_enable+0x5c>
    16d0:	e7e8      	b.n	16a4 <_i2c_m_sync_enable+0x38>
	return ERR_NONE;
    16d2:	2000      	movs	r0, #0
    16d4:	bd70      	pop	{r4, r5, r6, pc}
				return I2C_ERR_BUSY;
    16d6:	f06f 0005 	mvn.w	r0, #5
}
    16da:	bd70      	pop	{r4, r5, r6, pc}
    16dc:	00004e30 	.word	0x00004e30
    16e0:	00000c1d 	.word	0x00000c1d

000016e4 <_i2c_m_sync_transfer>:
{
    16e4:	e92d 41f0 	stmdb	sp!, {r4, r5, r6, r7, r8, lr}
    16e8:	4605      	mov	r5, r0
    16ea:	460e      	mov	r6, r1
	void *   hw = i2c_dev->hw;
    16ec:	6904      	ldr	r4, [r0, #16]
	ASSERT(i2c_dev);
    16ee:	f8df 82a0 	ldr.w	r8, [pc, #672]	; 1990 <_i2c_m_sync_transfer+0x2ac>
    16f2:	f240 52d1 	movw	r2, #1489	; 0x5d1
    16f6:	4641      	mov	r1, r8
    16f8:	3000      	adds	r0, #0
    16fa:	bf18      	it	ne
    16fc:	2001      	movne	r0, #1
    16fe:	4fa2      	ldr	r7, [pc, #648]	; (1988 <_i2c_m_sync_transfer+0x2a4>)
    1700:	47b8      	blx	r7
	ASSERT(i2c_dev->hw);
    1702:	6928      	ldr	r0, [r5, #16]
    1704:	f240 52d2 	movw	r2, #1490	; 0x5d2
    1708:	4641      	mov	r1, r8
    170a:	3000      	adds	r0, #0
    170c:	bf18      	it	ne
    170e:	2001      	movne	r0, #1
    1710:	47b8      	blx	r7
	ASSERT(msg);
    1712:	f240 52d3 	movw	r2, #1491	; 0x5d3
    1716:	4641      	mov	r1, r8
    1718:	1c30      	adds	r0, r6, #0
    171a:	bf18      	it	ne
    171c:	2001      	movne	r0, #1
    171e:	47b8      	blx	r7
	if (i2c_dev->service.msg.flags & I2C_M_BUSY) {
    1720:	886b      	ldrh	r3, [r5, #2]
    1722:	f413 7f80 	tst.w	r3, #256	; 0x100
    1726:	f040 812a 	bne.w	197e <_i2c_m_sync_transfer+0x29a>
	msg->flags |= I2C_M_BUSY;
    172a:	8873      	ldrh	r3, [r6, #2]
    172c:	b29b      	uxth	r3, r3
    172e:	f443 7380 	orr.w	r3, r3, #256	; 0x100
    1732:	8073      	strh	r3, [r6, #2]
	i2c_dev->service.msg = *msg;
    1734:	e896 0007 	ldmia.w	r6, {r0, r1, r2}
    1738:	e885 0007 	stmia.w	r5, {r0, r1, r2}
	((Sercom *)hw)->I2CM.CTRLB.reg |= SERCOM_I2CM_CTRLB_SMEN;
    173c:	6863      	ldr	r3, [r4, #4]
    173e:	f443 7380 	orr.w	r3, r3, #256	; 0x100
    1742:	6063      	str	r3, [r4, #4]
	while (((Sercom *)hw)->I2CM.SYNCBUSY.reg & reg) {
    1744:	69e3      	ldr	r3, [r4, #28]
    1746:	f013 0f04 	tst.w	r3, #4
    174a:	d1fb      	bne.n	1744 <_i2c_m_sync_transfer+0x60>
	ret = _sercom_i2c_sync_send_address(i2c_dev);
    174c:	4628      	mov	r0, r5
    174e:	4b8f      	ldr	r3, [pc, #572]	; (198c <_i2c_m_sync_transfer+0x2a8>)
    1750:	4798      	blx	r3
	if (ret) {
    1752:	4603      	mov	r3, r0
    1754:	2800      	cmp	r0, #0
    1756:	f000 80b0 	beq.w	18ba <_i2c_m_sync_transfer+0x1d6>
		i2c_dev->service.msg.flags &= ~I2C_M_BUSY;
    175a:	886a      	ldrh	r2, [r5, #2]
    175c:	b292      	uxth	r2, r2
    175e:	f422 7280 	bic.w	r2, r2, #256	; 0x100
    1762:	b292      	uxth	r2, r2
    1764:	806a      	strh	r2, [r5, #2]
		return ret;
    1766:	e8bd 81f0 	ldmia.w	sp!, {r4, r5, r6, r7, r8, pc}
			return I2C_ERR_BUS;
    176a:	f06f 0004 	mvn.w	r0, #4
    176e:	e0b7      	b.n	18e0 <_i2c_m_sync_transfer+0x1fc>
			if (msg->flags & I2C_M_STOP) {
    1770:	8873      	ldrh	r3, [r6, #2]
    1772:	f413 4f00 	tst.w	r3, #32768	; 0x8000
    1776:	d107      	bne.n	1788 <_i2c_m_sync_transfer+0xa4>
			i2c_dev->service.msg.flags &= ~I2C_M_BUSY;
    1778:	886b      	ldrh	r3, [r5, #2]
    177a:	b29b      	uxth	r3, r3
    177c:	f423 7380 	bic.w	r3, r3, #256	; 0x100
    1780:	b29b      	uxth	r3, r3
    1782:	806b      	strh	r3, [r5, #2]
			return ret;
    1784:	e8bd 81f0 	ldmia.w	sp!, {r4, r5, r6, r7, r8, pc}
	((Sercom *)hw)->I2CM.CTRLB.reg |= SERCOM_I2CM_CTRLB_CMD(mask);
    1788:	6863      	ldr	r3, [r4, #4]
    178a:	f443 3340 	orr.w	r3, r3, #196608	; 0x30000
    178e:	6063      	str	r3, [r4, #4]
	while (((Sercom *)hw)->I2CM.SYNCBUSY.reg & reg) {
    1790:	69e3      	ldr	r3, [r4, #28]
    1792:	f013 0f04 	tst.w	r3, #4
    1796:	d1fb      	bne.n	1790 <_i2c_m_sync_transfer+0xac>
    1798:	e7ee      	b.n	1778 <_i2c_m_sync_transfer+0x94>
			if (status & SERCOM_I2CM_STATUS_RXNACK) {
    179a:	f013 0f04 	tst.w	r3, #4
    179e:	d11f      	bne.n	17e0 <_i2c_m_sync_transfer+0xfc>
			if (msg->flags & I2C_M_TEN) {
    17a0:	886b      	ldrh	r3, [r5, #2]
    17a2:	f413 6f80 	tst.w	r3, #1024	; 0x400
    17a6:	d039      	beq.n	181c <_i2c_m_sync_transfer+0x138>
				                              ((((msg->addr & TEN_ADDR_MASK) >> 8) | TEN_ADDR_FRAME) << 1) | I2C_M_RD
    17a8:	882b      	ldrh	r3, [r5, #0]
    17aa:	121b      	asrs	r3, r3, #8
    17ac:	005b      	lsls	r3, r3, #1
				                                  | (hri_sercomi2cm_read_ADDR_reg(hw) & SERCOM_I2CM_ADDR_HS));
    17ae:	f003 0206 	and.w	r2, r3, #6
    17b2:	69e3      	ldr	r3, [r4, #28]
    17b4:	f013 0f04 	tst.w	r3, #4
    17b8:	d1fb      	bne.n	17b2 <_i2c_m_sync_transfer+0xce>
	return ((Sercom *)hw)->I2CM.ADDR.reg;
    17ba:	6a63      	ldr	r3, [r4, #36]	; 0x24
    17bc:	f403 4380 	and.w	r3, r3, #16384	; 0x4000
    17c0:	4313      	orrs	r3, r2
				hri_sercomi2cm_write_ADDR_reg(hw,
    17c2:	f043 03f1 	orr.w	r3, r3, #241	; 0xf1
	((Sercom *)hw)->I2CM.ADDR.reg = data;
    17c6:	6263      	str	r3, [r4, #36]	; 0x24
	while (((Sercom *)hw)->I2CM.SYNCBUSY.reg & reg) {
    17c8:	69e3      	ldr	r3, [r4, #28]
    17ca:	f013 0f04 	tst.w	r3, #4
    17ce:	d1fb      	bne.n	17c8 <_i2c_m_sync_transfer+0xe4>
				msg->flags &= ~I2C_M_TEN;
    17d0:	886b      	ldrh	r3, [r5, #2]
    17d2:	b29b      	uxth	r3, r3
    17d4:	f423 6380 	bic.w	r3, r3, #1024	; 0x400
    17d8:	b29b      	uxth	r3, r3
    17da:	806b      	strh	r3, [r5, #2]
				return I2C_OK;
    17dc:	2000      	movs	r0, #0
    17de:	e06b      	b.n	18b8 <_i2c_m_sync_transfer+0x1d4>
				if (msg->len > 0) {
    17e0:	686b      	ldr	r3, [r5, #4]
    17e2:	2b00      	cmp	r3, #0
    17e4:	dd04      	ble.n	17f0 <_i2c_m_sync_transfer+0x10c>
					msg->flags |= I2C_M_FAIL;
    17e6:	886b      	ldrh	r3, [r5, #2]
    17e8:	b29b      	uxth	r3, r3
    17ea:	f443 5380 	orr.w	r3, r3, #4096	; 0x1000
    17ee:	806b      	strh	r3, [r5, #2]
				if (msg->flags & I2C_M_STOP) {
    17f0:	886b      	ldrh	r3, [r5, #2]
    17f2:	f413 4f00 	tst.w	r3, #32768	; 0x8000
    17f6:	d108      	bne.n	180a <_i2c_m_sync_transfer+0x126>
				msg->flags &= ~I2C_M_BUSY;
    17f8:	886b      	ldrh	r3, [r5, #2]
    17fa:	b29b      	uxth	r3, r3
    17fc:	f423 7380 	bic.w	r3, r3, #256	; 0x100
    1800:	b29b      	uxth	r3, r3
    1802:	806b      	strh	r3, [r5, #2]
				return I2C_NACK;
    1804:	f06f 0001 	mvn.w	r0, #1
    1808:	e056      	b.n	18b8 <_i2c_m_sync_transfer+0x1d4>
	((Sercom *)hw)->I2CM.CTRLB.reg |= SERCOM_I2CM_CTRLB_CMD(mask);
    180a:	6863      	ldr	r3, [r4, #4]
    180c:	f443 3340 	orr.w	r3, r3, #196608	; 0x30000
    1810:	6063      	str	r3, [r4, #4]
	while (((Sercom *)hw)->I2CM.SYNCBUSY.reg & reg) {
    1812:	69e3      	ldr	r3, [r4, #28]
    1814:	f013 0f04 	tst.w	r3, #4
    1818:	d1fb      	bne.n	1812 <_i2c_m_sync_transfer+0x12e>
    181a:	e7ed      	b.n	17f8 <_i2c_m_sync_transfer+0x114>
			if (msg->len == 0) {
    181c:	6868      	ldr	r0, [r5, #4]
    181e:	b998      	cbnz	r0, 1848 <_i2c_m_sync_transfer+0x164>
				if (msg->flags & I2C_M_STOP) {
    1820:	886b      	ldrh	r3, [r5, #2]
    1822:	f413 4f00 	tst.w	r3, #32768	; 0x8000
    1826:	d106      	bne.n	1836 <_i2c_m_sync_transfer+0x152>
				msg->flags &= ~I2C_M_BUSY;
    1828:	886b      	ldrh	r3, [r5, #2]
    182a:	b29b      	uxth	r3, r3
    182c:	f423 7380 	bic.w	r3, r3, #256	; 0x100
    1830:	b29b      	uxth	r3, r3
    1832:	806b      	strh	r3, [r5, #2]
    1834:	e040      	b.n	18b8 <_i2c_m_sync_transfer+0x1d4>
	((Sercom *)hw)->I2CM.CTRLB.reg |= SERCOM_I2CM_CTRLB_CMD(mask);
    1836:	6863      	ldr	r3, [r4, #4]
    1838:	f443 3340 	orr.w	r3, r3, #196608	; 0x30000
    183c:	6063      	str	r3, [r4, #4]
	while (((Sercom *)hw)->I2CM.SYNCBUSY.reg & reg) {
    183e:	69e3      	ldr	r3, [r4, #28]
    1840:	f013 0f04 	tst.w	r3, #4
    1844:	d1fb      	bne.n	183e <_i2c_m_sync_transfer+0x15a>
    1846:	e7ef      	b.n	1828 <_i2c_m_sync_transfer+0x144>
				hri_sercomi2cm_write_DATA_reg(hw, *msg->buffer);
    1848:	68ab      	ldr	r3, [r5, #8]
    184a:	781b      	ldrb	r3, [r3, #0]
	((Sercom *)hw)->I2CM.DATA.reg = data;
    184c:	62a3      	str	r3, [r4, #40]	; 0x28
	while (((Sercom *)hw)->I2CM.SYNCBUSY.reg & reg) {
    184e:	69e3      	ldr	r3, [r4, #28]
    1850:	f013 0f04 	tst.w	r3, #4
    1854:	d1fb      	bne.n	184e <_i2c_m_sync_transfer+0x16a>
				msg->buffer++;
    1856:	68ab      	ldr	r3, [r5, #8]
    1858:	3301      	adds	r3, #1
    185a:	60ab      	str	r3, [r5, #8]
				msg->len--;
    185c:	686b      	ldr	r3, [r5, #4]
    185e:	3b01      	subs	r3, #1
    1860:	606b      	str	r3, [r5, #4]
			return I2C_OK;
    1862:	2000      	movs	r0, #0
    1864:	e028      	b.n	18b8 <_i2c_m_sync_transfer+0x1d4>
	} else if (flags & SB_FLAG) {
    1866:	f017 0f02 	tst.w	r7, #2
    186a:	f000 8083 	beq.w	1974 <_i2c_m_sync_transfer+0x290>
		if ((msg->len) && !(status & SERCOM_I2CM_STATUS_RXNACK)) {
    186e:	6869      	ldr	r1, [r5, #4]
    1870:	2900      	cmp	r1, #0
    1872:	d077      	beq.n	1964 <_i2c_m_sync_transfer+0x280>
    1874:	f013 0f04 	tst.w	r3, #4
    1878:	d174      	bne.n	1964 <_i2c_m_sync_transfer+0x280>
			msg->len--;
    187a:	3901      	subs	r1, #1
    187c:	6069      	str	r1, [r5, #4]
			if ((msg->len == 0 && !sclsm) || (msg->len == 1 && sclsm)) {
    187e:	b909      	cbnz	r1, 1884 <_i2c_m_sync_transfer+0x1a0>
    1880:	2a00      	cmp	r2, #0
    1882:	d055      	beq.n	1930 <_i2c_m_sync_transfer+0x24c>
    1884:	2901      	cmp	r1, #1
    1886:	d051      	beq.n	192c <_i2c_m_sync_transfer+0x248>
			if (msg->len == 0) {
    1888:	686b      	ldr	r3, [r5, #4]
    188a:	b94b      	cbnz	r3, 18a0 <_i2c_m_sync_transfer+0x1bc>
				if (msg->flags & I2C_M_STOP) {
    188c:	886b      	ldrh	r3, [r5, #2]
    188e:	f413 4f00 	tst.w	r3, #32768	; 0x8000
    1892:	d156      	bne.n	1942 <_i2c_m_sync_transfer+0x25e>
				msg->flags &= ~I2C_M_BUSY;
    1894:	886b      	ldrh	r3, [r5, #2]
    1896:	b29b      	uxth	r3, r3
    1898:	f423 7380 	bic.w	r3, r3, #256	; 0x100
    189c:	b29b      	uxth	r3, r3
    189e:	806b      	strh	r3, [r5, #2]
			*msg->buffer++ = hri_sercomi2cm_read_DATA_reg(hw);
    18a0:	68aa      	ldr	r2, [r5, #8]
    18a2:	1c53      	adds	r3, r2, #1
    18a4:	60ab      	str	r3, [r5, #8]
    18a6:	69e3      	ldr	r3, [r4, #28]
    18a8:	f013 0f04 	tst.w	r3, #4
    18ac:	d1fb      	bne.n	18a6 <_i2c_m_sync_transfer+0x1c2>
	return ((Sercom *)hw)->I2CM.DATA.reg;
    18ae:	6aa3      	ldr	r3, [r4, #40]	; 0x28
    18b0:	7013      	strb	r3, [r2, #0]
	((Sercom *)hw)->I2CM.INTFLAG.reg = SERCOM_I2CM_INTFLAG_SB;
    18b2:	2302      	movs	r3, #2
    18b4:	7623      	strb	r3, [r4, #24]
	return I2C_OK;
    18b6:	2000      	movs	r0, #0
		ret = _sercom_i2c_sync_analyse_flags(hw, flags, &i2c_dev->service.msg);
    18b8:	4603      	mov	r3, r0
	while (i2c_dev->service.msg.flags & I2C_M_BUSY) {
    18ba:	886a      	ldrh	r2, [r5, #2]
    18bc:	f412 7f80 	tst.w	r2, #256	; 0x100
    18c0:	d05a      	beq.n	1978 <_i2c_m_sync_transfer+0x294>
	void *   hw      = i2c_dev->hw;
    18c2:	6928      	ldr	r0, [r5, #16]
	uint32_t timeout = 65535;
    18c4:	f64f 72ff 	movw	r2, #65535	; 0xffff
	return ((Sercom *)hw)->I2CM.INTFLAG.reg;
    18c8:	7e03      	ldrb	r3, [r0, #24]
    18ca:	b2db      	uxtb	r3, r3
		*flags = hri_sercomi2cm_read_INTFLAG_reg(hw);
    18cc:	461f      	mov	r7, r3
		if (timeout-- == 0) {
    18ce:	1e51      	subs	r1, r2, #1
    18d0:	2a00      	cmp	r2, #0
    18d2:	f43f af4a 	beq.w	176a <_i2c_m_sync_transfer+0x86>
    18d6:	460a      	mov	r2, r1
	} while (!(*flags & MB_FLAG) && !(*flags & SB_FLAG));
    18d8:	f013 0f03 	tst.w	r3, #3
    18dc:	d0f4      	beq.n	18c8 <_i2c_m_sync_transfer+0x1e4>
	return I2C_OK;
    18de:	2000      	movs	r0, #0
		if (ret) {
    18e0:	2800      	cmp	r0, #0
    18e2:	f47f af45 	bne.w	1770 <_i2c_m_sync_transfer+0x8c>
	tmp = ((Sercom *)hw)->I2CM.CTRLA.reg;
    18e6:	6822      	ldr	r2, [r4, #0]
	tmp = (tmp & SERCOM_I2CM_CTRLA_SCLSM) >> SERCOM_I2CM_CTRLA_SCLSM_Pos;
    18e8:	f3c2 62c0 	ubfx	r2, r2, #27, #1
	while (((Sercom *)hw)->I2CM.SYNCBUSY.reg & reg) {
    18ec:	69e3      	ldr	r3, [r4, #28]
    18ee:	f013 0f04 	tst.w	r3, #4
    18f2:	d1fb      	bne.n	18ec <_i2c_m_sync_transfer+0x208>
	return ((Sercom *)hw)->I2CM.STATUS.reg;
    18f4:	8b63      	ldrh	r3, [r4, #26]
    18f6:	b29b      	uxth	r3, r3
	if (flags & MB_FLAG) {
    18f8:	f017 0f01 	tst.w	r7, #1
    18fc:	d0b3      	beq.n	1866 <_i2c_m_sync_transfer+0x182>
		if (status & SERCOM_I2CM_STATUS_ARBLOST) {
    18fe:	f013 0f02 	tst.w	r3, #2
    1902:	f43f af4a 	beq.w	179a <_i2c_m_sync_transfer+0xb6>
	((Sercom *)hw)->I2CM.INTFLAG.reg = SERCOM_I2CM_INTFLAG_MB;
    1906:	2201      	movs	r2, #1
    1908:	7622      	strb	r2, [r4, #24]
			msg->flags |= I2C_M_FAIL;
    190a:	886a      	ldrh	r2, [r5, #2]
    190c:	b292      	uxth	r2, r2
    190e:	f442 5280 	orr.w	r2, r2, #4096	; 0x1000
    1912:	806a      	strh	r2, [r5, #2]
			msg->flags &= ~I2C_M_BUSY;
    1914:	886a      	ldrh	r2, [r5, #2]
    1916:	b292      	uxth	r2, r2
    1918:	f422 7280 	bic.w	r2, r2, #256	; 0x100
    191c:	b292      	uxth	r2, r2
    191e:	806a      	strh	r2, [r5, #2]
			if (status & SERCOM_I2CM_STATUS_BUSERR) {
    1920:	f013 0f01 	tst.w	r3, #1
    1924:	d023      	beq.n	196e <_i2c_m_sync_transfer+0x28a>
				return I2C_ERR_BUS;
    1926:	f06f 0004 	mvn.w	r0, #4
    192a:	e7c5      	b.n	18b8 <_i2c_m_sync_transfer+0x1d4>
			if ((msg->len == 0 && !sclsm) || (msg->len == 1 && sclsm)) {
    192c:	2a00      	cmp	r2, #0
    192e:	d0ab      	beq.n	1888 <_i2c_m_sync_transfer+0x1a4>
	((Sercom *)hw)->I2CM.CTRLB.reg |= SERCOM_I2CM_CTRLB_ACKACT;
    1930:	6863      	ldr	r3, [r4, #4]
    1932:	f443 2380 	orr.w	r3, r3, #262144	; 0x40000
    1936:	6063      	str	r3, [r4, #4]
	while (((Sercom *)hw)->I2CM.SYNCBUSY.reg & reg) {
    1938:	69e3      	ldr	r3, [r4, #28]
    193a:	f013 0f04 	tst.w	r3, #4
    193e:	d1fb      	bne.n	1938 <_i2c_m_sync_transfer+0x254>
    1940:	e7a2      	b.n	1888 <_i2c_m_sync_transfer+0x1a4>
	((Sercom *)hw)->I2CM.CTRLB.reg &= ~SERCOM_I2CM_CTRLB_SMEN;
    1942:	6863      	ldr	r3, [r4, #4]
    1944:	f423 7380 	bic.w	r3, r3, #256	; 0x100
    1948:	6063      	str	r3, [r4, #4]
	while (((Sercom *)hw)->I2CM.SYNCBUSY.reg & reg) {
    194a:	69e3      	ldr	r3, [r4, #28]
    194c:	f013 0f04 	tst.w	r3, #4
    1950:	d1fb      	bne.n	194a <_i2c_m_sync_transfer+0x266>
	((Sercom *)hw)->I2CM.CTRLB.reg |= SERCOM_I2CM_CTRLB_CMD(mask);
    1952:	6863      	ldr	r3, [r4, #4]
    1954:	f443 3340 	orr.w	r3, r3, #196608	; 0x30000
    1958:	6063      	str	r3, [r4, #4]
	while (((Sercom *)hw)->I2CM.SYNCBUSY.reg & reg) {
    195a:	69e3      	ldr	r3, [r4, #28]
    195c:	f013 0f04 	tst.w	r3, #4
    1960:	d1fb      	bne.n	195a <_i2c_m_sync_transfer+0x276>
    1962:	e797      	b.n	1894 <_i2c_m_sync_transfer+0x1b0>
	((Sercom *)hw)->I2CM.INTFLAG.reg = SERCOM_I2CM_INTFLAG_SB;
    1964:	2302      	movs	r3, #2
    1966:	7623      	strb	r3, [r4, #24]
			return I2C_NACK;
    1968:	f06f 0001 	mvn.w	r0, #1
    196c:	e7a4      	b.n	18b8 <_i2c_m_sync_transfer+0x1d4>
			return I2C_ERR_BAD_ADDRESS;
    196e:	f06f 0003 	mvn.w	r0, #3
    1972:	e7a1      	b.n	18b8 <_i2c_m_sync_transfer+0x1d4>
	return I2C_OK;
    1974:	2000      	movs	r0, #0
    1976:	e79f      	b.n	18b8 <_i2c_m_sync_transfer+0x1d4>
	return ret;
    1978:	4618      	mov	r0, r3
    197a:	e8bd 81f0 	ldmia.w	sp!, {r4, r5, r6, r7, r8, pc}
		return I2C_ERR_BUSY;
    197e:	f06f 0005 	mvn.w	r0, #5
}
    1982:	e8bd 81f0 	ldmia.w	sp!, {r4, r5, r6, r7, r8, pc}
    1986:	bf00      	nop
    1988:	00000c1d 	.word	0x00000c1d
    198c:	00001355 	.word	0x00001355
    1990:	00004e30 	.word	0x00004e30

00001994 <_spi_m_dma_init>:
	}
}

int32_t _spi_m_dma_init(struct _spi_m_dma_dev *dev, void *const hw)
{
    1994:	b570      	push	{r4, r5, r6, lr}
    1996:	4605      	mov	r5, r0
    1998:	460c      	mov	r4, r1
	uint8_t n = _sercom_get_hardware_index((const void *)hw_addr);
    199a:	4608      	mov	r0, r1
    199c:	4b50      	ldr	r3, [pc, #320]	; (1ae0 <_spi_m_dma_init+0x14c>)
    199e:	4798      	blx	r3
	for (i = 0; i < sizeof(sercomspi_regs) / sizeof(struct sercomspi_regs_cfg); i++) {
    19a0:	2300      	movs	r3, #0
    19a2:	2b00      	cmp	r3, #0
    19a4:	d072      	beq.n	1a8c <_spi_m_dma_init+0xf8>
	return NULL;
    19a6:	2600      	movs	r6, #0
	const struct sercomspi_regs_cfg *regs = _spi_get_regs((uint32_t)hw);

	ASSERT(dev && hw);
    19a8:	2d00      	cmp	r5, #0
    19aa:	d07b      	beq.n	1aa4 <_spi_m_dma_init+0x110>
    19ac:	2c00      	cmp	r4, #0
    19ae:	d077      	beq.n	1aa0 <_spi_m_dma_init+0x10c>
    19b0:	2001      	movs	r0, #1
    19b2:	f640 42b3 	movw	r2, #3251	; 0xcb3
    19b6:	494b      	ldr	r1, [pc, #300]	; (1ae4 <_spi_m_dma_init+0x150>)
    19b8:	4b4b      	ldr	r3, [pc, #300]	; (1ae8 <_spi_m_dma_init+0x154>)
    19ba:	4798      	blx	r3

	if (regs == NULL) {
    19bc:	2e00      	cmp	r6, #0
    19be:	f000 808b 	beq.w	1ad8 <_spi_m_dma_init+0x144>
	return ((Sercom *)hw)->SPI.SYNCBUSY.reg & reg;
    19c2:	69e3      	ldr	r3, [r4, #28]
		return ERR_INVALID_ARG;
	}

	if (!hri_sercomspi_is_syncing(hw, SERCOM_SPI_SYNCBUSY_SWRST)) {
    19c4:	f013 0f01 	tst.w	r3, #1
    19c8:	d11d      	bne.n	1a06 <_spi_m_dma_init+0x72>
		uint32_t mode = regs->ctrla & SERCOM_SPI_CTRLA_MODE_Msk;
    19ca:	6833      	ldr	r3, [r6, #0]
    19cc:	f003 021c 	and.w	r2, r3, #28
	while (((Sercom *)hw)->SPI.SYNCBUSY.reg & reg) {
    19d0:	69e3      	ldr	r3, [r4, #28]
    19d2:	f013 0f03 	tst.w	r3, #3
    19d6:	d1fb      	bne.n	19d0 <_spi_m_dma_init+0x3c>
	tmp = ((Sercom *)hw)->SPI.CTRLA.reg;
    19d8:	6823      	ldr	r3, [r4, #0]
		if (hri_sercomspi_get_CTRLA_reg(hw, SERCOM_SPI_CTRLA_ENABLE)) {
    19da:	f013 0f02 	tst.w	r3, #2
    19de:	d00b      	beq.n	19f8 <_spi_m_dma_init+0x64>
	((Sercom *)hw)->SPI.CTRLA.reg &= ~SERCOM_SPI_CTRLA_ENABLE;
    19e0:	6823      	ldr	r3, [r4, #0]
    19e2:	f023 0302 	bic.w	r3, r3, #2
    19e6:	6023      	str	r3, [r4, #0]
	while (((Sercom *)hw)->SPI.SYNCBUSY.reg & reg) {
    19e8:	69e3      	ldr	r3, [r4, #28]
    19ea:	f013 0f03 	tst.w	r3, #3
    19ee:	d1fb      	bne.n	19e8 <_spi_m_dma_init+0x54>
    19f0:	69e3      	ldr	r3, [r4, #28]
    19f2:	f013 0f02 	tst.w	r3, #2
    19f6:	d1fb      	bne.n	19f0 <_spi_m_dma_init+0x5c>
			hri_sercomspi_clear_CTRLA_ENABLE_bit(hw);
			hri_sercomspi_wait_for_sync(hw, SERCOM_SPI_SYNCBUSY_ENABLE);
		}
		hri_sercomspi_write_CTRLA_reg(hw, SERCOM_SPI_CTRLA_SWRST | mode);
    19f8:	f042 0201 	orr.w	r2, r2, #1
	((Sercom *)hw)->SPI.CTRLA.reg = data;
    19fc:	6022      	str	r2, [r4, #0]
	while (((Sercom *)hw)->SPI.SYNCBUSY.reg & reg) {
    19fe:	69e3      	ldr	r3, [r4, #28]
    1a00:	f013 0f03 	tst.w	r3, #3
    1a04:	d1fb      	bne.n	19fe <_spi_m_dma_init+0x6a>
    1a06:	69e3      	ldr	r3, [r4, #28]
    1a08:	f013 0f01 	tst.w	r3, #1
    1a0c:	d1fb      	bne.n	1a06 <_spi_m_dma_init+0x72>
	}
	hri_sercomspi_wait_for_sync(hw, SERCOM_SPI_SYNCBUSY_SWRST);

	dev->prvt = hw;
    1a0e:	602c      	str	r4, [r5, #0]
	ASSERT(hw && regs);
    1a10:	2c00      	cmp	r4, #0
    1a12:	d04b      	beq.n	1aac <_spi_m_dma_init+0x118>
    1a14:	2e00      	cmp	r6, #0
    1a16:	d047      	beq.n	1aa8 <_spi_m_dma_init+0x114>
    1a18:	2001      	movs	r0, #1
    1a1a:	f640 120a 	movw	r2, #2314	; 0x90a
    1a1e:	4931      	ldr	r1, [pc, #196]	; (1ae4 <_spi_m_dma_init+0x150>)
    1a20:	4b31      	ldr	r3, [pc, #196]	; (1ae8 <_spi_m_dma_init+0x154>)
    1a22:	4798      	blx	r3
	    hw, regs->ctrla & ~(SERCOM_SPI_CTRLA_IBON | SERCOM_SPI_CTRLA_ENABLE | SERCOM_SPI_CTRLA_SWRST));
    1a24:	6833      	ldr	r3, [r6, #0]
	hri_sercomspi_write_CTRLA_reg(
    1a26:	f423 7381 	bic.w	r3, r3, #258	; 0x102
    1a2a:	f023 0301 	bic.w	r3, r3, #1
	((Sercom *)hw)->SPI.CTRLA.reg = data;
    1a2e:	6023      	str	r3, [r4, #0]
	while (((Sercom *)hw)->SPI.SYNCBUSY.reg & reg) {
    1a30:	69e3      	ldr	r3, [r4, #28]
    1a32:	f013 0f03 	tst.w	r3, #3
    1a36:	d1fb      	bne.n	1a30 <_spi_m_dma_init+0x9c>
	    (regs->ctrlb
    1a38:	6873      	ldr	r3, [r6, #4]
	        | (SERCOM_SPI_CTRLB_RXEN));
    1a3a:	f423 3338 	bic.w	r3, r3, #188416	; 0x2e000
    1a3e:	f423 7310 	bic.w	r3, r3, #576	; 0x240
	hri_sercomspi_write_CTRLB_reg(
    1a42:	f443 3300 	orr.w	r3, r3, #131072	; 0x20000
	((Sercom *)hw)->SPI.CTRLB.reg = data;
    1a46:	6063      	str	r3, [r4, #4]
	while (((Sercom *)hw)->SPI.SYNCBUSY.reg & reg) {
    1a48:	69e3      	ldr	r3, [r4, #28]
    1a4a:	f013 0f17 	tst.w	r3, #23
    1a4e:	d1fb      	bne.n	1a48 <_spi_m_dma_init+0xb4>
	hri_sercomspi_write_BAUD_reg(hw, regs->baud);
    1a50:	7b33      	ldrb	r3, [r6, #12]
	((Sercom *)hw)->SPI.BAUD.reg = data;
    1a52:	7323      	strb	r3, [r4, #12]
	hri_sercomspi_write_DBGCTRL_reg(hw, regs->dbgctrl);
    1a54:	7b73      	ldrb	r3, [r6, #13]
	((Sercom *)hw)->SPI.DBGCTRL.reg = data;
    1a56:	f884 3030 	strb.w	r3, [r4, #48]	; 0x30

	_spi_load_regs_master(hw, regs);

	/* If enabled, initialize DMA rx channel */
	if (_spi_is_rx_dma_channel_enabled(hw)) {
    1a5a:	4620      	mov	r0, r4
    1a5c:	4b23      	ldr	r3, [pc, #140]	; (1aec <_spi_m_dma_init+0x158>)
    1a5e:	4798      	blx	r3
    1a60:	bb30      	cbnz	r0, 1ab0 <_spi_m_dma_init+0x11c>
		dev->resource->dma_cb.error         = _spi_dma_error_occured;
		dev->resource->dma_cb.suspend_done  = _spi_dma_suspend_complete;
		
	}
	/* Initialize DMA tx channel */
	_dma_get_channel_resource(&dev->resource, _spi_get_tx_dma_channel(hw));
    1a62:	4620      	mov	r0, r4
    1a64:	4b22      	ldr	r3, [pc, #136]	; (1af0 <_spi_m_dma_init+0x15c>)
    1a66:	4798      	blx	r3
    1a68:	4601      	mov	r1, r0
    1a6a:	f105 001c 	add.w	r0, r5, #28
    1a6e:	4b21      	ldr	r3, [pc, #132]	; (1af4 <_spi_m_dma_init+0x160>)
    1a70:	4798      	blx	r3
	dev->resource->back                 = dev;
    1a72:	69eb      	ldr	r3, [r5, #28]
    1a74:	60dd      	str	r5, [r3, #12]
	dev->resource->dma_cb.transfer_done = _spi_dma_tx_complete;
    1a76:	69eb      	ldr	r3, [r5, #28]
    1a78:	4a1f      	ldr	r2, [pc, #124]	; (1af8 <_spi_m_dma_init+0x164>)
    1a7a:	601a      	str	r2, [r3, #0]
	dev->resource->dma_cb.error         = _spi_dma_error_occured;
    1a7c:	69eb      	ldr	r3, [r5, #28]
    1a7e:	4a1f      	ldr	r2, [pc, #124]	; (1afc <_spi_m_dma_init+0x168>)
    1a80:	605a      	str	r2, [r3, #4]
	dev->resource->dma_cb.suspend_done  = _spi_dma_suspend_complete;
    1a82:	69eb      	ldr	r3, [r5, #28]
    1a84:	4a1e      	ldr	r2, [pc, #120]	; (1b00 <_spi_m_dma_init+0x16c>)
    1a86:	609a      	str	r2, [r3, #8]

	return ERR_NONE;
    1a88:	2000      	movs	r0, #0
    1a8a:	bd70      	pop	{r4, r5, r6, pc}
		if (sercomspi_regs[i].n == n) {
    1a8c:	2805      	cmp	r0, #5
    1a8e:	d002      	beq.n	1a96 <_spi_m_dma_init+0x102>
	for (i = 0; i < sizeof(sercomspi_regs) / sizeof(struct sercomspi_regs_cfg); i++) {
    1a90:	3301      	adds	r3, #1
    1a92:	b2db      	uxtb	r3, r3
    1a94:	e785      	b.n	19a2 <_spi_m_dma_init+0xe>
			return &sercomspi_regs[i];
    1a96:	eb03 1603 	add.w	r6, r3, r3, lsl #4
    1a9a:	4b1a      	ldr	r3, [pc, #104]	; (1b04 <_spi_m_dma_init+0x170>)
    1a9c:	441e      	add	r6, r3
    1a9e:	e783      	b.n	19a8 <_spi_m_dma_init+0x14>
	ASSERT(dev && hw);
    1aa0:	2000      	movs	r0, #0
    1aa2:	e786      	b.n	19b2 <_spi_m_dma_init+0x1e>
    1aa4:	2000      	movs	r0, #0
    1aa6:	e784      	b.n	19b2 <_spi_m_dma_init+0x1e>
	ASSERT(hw && regs);
    1aa8:	2000      	movs	r0, #0
    1aaa:	e7b6      	b.n	1a1a <_spi_m_dma_init+0x86>
    1aac:	2000      	movs	r0, #0
    1aae:	e7b4      	b.n	1a1a <_spi_m_dma_init+0x86>
		_dma_get_channel_resource(&dev->resource, _spi_get_rx_dma_channel(hw));
    1ab0:	4620      	mov	r0, r4
    1ab2:	4b15      	ldr	r3, [pc, #84]	; (1b08 <_spi_m_dma_init+0x174>)
    1ab4:	4798      	blx	r3
    1ab6:	4601      	mov	r1, r0
    1ab8:	f105 001c 	add.w	r0, r5, #28
    1abc:	4b0d      	ldr	r3, [pc, #52]	; (1af4 <_spi_m_dma_init+0x160>)
    1abe:	4798      	blx	r3
		dev->resource->back                 = dev;
    1ac0:	69eb      	ldr	r3, [r5, #28]
    1ac2:	60dd      	str	r5, [r3, #12]
		dev->resource->dma_cb.transfer_done = _spi_dma_rx_complete;
    1ac4:	69eb      	ldr	r3, [r5, #28]
    1ac6:	4a11      	ldr	r2, [pc, #68]	; (1b0c <_spi_m_dma_init+0x178>)
    1ac8:	601a      	str	r2, [r3, #0]
		dev->resource->dma_cb.error         = _spi_dma_error_occured;
    1aca:	69eb      	ldr	r3, [r5, #28]
    1acc:	4a0b      	ldr	r2, [pc, #44]	; (1afc <_spi_m_dma_init+0x168>)
    1ace:	605a      	str	r2, [r3, #4]
		dev->resource->dma_cb.suspend_done  = _spi_dma_suspend_complete;
    1ad0:	69eb      	ldr	r3, [r5, #28]
    1ad2:	4a0b      	ldr	r2, [pc, #44]	; (1b00 <_spi_m_dma_init+0x16c>)
    1ad4:	609a      	str	r2, [r3, #8]
    1ad6:	e7c4      	b.n	1a62 <_spi_m_dma_init+0xce>
		return ERR_INVALID_ARG;
    1ad8:	f06f 000c 	mvn.w	r0, #12
}
    1adc:	bd70      	pop	{r4, r5, r6, pc}
    1ade:	bf00      	nop
    1ae0:	000010f9 	.word	0x000010f9
    1ae4:	00004e30 	.word	0x00004e30
    1ae8:	00000c1d 	.word	0x00000c1d
    1aec:	000011c1 	.word	0x000011c1
    1af0:	000011a9 	.word	0x000011a9
    1af4:	00000f99 	.word	0x00000f99
    1af8:	00001215 	.word	0x00001215
    1afc:	00001221 	.word	0x00001221
    1b00:	00001209 	.word	0x00001209
    1b04:	00004e1c 	.word	0x00004e1c
    1b08:	000011d9 	.word	0x000011d9
    1b0c:	000011fd 	.word	0x000011fd

00001b10 <_spi_m_dma_enable>:
{
	return _spi_deinit(dev->prvt);
}

int32_t _spi_m_dma_enable(struct _spi_m_dma_dev *dev)
{
    1b10:	b510      	push	{r4, lr}
	ASSERT(dev && dev->prvt);
    1b12:	4604      	mov	r4, r0
    1b14:	b168      	cbz	r0, 1b32 <_spi_m_dma_enable+0x22>
    1b16:	6803      	ldr	r3, [r0, #0]
    1b18:	b14b      	cbz	r3, 1b2e <_spi_m_dma_enable+0x1e>
    1b1a:	2001      	movs	r0, #1
    1b1c:	f640 42e1 	movw	r2, #3297	; 0xce1
    1b20:	4905      	ldr	r1, [pc, #20]	; (1b38 <_spi_m_dma_enable+0x28>)
    1b22:	4b06      	ldr	r3, [pc, #24]	; (1b3c <_spi_m_dma_enable+0x2c>)
    1b24:	4798      	blx	r3

	return _spi_sync_enable(dev->prvt);
    1b26:	6820      	ldr	r0, [r4, #0]
    1b28:	4b05      	ldr	r3, [pc, #20]	; (1b40 <_spi_m_dma_enable+0x30>)
    1b2a:	4798      	blx	r3
}
    1b2c:	bd10      	pop	{r4, pc}
	ASSERT(dev && dev->prvt);
    1b2e:	2000      	movs	r0, #0
    1b30:	e7f4      	b.n	1b1c <_spi_m_dma_enable+0xc>
    1b32:	2000      	movs	r0, #0
    1b34:	e7f2      	b.n	1b1c <_spi_m_dma_enable+0xc>
    1b36:	bf00      	nop
    1b38:	00004e30 	.word	0x00004e30
    1b3c:	00000c1d 	.word	0x00000c1d
    1b40:	00001139 	.word	0x00001139

00001b44 <_spi_m_dma_register_callback>:

	return size;
}

void _spi_m_dma_register_callback(struct _spi_m_dma_dev *dev, enum _spi_dma_dev_cb_type type, _spi_dma_cb_t func)
{
    1b44:	b570      	push	{r4, r5, r6, lr}
    1b46:	4605      	mov	r5, r0
    1b48:	4614      	mov	r4, r2
	switch (type) {
    1b4a:	2903      	cmp	r1, #3
    1b4c:	d835      	bhi.n	1bba <_spi_m_dma_register_callback+0x76>
    1b4e:	e8df f001 	tbb	[pc, r1]
    1b52:	0d02      	.short	0x0d02
    1b54:	182a      	.short	0x182a
	case SPI_DEV_CB_DMA_TX:
		dev->callbacks.tx = func;
    1b56:	606a      	str	r2, [r5, #4]
		_dma_set_irq_state(_spi_get_tx_dma_channel(dev->prvt), DMA_TRANSFER_COMPLETE_CB, func != NULL);
    1b58:	6800      	ldr	r0, [r0, #0]
    1b5a:	4b18      	ldr	r3, [pc, #96]	; (1bbc <_spi_m_dma_register_callback+0x78>)
    1b5c:	4798      	blx	r3
    1b5e:	1c22      	adds	r2, r4, #0
    1b60:	bf18      	it	ne
    1b62:	2201      	movne	r2, #1
    1b64:	2100      	movs	r1, #0
    1b66:	4b16      	ldr	r3, [pc, #88]	; (1bc0 <_spi_m_dma_register_callback+0x7c>)
    1b68:	4798      	blx	r3
		break;
    1b6a:	bd70      	pop	{r4, r5, r6, pc}
	case SPI_DEV_CB_DMA_RX:
		dev->callbacks.rx = func;
    1b6c:	60aa      	str	r2, [r5, #8]
		_dma_set_irq_state(_spi_get_rx_dma_channel(dev->prvt), DMA_TRANSFER_COMPLETE_CB, func != NULL);
    1b6e:	6800      	ldr	r0, [r0, #0]
    1b70:	4b14      	ldr	r3, [pc, #80]	; (1bc4 <_spi_m_dma_register_callback+0x80>)
    1b72:	4798      	blx	r3
    1b74:	1c22      	adds	r2, r4, #0
    1b76:	bf18      	it	ne
    1b78:	2201      	movne	r2, #1
    1b7a:	2100      	movs	r1, #0
    1b7c:	4b10      	ldr	r3, [pc, #64]	; (1bc0 <_spi_m_dma_register_callback+0x7c>)
    1b7e:	4798      	blx	r3
		break;
    1b80:	bd70      	pop	{r4, r5, r6, pc}
	case SPI_DEV_CB_DMA_ERROR:
		dev->callbacks.error = func;
    1b82:	612a      	str	r2, [r5, #16]
		_dma_set_irq_state(_spi_get_rx_dma_channel(dev->prvt), DMA_TRANSFER_ERROR_CB, func != NULL);
    1b84:	6800      	ldr	r0, [r0, #0]
    1b86:	4b0f      	ldr	r3, [pc, #60]	; (1bc4 <_spi_m_dma_register_callback+0x80>)
    1b88:	4798      	blx	r3
    1b8a:	3400      	adds	r4, #0
    1b8c:	bf18      	it	ne
    1b8e:	2401      	movne	r4, #1
    1b90:	4622      	mov	r2, r4
    1b92:	2101      	movs	r1, #1
    1b94:	4e0a      	ldr	r6, [pc, #40]	; (1bc0 <_spi_m_dma_register_callback+0x7c>)
    1b96:	47b0      	blx	r6
		_dma_set_irq_state(_spi_get_tx_dma_channel(dev->prvt), DMA_TRANSFER_ERROR_CB, func != NULL);
    1b98:	6828      	ldr	r0, [r5, #0]
    1b9a:	4b08      	ldr	r3, [pc, #32]	; (1bbc <_spi_m_dma_register_callback+0x78>)
    1b9c:	4798      	blx	r3
    1b9e:	4622      	mov	r2, r4
    1ba0:	2101      	movs	r1, #1
    1ba2:	47b0      	blx	r6
		break;
    1ba4:	bd70      	pop	{r4, r5, r6, pc}
	case SPI_DEV_CB_DMA_SUSPEND:
		dev->callbacks.sus = func;
    1ba6:	60ea      	str	r2, [r5, #12]
		_dma_set_irq_state(_spi_get_rx_dma_channel(dev->prvt), DMA_TRANSFER_SUSPEND_CB, func != NULL);
    1ba8:	6800      	ldr	r0, [r0, #0]
    1baa:	4b06      	ldr	r3, [pc, #24]	; (1bc4 <_spi_m_dma_register_callback+0x80>)
    1bac:	4798      	blx	r3
    1bae:	1c22      	adds	r2, r4, #0
    1bb0:	bf18      	it	ne
    1bb2:	2201      	movne	r2, #1
    1bb4:	2102      	movs	r1, #2
    1bb6:	4b02      	ldr	r3, [pc, #8]	; (1bc0 <_spi_m_dma_register_callback+0x7c>)
    1bb8:	4798      	blx	r3
    1bba:	bd70      	pop	{r4, r5, r6, pc}
    1bbc:	000011a9 	.word	0x000011a9
    1bc0:	00000e4d 	.word	0x00000e4d
    1bc4:	000011d9 	.word	0x000011d9

00001bc8 <_spi_m_dma_transfer>:
	}
}

int32_t _spi_m_dma_transfer(struct _spi_m_dma_dev *dev, uint8_t const *txbuf, uint8_t *const rxbuf,
                            const uint16_t length)
{
    1bc8:	e92d 47f0 	stmdb	sp!, {r4, r5, r6, r7, r8, r9, sl, lr}
    1bcc:	4605      	mov	r5, r0
    1bce:	4689      	mov	r9, r1
    1bd0:	4690      	mov	r8, r2
    1bd2:	461f      	mov	r7, r3
	const struct sercomspi_regs_cfg *regs  = _spi_get_regs((uint32_t)dev->prvt);
    1bd4:	6804      	ldr	r4, [r0, #0]
	uint8_t n = _sercom_get_hardware_index((const void *)hw_addr);
    1bd6:	4620      	mov	r0, r4
    1bd8:	4b33      	ldr	r3, [pc, #204]	; (1ca8 <_spi_m_dma_transfer+0xe0>)
    1bda:	4798      	blx	r3
	for (i = 0; i < sizeof(sercomspi_regs) / sizeof(struct sercomspi_regs_cfg); i++) {
    1bdc:	2300      	movs	r3, #0
    1bde:	2b00      	cmp	r3, #0
    1be0:	d03f      	beq.n	1c62 <_spi_m_dma_transfer+0x9a>
	return NULL;
    1be2:	f04f 0a00 	mov.w	sl, #0
	uint8_t                          rx_ch = _spi_get_rx_dma_channel(dev->prvt);
    1be6:	4620      	mov	r0, r4
    1be8:	4b30      	ldr	r3, [pc, #192]	; (1cac <_spi_m_dma_transfer+0xe4>)
    1bea:	4798      	blx	r3
    1bec:	4606      	mov	r6, r0
	uint8_t                          tx_ch = _spi_get_tx_dma_channel(dev->prvt);
    1bee:	4620      	mov	r0, r4
    1bf0:	4b2f      	ldr	r3, [pc, #188]	; (1cb0 <_spi_m_dma_transfer+0xe8>)
    1bf2:	4798      	blx	r3
    1bf4:	4604      	mov	r4, r0

	if (rxbuf) {
    1bf6:	f1b8 0f00 	cmp.w	r8, #0
    1bfa:	d03c      	beq.n	1c76 <_spi_m_dma_transfer+0xae>
		/* Enable spi rx */
		_spi_m_dma_rx_enable(dev);
    1bfc:	4628      	mov	r0, r5
    1bfe:	4b2d      	ldr	r3, [pc, #180]	; (1cb4 <_spi_m_dma_transfer+0xec>)
    1c00:	4798      	blx	r3
		_dma_set_source_address(rx_ch, (void *)_spi_m_get_source_for_dma(dev->prvt));
    1c02:	6828      	ldr	r0, [r5, #0]
    1c04:	4b2c      	ldr	r3, [pc, #176]	; (1cb8 <_spi_m_dma_transfer+0xf0>)
    1c06:	4798      	blx	r3
    1c08:	4601      	mov	r1, r0
    1c0a:	4630      	mov	r0, r6
    1c0c:	4b2b      	ldr	r3, [pc, #172]	; (1cbc <_spi_m_dma_transfer+0xf4>)
    1c0e:	4798      	blx	r3
		_dma_set_destination_address(rx_ch, rxbuf);
    1c10:	4641      	mov	r1, r8
    1c12:	4630      	mov	r0, r6
    1c14:	4b2a      	ldr	r3, [pc, #168]	; (1cc0 <_spi_m_dma_transfer+0xf8>)
    1c16:	4798      	blx	r3
		_dma_set_data_amount(rx_ch, length);
    1c18:	4639      	mov	r1, r7
    1c1a:	4630      	mov	r0, r6
    1c1c:	4b29      	ldr	r3, [pc, #164]	; (1cc4 <_spi_m_dma_transfer+0xfc>)
    1c1e:	4798      	blx	r3
		_dma_enable_transaction(rx_ch, false);
    1c20:	2100      	movs	r1, #0
    1c22:	4630      	mov	r0, r6
    1c24:	4b28      	ldr	r3, [pc, #160]	; (1cc8 <_spi_m_dma_transfer+0x100>)
    1c26:	4798      	blx	r3
	} else {
		/* Disable spi rx */
		_spi_m_dma_rx_disable(dev);
	}

	if (txbuf) {
    1c28:	f1b9 0f00 	cmp.w	r9, #0
    1c2c:	d027      	beq.n	1c7e <_spi_m_dma_transfer+0xb6>
		/* Enable spi tx */
		_dma_set_source_address(tx_ch, txbuf);
    1c2e:	4649      	mov	r1, r9
    1c30:	4620      	mov	r0, r4
    1c32:	4b22      	ldr	r3, [pc, #136]	; (1cbc <_spi_m_dma_transfer+0xf4>)
    1c34:	4798      	blx	r3
		_dma_set_destination_address(tx_ch, (void *)_spi_m_get_destination_for_dma(dev->prvt));
    1c36:	6828      	ldr	r0, [r5, #0]
    1c38:	4b24      	ldr	r3, [pc, #144]	; (1ccc <_spi_m_dma_transfer+0x104>)
    1c3a:	4798      	blx	r3
    1c3c:	4601      	mov	r1, r0
    1c3e:	4620      	mov	r0, r4
    1c40:	4b1f      	ldr	r3, [pc, #124]	; (1cc0 <_spi_m_dma_transfer+0xf8>)
    1c42:	4798      	blx	r3
		_dma_srcinc_enable(tx_ch, true);
    1c44:	2101      	movs	r1, #1
    1c46:	4620      	mov	r0, r4
    1c48:	4b21      	ldr	r3, [pc, #132]	; (1cd0 <_spi_m_dma_transfer+0x108>)
    1c4a:	4798      	blx	r3
		_dma_set_data_amount(tx_ch, length);
    1c4c:	4639      	mov	r1, r7
    1c4e:	4620      	mov	r0, r4
    1c50:	4b1c      	ldr	r3, [pc, #112]	; (1cc4 <_spi_m_dma_transfer+0xfc>)
    1c52:	4798      	blx	r3
		_dma_set_source_address(tx_ch, &regs->dummy_byte);
		_dma_set_destination_address(tx_ch, (void *)_spi_m_get_destination_for_dma(dev->prvt));
		_dma_srcinc_enable(tx_ch, false);
		_dma_set_data_amount(tx_ch, length);
	}
	_dma_enable_transaction(tx_ch, false);
    1c54:	2100      	movs	r1, #0
    1c56:	4620      	mov	r0, r4
    1c58:	4b1b      	ldr	r3, [pc, #108]	; (1cc8 <_spi_m_dma_transfer+0x100>)
    1c5a:	4798      	blx	r3

	return ERR_NONE;
}
    1c5c:	2000      	movs	r0, #0
    1c5e:	e8bd 87f0 	ldmia.w	sp!, {r4, r5, r6, r7, r8, r9, sl, pc}
		if (sercomspi_regs[i].n == n) {
    1c62:	2805      	cmp	r0, #5
    1c64:	d002      	beq.n	1c6c <_spi_m_dma_transfer+0xa4>
	for (i = 0; i < sizeof(sercomspi_regs) / sizeof(struct sercomspi_regs_cfg); i++) {
    1c66:	3301      	adds	r3, #1
    1c68:	b2db      	uxtb	r3, r3
    1c6a:	e7b8      	b.n	1bde <_spi_m_dma_transfer+0x16>
			return &sercomspi_regs[i];
    1c6c:	eb03 1a03 	add.w	sl, r3, r3, lsl #4
    1c70:	4b18      	ldr	r3, [pc, #96]	; (1cd4 <_spi_m_dma_transfer+0x10c>)
    1c72:	449a      	add	sl, r3
    1c74:	e7b7      	b.n	1be6 <_spi_m_dma_transfer+0x1e>
		_spi_m_dma_rx_disable(dev);
    1c76:	4628      	mov	r0, r5
    1c78:	4b17      	ldr	r3, [pc, #92]	; (1cd8 <_spi_m_dma_transfer+0x110>)
    1c7a:	4798      	blx	r3
    1c7c:	e7d4      	b.n	1c28 <_spi_m_dma_transfer+0x60>
		_dma_set_source_address(tx_ch, &regs->dummy_byte);
    1c7e:	f10a 010e 	add.w	r1, sl, #14
    1c82:	4620      	mov	r0, r4
    1c84:	4b0d      	ldr	r3, [pc, #52]	; (1cbc <_spi_m_dma_transfer+0xf4>)
    1c86:	4798      	blx	r3
		_dma_set_destination_address(tx_ch, (void *)_spi_m_get_destination_for_dma(dev->prvt));
    1c88:	6828      	ldr	r0, [r5, #0]
    1c8a:	4b10      	ldr	r3, [pc, #64]	; (1ccc <_spi_m_dma_transfer+0x104>)
    1c8c:	4798      	blx	r3
    1c8e:	4601      	mov	r1, r0
    1c90:	4620      	mov	r0, r4
    1c92:	4b0b      	ldr	r3, [pc, #44]	; (1cc0 <_spi_m_dma_transfer+0xf8>)
    1c94:	4798      	blx	r3
		_dma_srcinc_enable(tx_ch, false);
    1c96:	2100      	movs	r1, #0
    1c98:	4620      	mov	r0, r4
    1c9a:	4b0d      	ldr	r3, [pc, #52]	; (1cd0 <_spi_m_dma_transfer+0x108>)
    1c9c:	4798      	blx	r3
		_dma_set_data_amount(tx_ch, length);
    1c9e:	4639      	mov	r1, r7
    1ca0:	4620      	mov	r0, r4
    1ca2:	4b08      	ldr	r3, [pc, #32]	; (1cc4 <_spi_m_dma_transfer+0xfc>)
    1ca4:	4798      	blx	r3
    1ca6:	e7d5      	b.n	1c54 <_spi_m_dma_transfer+0x8c>
    1ca8:	000010f9 	.word	0x000010f9
    1cac:	000011d9 	.word	0x000011d9
    1cb0:	000011a9 	.word	0x000011a9
    1cb4:	000015d5 	.word	0x000015d5
    1cb8:	0000119f 	.word	0x0000119f
    1cbc:	00000ed9 	.word	0x00000ed9
    1cc0:	00000ec9 	.word	0x00000ec9
    1cc4:	00000f05 	.word	0x00000f05
    1cc8:	00000f5d 	.word	0x00000f5d
    1ccc:	000011a3 	.word	0x000011a3
    1cd0:	00000ee9 	.word	0x00000ee9
    1cd4:	00004e1c 	.word	0x00004e1c
    1cd8:	00001609 	.word	0x00001609

00001cdc <TIMER_1_init>:
	};
}

static inline bool hri_tc_is_syncing(const void *const hw, hri_tc_syncbusy_reg_t reg)
{
	return ((Tc *)hw)->COUNT8.SYNCBUSY.reg & reg;
    1cdc:	4b2f      	ldr	r3, [pc, #188]	; (1d9c <TIMER_1_init+0xc0>)
    1cde:	691b      	ldr	r3, [r3, #16]
 * \brief Initialize TC interface
 */
int8_t TIMER_1_init()
{

	if (!hri_tc_is_syncing(TC3, TC_SYNCBUSY_SWRST)) {
    1ce0:	f013 0f01 	tst.w	r3, #1
    1ce4:	d120      	bne.n	1d28 <TIMER_1_init+0x4c>
	while (((Tc *)hw)->COUNT8.SYNCBUSY.reg & reg) {
    1ce6:	4b2d      	ldr	r3, [pc, #180]	; (1d9c <TIMER_1_init+0xc0>)
    1ce8:	691b      	ldr	r3, [r3, #16]
    1cea:	f013 0f03 	tst.w	r3, #3
    1cee:	d1fa      	bne.n	1ce6 <TIMER_1_init+0xa>

static inline hri_tc_ctrla_reg_t hri_tc_get_CTRLA_reg(const void *const hw, hri_tc_ctrla_reg_t mask)
{
	uint32_t tmp;
	hri_tc_wait_for_sync(hw, TC_SYNCBUSY_SWRST | TC_SYNCBUSY_ENABLE);
	tmp = ((Tc *)hw)->COUNT16.CTRLA.reg;
    1cf0:	4b2a      	ldr	r3, [pc, #168]	; (1d9c <TIMER_1_init+0xc0>)
    1cf2:	681b      	ldr	r3, [r3, #0]
		if (hri_tc_get_CTRLA_reg(TC3, TC_CTRLA_ENABLE)) {
    1cf4:	f013 0f02 	tst.w	r3, #2
    1cf8:	d00e      	beq.n	1d18 <TIMER_1_init+0x3c>
	((Tc *)hw)->COUNT16.CTRLA.reg &= ~TC_CTRLA_ENABLE;
    1cfa:	4a28      	ldr	r2, [pc, #160]	; (1d9c <TIMER_1_init+0xc0>)
    1cfc:	6813      	ldr	r3, [r2, #0]
    1cfe:	f023 0302 	bic.w	r3, r3, #2
    1d02:	6013      	str	r3, [r2, #0]
	while (((Tc *)hw)->COUNT8.SYNCBUSY.reg & reg) {
    1d04:	4b25      	ldr	r3, [pc, #148]	; (1d9c <TIMER_1_init+0xc0>)
    1d06:	691b      	ldr	r3, [r3, #16]
    1d08:	f013 0f03 	tst.w	r3, #3
    1d0c:	d1fa      	bne.n	1d04 <TIMER_1_init+0x28>
    1d0e:	4b23      	ldr	r3, [pc, #140]	; (1d9c <TIMER_1_init+0xc0>)
    1d10:	691b      	ldr	r3, [r3, #16]
    1d12:	f013 0f02 	tst.w	r3, #2
    1d16:	d1fa      	bne.n	1d0e <TIMER_1_init+0x32>
}

static inline void hri_tc_write_CTRLA_reg(const void *const hw, hri_tc_ctrla_reg_t data)
{
	TC_CRITICAL_SECTION_ENTER();
	((Tc *)hw)->COUNT16.CTRLA.reg = data;
    1d18:	2201      	movs	r2, #1
    1d1a:	4b20      	ldr	r3, [pc, #128]	; (1d9c <TIMER_1_init+0xc0>)
    1d1c:	601a      	str	r2, [r3, #0]
	while (((Tc *)hw)->COUNT8.SYNCBUSY.reg & reg) {
    1d1e:	4b1f      	ldr	r3, [pc, #124]	; (1d9c <TIMER_1_init+0xc0>)
    1d20:	691b      	ldr	r3, [r3, #16]
    1d22:	f013 0f03 	tst.w	r3, #3
    1d26:	d1fa      	bne.n	1d1e <TIMER_1_init+0x42>
    1d28:	4b1c      	ldr	r3, [pc, #112]	; (1d9c <TIMER_1_init+0xc0>)
    1d2a:	691b      	ldr	r3, [r3, #16]
    1d2c:	f013 0f01 	tst.w	r3, #1
    1d30:	d1fa      	bne.n	1d28 <TIMER_1_init+0x4c>
	((Tc *)hw)->COUNT16.CTRLA.reg = data;
    1d32:	f44f 62a0 	mov.w	r2, #1280	; 0x500
    1d36:	4b19      	ldr	r3, [pc, #100]	; (1d9c <TIMER_1_init+0xc0>)
    1d38:	601a      	str	r2, [r3, #0]
	while (((Tc *)hw)->COUNT8.SYNCBUSY.reg & reg) {
    1d3a:	4b18      	ldr	r3, [pc, #96]	; (1d9c <TIMER_1_init+0xc0>)
    1d3c:	691b      	ldr	r3, [r3, #16]
    1d3e:	f013 0f03 	tst.w	r3, #3
    1d42:	d1fa      	bne.n	1d3a <TIMER_1_init+0x5e>
	((Tc *)hw)->COUNT16.CTRLBSET.reg = data;
    1d44:	4b15      	ldr	r3, [pc, #84]	; (1d9c <TIMER_1_init+0xc0>)
    1d46:	2200      	movs	r2, #0
    1d48:	715a      	strb	r2, [r3, #5]
	((Tc *)hw)->COUNT16.CTRLBCLR.reg = ~data;
    1d4a:	22ff      	movs	r2, #255	; 0xff
    1d4c:	711a      	strb	r2, [r3, #4]
}

static inline void hri_tc_write_WAVE_reg(const void *const hw, hri_tc_wave_reg_t data)
{
	TC_CRITICAL_SECTION_ENTER();
	((Tc *)hw)->COUNT16.WAVE.reg = data;
    1d4e:	2201      	movs	r2, #1
    1d50:	731a      	strb	r2, [r3, #12]
}

static inline void hri_tccount16_write_CC_reg(const void *const hw, uint8_t index, hri_tccount16_cc_reg_t data)
{
	TC_CRITICAL_SECTION_ENTER();
	((Tc *)hw)->COUNT16.CC[index].reg = data;
    1d52:	f643 5208 	movw	r2, #15624	; 0x3d08
    1d56:	839a      	strh	r2, [r3, #28]
	while (((Tc *)hw)->COUNT8.SYNCBUSY.reg & reg) {
    1d58:	4b10      	ldr	r3, [pc, #64]	; (1d9c <TIMER_1_init+0xc0>)
    1d5a:	691b      	ldr	r3, [r3, #16]
    1d5c:	f013 0fc0 	tst.w	r3, #192	; 0xc0
    1d60:	d1fa      	bne.n	1d58 <TIMER_1_init+0x7c>
	((Tc *)hw)->COUNT16.CC[index].reg = data;
    1d62:	f641 0269 	movw	r2, #6249	; 0x1869
    1d66:	4b0d      	ldr	r3, [pc, #52]	; (1d9c <TIMER_1_init+0xc0>)
    1d68:	83da      	strh	r2, [r3, #30]
	while (((Tc *)hw)->COUNT8.SYNCBUSY.reg & reg) {
    1d6a:	4b0c      	ldr	r3, [pc, #48]	; (1d9c <TIMER_1_init+0xc0>)
    1d6c:	691b      	ldr	r3, [r3, #16]
    1d6e:	f013 0fc0 	tst.w	r3, #192	; 0xc0
    1d72:	d1fa      	bne.n	1d6a <TIMER_1_init+0x8e>
	((Tc *)hw)->COUNT16.EVCTRL.reg = data;
    1d74:	4b09      	ldr	r3, [pc, #36]	; (1d9c <TIMER_1_init+0xc0>)
    1d76:	f44f 7280 	mov.w	r2, #256	; 0x100
    1d7a:	80da      	strh	r2, [r3, #6]
	((Tc *)hw)->COUNT16.INTENSET.reg = data;
    1d7c:	2221      	movs	r2, #33	; 0x21
    1d7e:	725a      	strb	r2, [r3, #9]
	((Tc *)hw)->COUNT16.INTENCLR.reg = ~data;
    1d80:	22de      	movs	r2, #222	; 0xde
    1d82:	721a      	strb	r2, [r3, #8]
	tmp = ((Tc *)hw)->COUNT16.CTRLA.reg;
    1d84:	681a      	ldr	r2, [r3, #0]
	tmp |= value << TC_CTRLA_ENABLE_Pos;
    1d86:	f042 0202 	orr.w	r2, r2, #2
	((Tc *)hw)->COUNT16.CTRLA.reg = tmp;
    1d8a:	601a      	str	r2, [r3, #0]
	while (((Tc *)hw)->COUNT8.SYNCBUSY.reg & reg) {
    1d8c:	4b03      	ldr	r3, [pc, #12]	; (1d9c <TIMER_1_init+0xc0>)
    1d8e:	691b      	ldr	r3, [r3, #16]
    1d90:	f013 0f03 	tst.w	r3, #3
    1d94:	d1fa      	bne.n	1d8c <TIMER_1_init+0xb0>
	                           | 1 << TC_INTENSET_OVF_Pos); /* Overflow Interrupt enable: enabled */

	hri_tc_write_CTRLA_ENABLE_bit(TC3, 1 << TC_CTRLA_ENABLE_Pos); /* Enable: enabled */

	return 0;
}
    1d96:	2000      	movs	r0, #0
    1d98:	4770      	bx	lr
    1d9a:	bf00      	nop
    1d9c:	4101c000 	.word	0x4101c000

00001da0 <TIMER_0_init>:
	return ((Tc *)hw)->COUNT8.SYNCBUSY.reg & reg;
    1da0:	4b29      	ldr	r3, [pc, #164]	; (1e48 <TIMER_0_init+0xa8>)
    1da2:	691b      	ldr	r3, [r3, #16]
 * \brief Initialize TC interface
 */
int8_t TIMER_0_init()
{

	if (!hri_tc_is_syncing(TC7, TC_SYNCBUSY_SWRST)) {
    1da4:	f013 0f01 	tst.w	r3, #1
    1da8:	d120      	bne.n	1dec <TIMER_0_init+0x4c>
	while (((Tc *)hw)->COUNT8.SYNCBUSY.reg & reg) {
    1daa:	4b27      	ldr	r3, [pc, #156]	; (1e48 <TIMER_0_init+0xa8>)
    1dac:	691b      	ldr	r3, [r3, #16]
    1dae:	f013 0f03 	tst.w	r3, #3
    1db2:	d1fa      	bne.n	1daa <TIMER_0_init+0xa>
	tmp = ((Tc *)hw)->COUNT16.CTRLA.reg;
    1db4:	4b24      	ldr	r3, [pc, #144]	; (1e48 <TIMER_0_init+0xa8>)
    1db6:	681b      	ldr	r3, [r3, #0]
		if (hri_tc_get_CTRLA_reg(TC7, TC_CTRLA_ENABLE)) {
    1db8:	f013 0f02 	tst.w	r3, #2
    1dbc:	d00e      	beq.n	1ddc <TIMER_0_init+0x3c>
	((Tc *)hw)->COUNT16.CTRLA.reg &= ~TC_CTRLA_ENABLE;
    1dbe:	4a22      	ldr	r2, [pc, #136]	; (1e48 <TIMER_0_init+0xa8>)
    1dc0:	6813      	ldr	r3, [r2, #0]
    1dc2:	f023 0302 	bic.w	r3, r3, #2
    1dc6:	6013      	str	r3, [r2, #0]
	while (((Tc *)hw)->COUNT8.SYNCBUSY.reg & reg) {
    1dc8:	4b1f      	ldr	r3, [pc, #124]	; (1e48 <TIMER_0_init+0xa8>)
    1dca:	691b      	ldr	r3, [r3, #16]
    1dcc:	f013 0f03 	tst.w	r3, #3
    1dd0:	d1fa      	bne.n	1dc8 <TIMER_0_init+0x28>
    1dd2:	4b1d      	ldr	r3, [pc, #116]	; (1e48 <TIMER_0_init+0xa8>)
    1dd4:	691b      	ldr	r3, [r3, #16]
    1dd6:	f013 0f02 	tst.w	r3, #2
    1dda:	d1fa      	bne.n	1dd2 <TIMER_0_init+0x32>
	((Tc *)hw)->COUNT16.CTRLA.reg = data;
    1ddc:	2201      	movs	r2, #1
    1dde:	4b1a      	ldr	r3, [pc, #104]	; (1e48 <TIMER_0_init+0xa8>)
    1de0:	601a      	str	r2, [r3, #0]
	while (((Tc *)hw)->COUNT8.SYNCBUSY.reg & reg) {
    1de2:	4b19      	ldr	r3, [pc, #100]	; (1e48 <TIMER_0_init+0xa8>)
    1de4:	691b      	ldr	r3, [r3, #16]
    1de6:	f013 0f03 	tst.w	r3, #3
    1dea:	d1fa      	bne.n	1de2 <TIMER_0_init+0x42>
    1dec:	4b16      	ldr	r3, [pc, #88]	; (1e48 <TIMER_0_init+0xa8>)
    1dee:	691b      	ldr	r3, [r3, #16]
    1df0:	f013 0f01 	tst.w	r3, #1
    1df4:	d1fa      	bne.n	1dec <TIMER_0_init+0x4c>
	((Tc *)hw)->COUNT16.CTRLA.reg = data;
    1df6:	f44f 6280 	mov.w	r2, #1024	; 0x400
    1dfa:	4b13      	ldr	r3, [pc, #76]	; (1e48 <TIMER_0_init+0xa8>)
    1dfc:	601a      	str	r2, [r3, #0]
	while (((Tc *)hw)->COUNT8.SYNCBUSY.reg & reg) {
    1dfe:	4b12      	ldr	r3, [pc, #72]	; (1e48 <TIMER_0_init+0xa8>)
    1e00:	691b      	ldr	r3, [r3, #16]
    1e02:	f013 0f03 	tst.w	r3, #3
    1e06:	d1fa      	bne.n	1dfe <TIMER_0_init+0x5e>
	((Tc *)hw)->COUNT16.CTRLBSET.reg = data;
    1e08:	4b0f      	ldr	r3, [pc, #60]	; (1e48 <TIMER_0_init+0xa8>)
    1e0a:	2200      	movs	r2, #0
    1e0c:	715a      	strb	r2, [r3, #5]
	((Tc *)hw)->COUNT16.CTRLBCLR.reg = ~data;
    1e0e:	22ff      	movs	r2, #255	; 0xff
    1e10:	711a      	strb	r2, [r3, #4]
	((Tc *)hw)->COUNT16.WAVE.reg = data;
    1e12:	2201      	movs	r2, #1
    1e14:	731a      	strb	r2, [r3, #12]
	((Tc *)hw)->COUNT16.CC[index].reg = data;
    1e16:	f641 0269 	movw	r2, #6249	; 0x1869
    1e1a:	839a      	strh	r2, [r3, #28]
	while (((Tc *)hw)->COUNT8.SYNCBUSY.reg & reg) {
    1e1c:	4b0a      	ldr	r3, [pc, #40]	; (1e48 <TIMER_0_init+0xa8>)
    1e1e:	691b      	ldr	r3, [r3, #16]
    1e20:	f013 0fc0 	tst.w	r3, #192	; 0xc0
    1e24:	d1fa      	bne.n	1e1c <TIMER_0_init+0x7c>
	((Tc *)hw)->COUNT16.INTENSET.reg = data;
    1e26:	4b08      	ldr	r3, [pc, #32]	; (1e48 <TIMER_0_init+0xa8>)
    1e28:	2201      	movs	r2, #1
    1e2a:	725a      	strb	r2, [r3, #9]
	((Tc *)hw)->COUNT16.INTENCLR.reg = ~data;
    1e2c:	22fe      	movs	r2, #254	; 0xfe
    1e2e:	721a      	strb	r2, [r3, #8]
	tmp = ((Tc *)hw)->COUNT16.CTRLA.reg;
    1e30:	681a      	ldr	r2, [r3, #0]
	tmp |= value << TC_CTRLA_ENABLE_Pos;
    1e32:	f042 0202 	orr.w	r2, r2, #2
	((Tc *)hw)->COUNT16.CTRLA.reg = tmp;
    1e36:	601a      	str	r2, [r3, #0]
	while (((Tc *)hw)->COUNT8.SYNCBUSY.reg & reg) {
    1e38:	4b03      	ldr	r3, [pc, #12]	; (1e48 <TIMER_0_init+0xa8>)
    1e3a:	691b      	ldr	r3, [r3, #16]
    1e3c:	f013 0f03 	tst.w	r3, #3
    1e40:	d1fa      	bne.n	1e38 <TIMER_0_init+0x98>
	                           | 1 << TC_INTENSET_OVF_Pos); /* Overflow Interrupt enable: enabled */

	hri_tc_write_CTRLA_ENABLE_bit(TC7, 1 << TC_CTRLA_ENABLE_Pos); /* Enable: enabled */

	return 0;
}
    1e42:	2000      	movs	r0, #0
    1e44:	4770      	bx	lr
    1e46:	bf00      	nop
    1e48:	43001800 	.word	0x43001800

00001e4c <SensorRowUpdate>:
	//timer_start(&TIMER_0);
};
*/

void SensorRowUpdate(uint8_t row_select, uint8_t output_mode_select)
{
    1e4c:	e92d 43f8 	stmdb	sp!, {r3, r4, r5, r6, r7, r8, r9, lr}
    1e50:	460d      	mov	r5, r1
	switch(row_select){
    1e52:	2802      	cmp	r0, #2
    1e54:	d04a      	beq.n	1eec <SensorRowUpdate+0xa0>
    1e56:	2803      	cmp	r0, #3
    1e58:	f000 809d 	beq.w	1f96 <SensorRowUpdate+0x14a>
    1e5c:	2801      	cmp	r0, #1
    1e5e:	d001      	beq.n	1e64 <SensorRowUpdate+0x18>
    1e60:	e8bd 83f8 	ldmia.w	sp!, {r3, r4, r5, r6, r7, r8, r9, pc}
		case 1: ;
			
			update_struct_values(&sensorRow_Values_Left, &sensor7, &sensor4, &sensor1);
    1e64:	4c6d      	ldr	r4, [pc, #436]	; (201c <SensorRowUpdate+0x1d0>)
    1e66:	4b6e      	ldr	r3, [pc, #440]	; (2020 <SensorRowUpdate+0x1d4>)
    1e68:	4a6e      	ldr	r2, [pc, #440]	; (2024 <SensorRowUpdate+0x1d8>)
    1e6a:	496f      	ldr	r1, [pc, #444]	; (2028 <SensorRowUpdate+0x1dc>)
    1e6c:	4620      	mov	r0, r4
    1e6e:	4e6f      	ldr	r6, [pc, #444]	; (202c <SensorRowUpdate+0x1e0>)
    1e70:	47b0      	blx	r6
			mag_to_force(&sensorRow_Values_Left);
    1e72:	4620      	mov	r0, r4
    1e74:	4b6e      	ldr	r3, [pc, #440]	; (2030 <SensorRowUpdate+0x1e4>)
    1e76:	4798      	blx	r3
			//neuron_calc(&sensorRow_Values_1,&neuron1_normal,&neuron1_shear,&neuron2_normal,&neuron2_shear, &neuron3_normal,&neuron3_shear); for future implementation just a placeholder 
			//update_struct_values_neural(struct neuronRow_Values *neuron_row, struct neuron_pair *neuron_pair_top, struct neuron_pair *neuron_pair_middle, struct neuron_pair *neuron_pair_bottom); Placeholder for future implementation 
			
			BLDC_OUT->hall_top_x = sensorRow_Values_Left.b_x_top; //data7,8,9
    1e78:	4b6e      	ldr	r3, [pc, #440]	; (2034 <SensorRowUpdate+0x1e8>)
    1e7a:	681a      	ldr	r2, [r3, #0]
    1e7c:	6821      	ldr	r1, [r4, #0]
    1e7e:	6011      	str	r1, [r2, #0]
			BLDC_OUT->hall_top_y = sensorRow_Values_Left.b_y_top;
    1e80:	681b      	ldr	r3, [r3, #0]
    1e82:	68e2      	ldr	r2, [r4, #12]
    1e84:	605a      	str	r2, [r3, #4]
			BLDC_OUT->hall_top_z = sensorRow_Values_Left.b_z_top;
    1e86:	69a2      	ldr	r2, [r4, #24]
    1e88:	609a      	str	r2, [r3, #8]
				
			BLDC_OUT->hall_middle_x = sensorRow_Values_Left.b_x_middle; //data4,5,6
    1e8a:	6862      	ldr	r2, [r4, #4]
    1e8c:	615a      	str	r2, [r3, #20]
			BLDC_OUT->hall_middle_y = sensorRow_Values_Left.b_y_middle;
    1e8e:	6922      	ldr	r2, [r4, #16]
    1e90:	619a      	str	r2, [r3, #24]
			BLDC_OUT->hall_middle_z = sensorRow_Values_Left.b_z_middle;
    1e92:	69e2      	ldr	r2, [r4, #28]
    1e94:	61da      	str	r2, [r3, #28]

				
			BLDC_OUT->hall_bottom_x = sensorRow_Values_Left.b_x_bottom; //data1,2,3
    1e96:	68a2      	ldr	r2, [r4, #8]
    1e98:	62da      	str	r2, [r3, #44]	; 0x2c
			BLDC_OUT->hall_bottom_y = sensorRow_Values_Left.b_y_bottom;
    1e9a:	6962      	ldr	r2, [r4, #20]
    1e9c:	631a      	str	r2, [r3, #48]	; 0x30
			BLDC_OUT->hall_bottom_z = sensorRow_Values_Left.b_z_bottom;
    1e9e:	6a22      	ldr	r2, [r4, #32]
    1ea0:	635a      	str	r2, [r3, #52]	; 0x34
			BLDC_OUT->hall_top_x = sensor7.data.x; //data7,8,9
			BLDC_OUT->hall_top_y = sensor7.data.y;
			BLDC_OUT->hall_top_z = sensor7.data.z;
			*/
			
			switch(output_mode_select){
    1ea2:	2d01      	cmp	r5, #1
    1ea4:	d006      	beq.n	1eb4 <SensorRowUpdate+0x68>
    1ea6:	2d02      	cmp	r5, #2
    1ea8:	d012      	beq.n	1ed0 <SensorRowUpdate+0x84>
			}
			
			//mag_to_force(&sensorRow_Values_1, &sensor1, &sensor4, &sensor7);
			//neuron_calc(&sensorRow_Values_1,&neuron1_normal,&neuron1_shear,&neuron2_normal,&neuron2_shear, &neuron3_normal,&neuron3_shear);
			
			BLDC_OUT->hall_middle_temp = 1;
    1eaa:	f04f 527e 	mov.w	r2, #1065353216	; 0x3f800000
    1eae:	621a      	str	r2, [r3, #32]
			break;
    1eb0:	e8bd 83f8 	ldmia.w	sp!, {r3, r4, r5, r6, r7, r8, r9, pc}
					BLDC_OUT->neuron_top_normal = sensorRow_Values_Left.force_z_top;
    1eb4:	4a59      	ldr	r2, [pc, #356]	; (201c <SensorRowUpdate+0x1d0>)
    1eb6:	6c91      	ldr	r1, [r2, #72]	; 0x48
    1eb8:	60d9      	str	r1, [r3, #12]
					BLDC_OUT->neuron_top_shear = sensorRow_Values_Left.force_r_top;
    1eba:	6d51      	ldr	r1, [r2, #84]	; 0x54
    1ebc:	6119      	str	r1, [r3, #16]
					BLDC_OUT->neuron_middle_normal = sensorRow_Values_Left.force_z_middle;
    1ebe:	6cd1      	ldr	r1, [r2, #76]	; 0x4c
    1ec0:	6259      	str	r1, [r3, #36]	; 0x24
					BLDC_OUT->neuron_middle_shear = sensorRow_Values_Left.force_r_middle;
    1ec2:	6d91      	ldr	r1, [r2, #88]	; 0x58
    1ec4:	6299      	str	r1, [r3, #40]	; 0x28
					BLDC_OUT->neuron_bottom_normal = sensorRow_Values_Left.force_z_bottom;
    1ec6:	6d11      	ldr	r1, [r2, #80]	; 0x50
    1ec8:	6399      	str	r1, [r3, #56]	; 0x38
					BLDC_OUT->neuron_bottom_shear = sensorRow_Values_Left.force_r_bottom;
    1eca:	6dd2      	ldr	r2, [r2, #92]	; 0x5c
    1ecc:	63da      	str	r2, [r3, #60]	; 0x3c
				break;
    1ece:	e7ec      	b.n	1eaa <SensorRowUpdate+0x5e>
				BLDC_OUT->neuron_top_normal = neuronRow_Values_Left.neuron_top_normal;
    1ed0:	4a59      	ldr	r2, [pc, #356]	; (2038 <SensorRowUpdate+0x1ec>)
    1ed2:	6811      	ldr	r1, [r2, #0]
    1ed4:	60d9      	str	r1, [r3, #12]
				BLDC_OUT->neuron_top_shear = neuronRow_Values_Left.neuron_top_shear;
    1ed6:	6851      	ldr	r1, [r2, #4]
    1ed8:	6119      	str	r1, [r3, #16]
				BLDC_OUT->neuron_middle_normal = neuronRow_Values_Left.neuron_middle_normal;
    1eda:	6891      	ldr	r1, [r2, #8]
    1edc:	6259      	str	r1, [r3, #36]	; 0x24
				BLDC_OUT->neuron_middle_shear = neuronRow_Values_Left.neuron_middle_shear;
    1ede:	68d1      	ldr	r1, [r2, #12]
    1ee0:	6299      	str	r1, [r3, #40]	; 0x28
				BLDC_OUT->neuron_bottom_normal = neuronRow_Values_Left.neuron_bottom_normal;
    1ee2:	6911      	ldr	r1, [r2, #16]
    1ee4:	6399      	str	r1, [r3, #56]	; 0x38
				BLDC_OUT->neuron_bottom_shear = neuronRow_Values_Left.neuron_bottom_shear;
    1ee6:	6952      	ldr	r2, [r2, #20]
    1ee8:	63da      	str	r2, [r3, #60]	; 0x3c
				break;
    1eea:	e7de      	b.n	1eaa <SensorRowUpdate+0x5e>
		
		case 2: ;
			update_struct_values(&sensorRow_Values_Middle, &sensor8, &sensor5, &sensor2);
    1eec:	4c53      	ldr	r4, [pc, #332]	; (203c <SensorRowUpdate+0x1f0>)
    1eee:	4b54      	ldr	r3, [pc, #336]	; (2040 <SensorRowUpdate+0x1f4>)
    1ef0:	4a54      	ldr	r2, [pc, #336]	; (2044 <SensorRowUpdate+0x1f8>)
    1ef2:	4955      	ldr	r1, [pc, #340]	; (2048 <SensorRowUpdate+0x1fc>)
    1ef4:	4620      	mov	r0, r4
    1ef6:	4e4d      	ldr	r6, [pc, #308]	; (202c <SensorRowUpdate+0x1e0>)
    1ef8:	47b0      	blx	r6
			mag_to_force(&sensorRow_Values_Middle);
    1efa:	4620      	mov	r0, r4
    1efc:	4b4c      	ldr	r3, [pc, #304]	; (2030 <SensorRowUpdate+0x1e4>)
    1efe:	4798      	blx	r3
			neuron_calc_row(&sensorRow_Values_Middle, &neuron_pair_2_top, &neuron_pair_2_middle, &neuron_pair_2_bottom);
    1f00:	f8df 8170 	ldr.w	r8, [pc, #368]	; 2074 <SensorRowUpdate+0x228>
    1f04:	4f51      	ldr	r7, [pc, #324]	; (204c <SensorRowUpdate+0x200>)
    1f06:	4e52      	ldr	r6, [pc, #328]	; (2050 <SensorRowUpdate+0x204>)
    1f08:	4643      	mov	r3, r8
    1f0a:	463a      	mov	r2, r7
    1f0c:	4631      	mov	r1, r6
    1f0e:	4620      	mov	r0, r4
    1f10:	f8df 9164 	ldr.w	r9, [pc, #356]	; 2078 <SensorRowUpdate+0x22c>
    1f14:	47c8      	blx	r9
			update_struct_values_neural(&neuronRow_Values_Middle, &neuron_pair_2_top, &neuron_pair_2_middle, &neuron_pair_2_bottom);
    1f16:	4643      	mov	r3, r8
    1f18:	463a      	mov	r2, r7
    1f1a:	4631      	mov	r1, r6
    1f1c:	484d      	ldr	r0, [pc, #308]	; (2054 <SensorRowUpdate+0x208>)
    1f1e:	4e4e      	ldr	r6, [pc, #312]	; (2058 <SensorRowUpdate+0x20c>)
    1f20:	47b0      	blx	r6
			
			BLDC_OUT->hall_top_x = sensorRow_Values_Middle.b_x_top; //data7,8,9
    1f22:	4b44      	ldr	r3, [pc, #272]	; (2034 <SensorRowUpdate+0x1e8>)
    1f24:	681a      	ldr	r2, [r3, #0]
    1f26:	6821      	ldr	r1, [r4, #0]
    1f28:	6011      	str	r1, [r2, #0]
			BLDC_OUT->hall_top_y = sensorRow_Values_Middle.b_y_top;
    1f2a:	681b      	ldr	r3, [r3, #0]
    1f2c:	68e2      	ldr	r2, [r4, #12]
    1f2e:	605a      	str	r2, [r3, #4]
			BLDC_OUT->hall_top_z = sensorRow_Values_Middle.b_z_top;
    1f30:	69a2      	ldr	r2, [r4, #24]
    1f32:	609a      	str	r2, [r3, #8]
			
			BLDC_OUT->hall_middle_x = sensorRow_Values_Middle.b_x_middle; //data4,5,6
    1f34:	6862      	ldr	r2, [r4, #4]
    1f36:	615a      	str	r2, [r3, #20]
			BLDC_OUT->hall_middle_y = sensorRow_Values_Middle.b_y_middle;
    1f38:	6922      	ldr	r2, [r4, #16]
    1f3a:	619a      	str	r2, [r3, #24]
			BLDC_OUT->hall_middle_z = sensorRow_Values_Middle.b_z_middle;
    1f3c:	69e2      	ldr	r2, [r4, #28]
    1f3e:	61da      	str	r2, [r3, #28]

			
			BLDC_OUT->hall_bottom_x = sensorRow_Values_Middle.b_x_bottom; //data1,2,3
    1f40:	68a2      	ldr	r2, [r4, #8]
    1f42:	62da      	str	r2, [r3, #44]	; 0x2c
			BLDC_OUT->hall_bottom_y = sensorRow_Values_Middle.b_y_bottom;
    1f44:	6962      	ldr	r2, [r4, #20]
    1f46:	631a      	str	r2, [r3, #48]	; 0x30
			BLDC_OUT->hall_bottom_z = sensorRow_Values_Middle.b_z_bottom;
    1f48:	6a22      	ldr	r2, [r4, #32]
    1f4a:	635a      	str	r2, [r3, #52]	; 0x34
			
			switch(output_mode_select){
    1f4c:	2d01      	cmp	r5, #1
    1f4e:	d006      	beq.n	1f5e <SensorRowUpdate+0x112>
    1f50:	2d02      	cmp	r5, #2
    1f52:	d012      	beq.n	1f7a <SensorRowUpdate+0x12e>
			BLDC_OUT->hall_top_z = sensor8.data.z;
		*/
			//mag_to_force(&sensorRow_Values_1, &sensor2, &sensor5, &sensor8);
			//neuron_calc(&sensorRow_Values_1,&neuron1_normal,&neuron1_shear,&neuron2_normal,&neuron2_shear, &neuron3_normal,&neuron3_shear);
			
			BLDC_OUT->hall_middle_temp = 2;
    1f54:	f04f 4280 	mov.w	r2, #1073741824	; 0x40000000
    1f58:	621a      	str	r2, [r3, #32]
			break;
    1f5a:	e8bd 83f8 	ldmia.w	sp!, {r3, r4, r5, r6, r7, r8, r9, pc}
				BLDC_OUT->neuron_top_normal = sensorRow_Values_Middle.force_z_top;
    1f5e:	4a37      	ldr	r2, [pc, #220]	; (203c <SensorRowUpdate+0x1f0>)
    1f60:	6c91      	ldr	r1, [r2, #72]	; 0x48
    1f62:	60d9      	str	r1, [r3, #12]
				BLDC_OUT->neuron_top_shear = sensorRow_Values_Middle.force_r_top;
    1f64:	6d51      	ldr	r1, [r2, #84]	; 0x54
    1f66:	6119      	str	r1, [r3, #16]
				BLDC_OUT->neuron_middle_normal = sensorRow_Values_Middle.force_z_middle;
    1f68:	6cd1      	ldr	r1, [r2, #76]	; 0x4c
    1f6a:	6259      	str	r1, [r3, #36]	; 0x24
				BLDC_OUT->neuron_middle_shear = sensorRow_Values_Middle.force_r_middle;
    1f6c:	6d91      	ldr	r1, [r2, #88]	; 0x58
    1f6e:	6299      	str	r1, [r3, #40]	; 0x28
				BLDC_OUT->neuron_bottom_normal = sensorRow_Values_Middle.force_z_bottom;
    1f70:	6d11      	ldr	r1, [r2, #80]	; 0x50
    1f72:	6399      	str	r1, [r3, #56]	; 0x38
				BLDC_OUT->neuron_bottom_shear = sensorRow_Values_Middle.force_r_bottom;
    1f74:	6dd2      	ldr	r2, [r2, #92]	; 0x5c
    1f76:	63da      	str	r2, [r3, #60]	; 0x3c
				break;
    1f78:	e7ec      	b.n	1f54 <SensorRowUpdate+0x108>
				BLDC_OUT->neuron_top_normal = neuronRow_Values_Middle.neuron_top_normal;
    1f7a:	4a36      	ldr	r2, [pc, #216]	; (2054 <SensorRowUpdate+0x208>)
    1f7c:	6811      	ldr	r1, [r2, #0]
    1f7e:	60d9      	str	r1, [r3, #12]
				BLDC_OUT->neuron_top_shear = neuronRow_Values_Middle.neuron_top_shear;
    1f80:	6851      	ldr	r1, [r2, #4]
    1f82:	6119      	str	r1, [r3, #16]
				BLDC_OUT->neuron_middle_normal = neuronRow_Values_Middle.neuron_middle_normal;
    1f84:	6891      	ldr	r1, [r2, #8]
    1f86:	6259      	str	r1, [r3, #36]	; 0x24
				BLDC_OUT->neuron_middle_shear = neuronRow_Values_Middle.neuron_middle_shear;
    1f88:	68d1      	ldr	r1, [r2, #12]
    1f8a:	6299      	str	r1, [r3, #40]	; 0x28
				BLDC_OUT->neuron_bottom_normal = neuronRow_Values_Middle.neuron_bottom_normal;
    1f8c:	6911      	ldr	r1, [r2, #16]
    1f8e:	6399      	str	r1, [r3, #56]	; 0x38
				BLDC_OUT->neuron_bottom_shear = neuronRow_Values_Middle.neuron_bottom_shear;
    1f90:	6952      	ldr	r2, [r2, #20]
    1f92:	63da      	str	r2, [r3, #60]	; 0x3c
				break;
    1f94:	e7de      	b.n	1f54 <SensorRowUpdate+0x108>
			
		case 3: ;
			update_struct_values(&sensorRow_Values_Right, &sensor9, &sensor6, &sensor3);
    1f96:	4c31      	ldr	r4, [pc, #196]	; (205c <SensorRowUpdate+0x210>)
    1f98:	4b31      	ldr	r3, [pc, #196]	; (2060 <SensorRowUpdate+0x214>)
    1f9a:	4a32      	ldr	r2, [pc, #200]	; (2064 <SensorRowUpdate+0x218>)
    1f9c:	4932      	ldr	r1, [pc, #200]	; (2068 <SensorRowUpdate+0x21c>)
    1f9e:	4620      	mov	r0, r4
    1fa0:	4e22      	ldr	r6, [pc, #136]	; (202c <SensorRowUpdate+0x1e0>)
    1fa2:	47b0      	blx	r6
			mag_to_force(&sensorRow_Values_Right);
    1fa4:	4620      	mov	r0, r4
    1fa6:	4b22      	ldr	r3, [pc, #136]	; (2030 <SensorRowUpdate+0x1e4>)
    1fa8:	4798      	blx	r3
			//neuron_calc(&sensorRow_Values_1,&neuron1_normal,&neuron1_shear,&neuron2_normal,&neuron2_shear, &neuron3_normal,&neuron3_shear); for future implementation just a placeholder
			//update_struct_values_neural(struct neuronRow_Values *neuron_row, struct neuron_pair *neuron_pair_top, struct neuron_pair *neuron_pair_middle, struct neuron_pair *neuron_pair_bottom); Placeholder for future implementation
			
			
			BLDC_OUT->hall_top_x = sensorRow_Values_Right.b_x_top; //data7,8,9
    1faa:	4b22      	ldr	r3, [pc, #136]	; (2034 <SensorRowUpdate+0x1e8>)
    1fac:	681a      	ldr	r2, [r3, #0]
    1fae:	6821      	ldr	r1, [r4, #0]
    1fb0:	6011      	str	r1, [r2, #0]
			BLDC_OUT->hall_top_y = sensorRow_Values_Right.b_y_top;
    1fb2:	681b      	ldr	r3, [r3, #0]
    1fb4:	68e2      	ldr	r2, [r4, #12]
    1fb6:	605a      	str	r2, [r3, #4]
			BLDC_OUT->hall_top_z = sensorRow_Values_Right.b_z_top;
    1fb8:	69a2      	ldr	r2, [r4, #24]
    1fba:	609a      	str	r2, [r3, #8]
			
			BLDC_OUT->hall_middle_x = sensorRow_Values_Right.b_x_middle; //data4,5,6
    1fbc:	6862      	ldr	r2, [r4, #4]
    1fbe:	615a      	str	r2, [r3, #20]
			BLDC_OUT->hall_middle_y = sensorRow_Values_Right.b_y_middle;
    1fc0:	6922      	ldr	r2, [r4, #16]
    1fc2:	619a      	str	r2, [r3, #24]
			BLDC_OUT->hall_middle_z = sensorRow_Values_Right.b_z_middle;
    1fc4:	69e2      	ldr	r2, [r4, #28]
    1fc6:	61da      	str	r2, [r3, #28]

			
			BLDC_OUT->hall_bottom_x = sensorRow_Values_Right.b_x_bottom; //data1,2,3
    1fc8:	68a2      	ldr	r2, [r4, #8]
    1fca:	62da      	str	r2, [r3, #44]	; 0x2c
			BLDC_OUT->hall_bottom_y = sensorRow_Values_Right.b_y_bottom;
    1fcc:	6962      	ldr	r2, [r4, #20]
    1fce:	631a      	str	r2, [r3, #48]	; 0x30
			BLDC_OUT->hall_bottom_z = sensorRow_Values_Right.b_z_bottom;
    1fd0:	6a22      	ldr	r2, [r4, #32]
    1fd2:	635a      	str	r2, [r3, #52]	; 0x34
			
			switch(output_mode_select){
    1fd4:	2d01      	cmp	r5, #1
    1fd6:	d004      	beq.n	1fe2 <SensorRowUpdate+0x196>
    1fd8:	2d02      	cmp	r5, #2
    1fda:	d010      	beq.n	1ffe <SensorRowUpdate+0x1b2>
			BLDC_OUT->hall_top_z = sensor9.data.z;
			*/
			//mag_to_force(&sensorRow_Values_1, &sensor3, &sensor6, &sensor9);
			//neuron_calc(&sensorRow_Values_1,&neuron1_normal,&neuron1_shear,&neuron2_normal,&neuron2_shear, &neuron3_normal,&neuron3_shear);
			
			BLDC_OUT->hall_middle_temp = 3;
    1fdc:	4a23      	ldr	r2, [pc, #140]	; (206c <SensorRowUpdate+0x220>)
    1fde:	621a      	str	r2, [r3, #32]
			break;
		}
};
    1fe0:	e73e      	b.n	1e60 <SensorRowUpdate+0x14>
				BLDC_OUT->neuron_top_normal = sensorRow_Values_Right.force_z_top;
    1fe2:	4a1e      	ldr	r2, [pc, #120]	; (205c <SensorRowUpdate+0x210>)
    1fe4:	6c91      	ldr	r1, [r2, #72]	; 0x48
    1fe6:	60d9      	str	r1, [r3, #12]
				BLDC_OUT->neuron_top_shear = sensorRow_Values_Right.force_r_top;
    1fe8:	6d51      	ldr	r1, [r2, #84]	; 0x54
    1fea:	6119      	str	r1, [r3, #16]
				BLDC_OUT->neuron_middle_normal = sensorRow_Values_Right.force_z_middle;
    1fec:	6cd1      	ldr	r1, [r2, #76]	; 0x4c
    1fee:	6259      	str	r1, [r3, #36]	; 0x24
				BLDC_OUT->neuron_middle_shear = sensorRow_Values_Right.force_r_middle;
    1ff0:	6d91      	ldr	r1, [r2, #88]	; 0x58
    1ff2:	6299      	str	r1, [r3, #40]	; 0x28
				BLDC_OUT->neuron_bottom_normal = sensorRow_Values_Right.force_z_bottom;
    1ff4:	6d11      	ldr	r1, [r2, #80]	; 0x50
    1ff6:	6399      	str	r1, [r3, #56]	; 0x38
				BLDC_OUT->neuron_bottom_shear = sensorRow_Values_Right.force_r_bottom;
    1ff8:	6dd2      	ldr	r2, [r2, #92]	; 0x5c
    1ffa:	63da      	str	r2, [r3, #60]	; 0x3c
				break;
    1ffc:	e7ee      	b.n	1fdc <SensorRowUpdate+0x190>
				BLDC_OUT->neuron_top_normal = neuronRow_Values_Right.neuron_top_normal;
    1ffe:	4a1c      	ldr	r2, [pc, #112]	; (2070 <SensorRowUpdate+0x224>)
    2000:	6811      	ldr	r1, [r2, #0]
    2002:	60d9      	str	r1, [r3, #12]
				BLDC_OUT->neuron_top_shear = neuronRow_Values_Right.neuron_top_shear;
    2004:	6851      	ldr	r1, [r2, #4]
    2006:	6119      	str	r1, [r3, #16]
				BLDC_OUT->neuron_middle_normal = neuronRow_Values_Right.neuron_middle_normal;
    2008:	6891      	ldr	r1, [r2, #8]
    200a:	6259      	str	r1, [r3, #36]	; 0x24
				BLDC_OUT->neuron_middle_shear = neuronRow_Values_Right.neuron_middle_shear;
    200c:	68d1      	ldr	r1, [r2, #12]
    200e:	6299      	str	r1, [r3, #40]	; 0x28
				BLDC_OUT->neuron_bottom_normal = neuronRow_Values_Right.neuron_bottom_normal;
    2010:	6911      	ldr	r1, [r2, #16]
    2012:	6399      	str	r1, [r3, #56]	; 0x38
				BLDC_OUT->neuron_bottom_shear = neuronRow_Values_Right.neuron_bottom_shear;
    2014:	6952      	ldr	r2, [r2, #20]
    2016:	63da      	str	r2, [r3, #60]	; 0x3c
				break;
    2018:	e7e0      	b.n	1fdc <SensorRowUpdate+0x190>
    201a:	bf00      	nop
    201c:	20001314 	.word	0x20001314
    2020:	20001040 	.word	0x20001040
    2024:	20000fe8 	.word	0x20000fe8
    2028:	20000bc8 	.word	0x20000bc8
    202c:	00003071 	.word	0x00003071
    2030:	00003119 	.word	0x00003119
    2034:	20000074 	.word	0x20000074
    2038:	20000d50 	.word	0x20000d50
    203c:	20000b68 	.word	0x20000b68
    2040:	200012bc 	.word	0x200012bc
    2044:	20000ef8 	.word	0x20000ef8
    2048:	200011cc 	.word	0x200011cc
    204c:	20000980 	.word	0x20000980
    2050:	20000f50 	.word	0x20000f50
    2054:	20000c28 	.word	0x20000c28
    2058:	00004041 	.word	0x00004041
    205c:	20000c40 	.word	0x20000c40
    2060:	20000cf8 	.word	0x20000cf8
    2064:	20000ca0 	.word	0x20000ca0
    2068:	20000e9c 	.word	0x20000e9c
    206c:	40400000 	.word	0x40400000
    2070:	20000a18 	.word	0x20000a18
    2074:	20001134 	.word	0x20001134
    2078:	00003f89 	.word	0x00003f89

0000207c <main>:


int main(void)
{
    207c:	b580      	push	{r7, lr}
    207e:	b086      	sub	sp, #24
	/* Initializes MCU, drivers and middleware */
	atmel_start_init();
    2080:	4b3b      	ldr	r3, [pc, #236]	; (2170 <main+0xf4>)
    2082:	4798      	blx	r3
	configure_ethercat_dma_descriptors();
    2084:	4b3b      	ldr	r3, [pc, #236]	; (2174 <main+0xf8>)
    2086:	4798      	blx	r3
	
	//Initialize I2C communication
	i2c_m_sync_get_io_descriptor(&I2C_0, &bmx_io);
    2088:	4e3b      	ldr	r6, [pc, #236]	; (2178 <main+0xfc>)
    208a:	4c3c      	ldr	r4, [pc, #240]	; (217c <main+0x100>)
    208c:	4631      	mov	r1, r6
    208e:	4620      	mov	r0, r4
    2090:	4b3b      	ldr	r3, [pc, #236]	; (2180 <main+0x104>)
    2092:	4798      	blx	r3
	i2c_m_sync_enable(&I2C_0);
    2094:	4620      	mov	r0, r4
    2096:	4b3b      	ldr	r3, [pc, #236]	; (2184 <main+0x108>)
    2098:	4798      	blx	r3
    209a:	4c3b      	ldr	r4, [pc, #236]	; (2188 <main+0x10c>)
    209c:	2540      	movs	r5, #64	; 0x40
    209e:	6165      	str	r5, [r4, #20]
	((Port *)hw)->Group[submodule_index].OUTSET.reg = mask;
    20a0:	61a5      	str	r5, [r4, #24]
	// for testing purposes
	gpio_set_pin_level(TRG,false);
	gpio_set_pin_level(TRG,true);
	
	// Initialize Sensor Array
	SensorArray_Init(&sensor1,&sensor2,&sensor3,&sensor4,&sensor5,&sensor6,&sensor7,&sensor8,&sensor9,bmx_io);
    20a2:	6833      	ldr	r3, [r6, #0]
    20a4:	9305      	str	r3, [sp, #20]
    20a6:	4e39      	ldr	r6, [pc, #228]	; (218c <main+0x110>)
    20a8:	9604      	str	r6, [sp, #16]
    20aa:	4b39      	ldr	r3, [pc, #228]	; (2190 <main+0x114>)
    20ac:	9303      	str	r3, [sp, #12]
    20ae:	4b39      	ldr	r3, [pc, #228]	; (2194 <main+0x118>)
    20b0:	9302      	str	r3, [sp, #8]
    20b2:	4b39      	ldr	r3, [pc, #228]	; (2198 <main+0x11c>)
    20b4:	9301      	str	r3, [sp, #4]
    20b6:	4b39      	ldr	r3, [pc, #228]	; (219c <main+0x120>)
    20b8:	9300      	str	r3, [sp, #0]
    20ba:	4b39      	ldr	r3, [pc, #228]	; (21a0 <main+0x124>)
    20bc:	4a39      	ldr	r2, [pc, #228]	; (21a4 <main+0x128>)
    20be:	493a      	ldr	r1, [pc, #232]	; (21a8 <main+0x12c>)
    20c0:	483a      	ldr	r0, [pc, #232]	; (21ac <main+0x130>)
    20c2:	4f3b      	ldr	r7, [pc, #236]	; (21b0 <main+0x134>)
    20c4:	47b8      	blx	r7
	neuron_init_row(&neuron_pair_2_top, &neuron_pair_2_middle, &neuron_pair_2_bottom);
    20c6:	4a3b      	ldr	r2, [pc, #236]	; (21b4 <main+0x138>)
    20c8:	493b      	ldr	r1, [pc, #236]	; (21b8 <main+0x13c>)
    20ca:	483c      	ldr	r0, [pc, #240]	; (21bc <main+0x140>)
    20cc:	4b3c      	ldr	r3, [pc, #240]	; (21c0 <main+0x144>)
    20ce:	4798      	blx	r3
	((Port *)hw)->Group[submodule_index].OUTCLR.reg = mask;
    20d0:	6165      	str	r5, [r4, #20]

	gpio_set_pin_level(TRG,false);
	
	//Initialize ReadoutVariables
	new_data = false;
    20d2:	2300      	movs	r3, #0
    20d4:	4a3b      	ldr	r2, [pc, #236]	; (21c4 <main+0x148>)
    20d6:	7013      	strb	r3, [r2, #0]
	triggered = false;
    20d8:	4a3b      	ldr	r2, [pc, #236]	; (21c8 <main+0x14c>)
    20da:	7013      	strb	r3, [r2, #0]
	data_readout = false;
    20dc:	4a3b      	ldr	r2, [pc, #236]	; (21cc <main+0x150>)
    20de:	7013      	strb	r3, [r2, #0]
	wait_time = convDelayMicro(&sensor9);
    20e0:	4630      	mov	r0, r6
    20e2:	4b3b      	ldr	r3, [pc, #236]	; (21d0 <main+0x154>)
    20e4:	4798      	blx	r3
    20e6:	4b3b      	ldr	r3, [pc, #236]	; (21d4 <main+0x158>)
    20e8:	8018      	strh	r0, [r3, #0]
    20ea:	f44f 4280 	mov.w	r2, #16384	; 0x4000
    20ee:	4b3a      	ldr	r3, [pc, #232]	; (21d8 <main+0x15c>)
    20f0:	60da      	str	r2, [r3, #12]
	//TIMER_init(wait_time);
	NVIC_EnableIRQ(TC3_IRQn);
	selected_row = 2; //1 = left, 2 = middle, 3 = right
    20f2:	2302      	movs	r3, #2
    20f4:	4a39      	ldr	r2, [pc, #228]	; (21dc <main+0x160>)
    20f6:	7013      	strb	r3, [r2, #0]
	selected_output_mode = 2; //1 = Force, 2 = Neural Spikes
    20f8:	4a39      	ldr	r2, [pc, #228]	; (21e0 <main+0x164>)
    20fa:	7013      	strb	r3, [r2, #0]
	/* Replace with your application code */
	while (1) {
		
		if (triggered == false)	{
    20fc:	4b32      	ldr	r3, [pc, #200]	; (21c8 <main+0x14c>)
    20fe:	781b      	ldrb	r3, [r3, #0]
    2100:	2b00      	cmp	r3, #0
    2102:	d027      	beq.n	2154 <main+0xd8>
			//triggerReadout_Prepare_Timer(50);
	//		timer_start(&TIMER_1);
			triggered = true;
			data_readout = false;
		}
		if(new_data == true && data_readout == false){	
    2104:	4b2f      	ldr	r3, [pc, #188]	; (21c4 <main+0x148>)
    2106:	781b      	ldrb	r3, [r3, #0]
    2108:	2b00      	cmp	r3, #0
    210a:	d0f7      	beq.n	20fc <main+0x80>
    210c:	4b2f      	ldr	r3, [pc, #188]	; (21cc <main+0x150>)
    210e:	781b      	ldrb	r3, [r3, #0]
    2110:	2b00      	cmp	r3, #0
    2112:	d1f3      	bne.n	20fc <main+0x80>
			triggerReadoutArray(&sensor1,&sensor2,&sensor3,&sensor4,&sensor5,&sensor6,&sensor7,&sensor8,&sensor9,bmx_io);
    2114:	4b18      	ldr	r3, [pc, #96]	; (2178 <main+0xfc>)
    2116:	681b      	ldr	r3, [r3, #0]
    2118:	9305      	str	r3, [sp, #20]
    211a:	4b1c      	ldr	r3, [pc, #112]	; (218c <main+0x110>)
    211c:	9304      	str	r3, [sp, #16]
    211e:	4b1c      	ldr	r3, [pc, #112]	; (2190 <main+0x114>)
    2120:	9303      	str	r3, [sp, #12]
    2122:	4b1c      	ldr	r3, [pc, #112]	; (2194 <main+0x118>)
    2124:	9302      	str	r3, [sp, #8]
    2126:	4b1c      	ldr	r3, [pc, #112]	; (2198 <main+0x11c>)
    2128:	9301      	str	r3, [sp, #4]
    212a:	4b1c      	ldr	r3, [pc, #112]	; (219c <main+0x120>)
    212c:	9300      	str	r3, [sp, #0]
    212e:	4b1c      	ldr	r3, [pc, #112]	; (21a0 <main+0x124>)
    2130:	4a1c      	ldr	r2, [pc, #112]	; (21a4 <main+0x128>)
    2132:	491d      	ldr	r1, [pc, #116]	; (21a8 <main+0x12c>)
    2134:	481d      	ldr	r0, [pc, #116]	; (21ac <main+0x130>)
    2136:	4c2b      	ldr	r4, [pc, #172]	; (21e4 <main+0x168>)
    2138:	47a0      	blx	r4
			SensorRowUpdate(selected_row, selected_output_mode); //must be modified later to allow readout of whole array - for loop where every row is selected once
    213a:	4b29      	ldr	r3, [pc, #164]	; (21e0 <main+0x164>)
    213c:	7819      	ldrb	r1, [r3, #0]
    213e:	4b27      	ldr	r3, [pc, #156]	; (21dc <main+0x160>)
    2140:	7818      	ldrb	r0, [r3, #0]
    2142:	4b29      	ldr	r3, [pc, #164]	; (21e8 <main+0x16c>)
    2144:	4798      	blx	r3
			new_data = false; 
    2146:	2200      	movs	r2, #0
    2148:	4b1e      	ldr	r3, [pc, #120]	; (21c4 <main+0x148>)
    214a:	701a      	strb	r2, [r3, #0]
			data_readout = true;
    214c:	2201      	movs	r2, #1
    214e:	4b1f      	ldr	r3, [pc, #124]	; (21cc <main+0x150>)
    2150:	701a      	strb	r2, [r3, #0]
    2152:	e7d3      	b.n	20fc <main+0x80>
			BLDC_OUT->hall_middle_temp = 0;
    2154:	4b25      	ldr	r3, [pc, #148]	; (21ec <main+0x170>)
    2156:	681b      	ldr	r3, [r3, #0]
    2158:	2200      	movs	r2, #0
    215a:	621a      	str	r2, [r3, #32]
			triggerSensor(50);
    215c:	2032      	movs	r0, #50	; 0x32
    215e:	4b24      	ldr	r3, [pc, #144]	; (21f0 <main+0x174>)
    2160:	4798      	blx	r3
			triggered = true;
    2162:	2201      	movs	r2, #1
    2164:	4b18      	ldr	r3, [pc, #96]	; (21c8 <main+0x14c>)
    2166:	701a      	strb	r2, [r3, #0]
			data_readout = false;
    2168:	2200      	movs	r2, #0
    216a:	4b18      	ldr	r3, [pc, #96]	; (21cc <main+0x150>)
    216c:	701a      	strb	r2, [r3, #0]
    216e:	e7c9      	b.n	2104 <main+0x88>
    2170:	000002d1 	.word	0x000002d1
    2174:	000007ad 	.word	0x000007ad
    2178:	20000c20 	.word	0x20000c20
    217c:	200003b0 	.word	0x200003b0
    2180:	00000aa1 	.word	0x00000aa1
    2184:	00000a85 	.word	0x00000a85
    2188:	41008000 	.word	0x41008000
    218c:	20000e9c 	.word	0x20000e9c
    2190:	200011cc 	.word	0x200011cc
    2194:	20000bc8 	.word	0x20000bc8
    2198:	20000ca0 	.word	0x20000ca0
    219c:	20000ef8 	.word	0x20000ef8
    21a0:	20000fe8 	.word	0x20000fe8
    21a4:	20000cf8 	.word	0x20000cf8
    21a8:	200012bc 	.word	0x200012bc
    21ac:	20001040 	.word	0x20001040
    21b0:	00002f3d 	.word	0x00002f3d
    21b4:	20001134 	.word	0x20001134
    21b8:	20000980 	.word	0x20000980
    21bc:	20000f50 	.word	0x20000f50
    21c0:	00003f39 	.word	0x00003f39
    21c4:	20000acc 	.word	0x20000acc
    21c8:	20000ef4 	.word	0x20000ef4
    21cc:	20000c25 	.word	0x20000c25
    21d0:	000029cd 	.word	0x000029cd
    21d4:	20000d68 	.word	0x20000d68
    21d8:	e000e100 	.word	0xe000e100
    21dc:	20000a30 	.word	0x20000a30
    21e0:	20001098 	.word	0x20001098
    21e4:	00002e91 	.word	0x00002e91
    21e8:	00001e4d 	.word	0x00001e4d
    21ec:	20000074 	.word	0x20000074
    21f0:	00002e51 	.word	0x00002e51

000021f4 <TC3_Handler>:
	}
}

void TC3_Handler(void){
	
	if (TC3->COUNT16.INTFLAG.bit.OVF){
    21f4:	4b0d      	ldr	r3, [pc, #52]	; (222c <TC3_Handler+0x38>)
    21f6:	7a9b      	ldrb	r3, [r3, #10]
    21f8:	f013 0f01 	tst.w	r3, #1
    21fc:	d10d      	bne.n	221a <TC3_Handler+0x26>
		TC3->COUNT16.INTFLAG.bit.OVF =1;
		triggered = false;
	}
	else if (TC3->COUNT16.INTFLAG.bit.MC1){
    21fe:	4b0b      	ldr	r3, [pc, #44]	; (222c <TC3_Handler+0x38>)
    2200:	7a9b      	ldrb	r3, [r3, #10]
    2202:	f013 0f20 	tst.w	r3, #32
    2206:	d007      	beq.n	2218 <TC3_Handler+0x24>
		TC3->COUNT16.INTFLAG.bit.MC1 =1;
    2208:	4a08      	ldr	r2, [pc, #32]	; (222c <TC3_Handler+0x38>)
    220a:	7a93      	ldrb	r3, [r2, #10]
    220c:	f043 0320 	orr.w	r3, r3, #32
    2210:	7293      	strb	r3, [r2, #10]
		new_data = true;
    2212:	2201      	movs	r2, #1
    2214:	4b06      	ldr	r3, [pc, #24]	; (2230 <TC3_Handler+0x3c>)
    2216:	701a      	strb	r2, [r3, #0]
    2218:	4770      	bx	lr
		TC3->COUNT16.INTFLAG.bit.OVF =1;
    221a:	4a04      	ldr	r2, [pc, #16]	; (222c <TC3_Handler+0x38>)
    221c:	7a93      	ldrb	r3, [r2, #10]
    221e:	f043 0301 	orr.w	r3, r3, #1
    2222:	7293      	strb	r3, [r2, #10]
		triggered = false;
    2224:	2200      	movs	r2, #0
    2226:	4b03      	ldr	r3, [pc, #12]	; (2234 <TC3_Handler+0x40>)
    2228:	701a      	strb	r2, [r3, #0]
    222a:	4770      	bx	lr
    222c:	4101c000 	.word	0x4101c000
    2230:	20000acc 	.word	0x20000acc
    2234:	20000ef4 	.word	0x20000ef4

00002238 <select_prefix>:
 
}

uint8_t select_prefix(struct MLX90393 *hall_sensor, int order_code_last_digit)
{
    switch(order_code_last_digit){
    2238:	3901      	subs	r1, #1
    223a:	2903      	cmp	r1, #3
    223c:	d805      	bhi.n	224a <select_prefix+0x12>
    223e:	e8df f001 	tbb	[pc, r1]
    2242:	0602      	.short	0x0602
    2244:	0c09      	.short	0x0c09
        case 1: 
          hall_sensor->I2C_prefix = I2C_PREFIX_011 << 2;
    2246:	230c      	movs	r3, #12
    2248:	7043      	strb	r3, [r0, #1]
        case 4: 
          hall_sensor->I2C_prefix = I2C_PREFIX_014 << 2;
          break;//I2C_PREFIX_014 << 1;
    }
    return hall_sensor->I2C_prefix;
}
    224a:	7840      	ldrb	r0, [r0, #1]
    224c:	4770      	bx	lr
          hall_sensor->I2C_prefix = I2C_PREFIX_012 << 2;
    224e:	2310      	movs	r3, #16
    2250:	7043      	strb	r3, [r0, #1]
          break;//I2C_PREFIX_012 << 2;
    2252:	e7fa      	b.n	224a <select_prefix+0x12>
          hall_sensor->I2C_prefix = I2C_PREFIX_013 << 2;
    2254:	2314      	movs	r3, #20
    2256:	7043      	strb	r3, [r0, #1]
          break;//I2C_PREFIX_013 << 1;
    2258:	e7f7      	b.n	224a <select_prefix+0x12>
          hall_sensor->I2C_prefix = I2C_PREFIX_014 << 2;
    225a:	2318      	movs	r3, #24
    225c:	7043      	strb	r3, [r0, #1]
          break;//I2C_PREFIX_014 << 1;
    225e:	e7f4      	b.n	224a <select_prefix+0x12>

00002260 <i2c_m_sync_cmd_write_easy>:
  }
  return status;
}

int32_t i2c_m_sync_cmd_write_easy(struct io_descriptor *io, const uint8_t cmd, const uint8_t *const buf_answer, const uint16_t length_answer)
{
    2260:	b5f0      	push	{r4, r5, r6, r7, lr}
    2262:	b083      	sub	sp, #12
    2264:	4606      	mov	r6, r0
    2266:	4617      	mov	r7, r2
    2268:	461d      	mov	r5, r3
	int32_t ret;
	
	uint8_t buffer_write[1] = {cmd}; 
    226a:	ab02      	add	r3, sp, #8
    226c:	f803 1d04 	strb.w	r1, [r3, #-4]!
	ret = io_write(io, (uint8_t *)buffer_write, 1);
    2270:	2201      	movs	r2, #1
    2272:	4619      	mov	r1, r3
    2274:	4b0a      	ldr	r3, [pc, #40]	; (22a0 <i2c_m_sync_cmd_write_easy+0x40>)
    2276:	4798      	blx	r3
	if (ret != 1) {return -1;}
    2278:	2801      	cmp	r0, #1
    227a:	d10d      	bne.n	2298 <i2c_m_sync_cmd_write_easy+0x38>
    227c:	4604      	mov	r4, r0
	
	ret = io_read(io, (uint8_t *)buf_answer,length_answer);
    227e:	462a      	mov	r2, r5
    2280:	4639      	mov	r1, r7
    2282:	4630      	mov	r0, r6
    2284:	4b07      	ldr	r3, [pc, #28]	; (22a4 <i2c_m_sync_cmd_write_easy+0x44>)
    2286:	4798      	blx	r3
	if (ret != length_answer) {return -1;}
    2288:	42a8      	cmp	r0, r5
    228a:	d102      	bne.n	2292 <i2c_m_sync_cmd_write_easy+0x32>
		
	return 1;
}
    228c:	4620      	mov	r0, r4
    228e:	b003      	add	sp, #12
    2290:	bdf0      	pop	{r4, r5, r6, r7, pc}
	if (ret != length_answer) {return -1;}
    2292:	f04f 34ff 	mov.w	r4, #4294967295
    2296:	e7f9      	b.n	228c <i2c_m_sync_cmd_write_easy+0x2c>
	if (ret != 1) {return -1;}
    2298:	f04f 34ff 	mov.w	r4, #4294967295
    229c:	e7f6      	b.n	228c <i2c_m_sync_cmd_write_easy+0x2c>
    229e:	bf00      	nop
    22a0:	00000aa9 	.word	0x00000aa9
    22a4:	00000add 	.word	0x00000add

000022a8 <sendCommand>:
{
    22a8:	b530      	push	{r4, r5, lr}
    22aa:	b083      	sub	sp, #12
    22ac:	460d      	mov	r5, r1
    22ae:	4614      	mov	r4, r2
  i2c_m_sync_set_slaveaddr(&I2C_0, hall_sensor->I2C_address, I2C_M_SEVEN);
    22b0:	f44f 6200 	mov.w	r2, #2048	; 0x800
    22b4:	7801      	ldrb	r1, [r0, #0]
    22b6:	4808      	ldr	r0, [pc, #32]	; (22d8 <sendCommand+0x30>)
    22b8:	4b08      	ldr	r3, [pc, #32]	; (22dc <sendCommand+0x34>)
    22ba:	4798      	blx	r3
  ret = i2c_m_sync_cmd_write_easy(io, cmd, (uint8_t *)buffer_answer, (uint16_t) 1);
    22bc:	2301      	movs	r3, #1
    22be:	aa01      	add	r2, sp, #4
    22c0:	4629      	mov	r1, r5
    22c2:	4620      	mov	r0, r4
    22c4:	4c06      	ldr	r4, [pc, #24]	; (22e0 <sendCommand+0x38>)
    22c6:	47a0      	blx	r4
  if (ret < 1) {return STATUS_ERROR;}
    22c8:	2800      	cmp	r0, #0
    22ca:	dd03      	ble.n	22d4 <sendCommand+0x2c>
  return buffer_answer[0];
    22cc:	f89d 0004 	ldrb.w	r0, [sp, #4]
}
    22d0:	b003      	add	sp, #12
    22d2:	bd30      	pop	{r4, r5, pc}
  if (ret < 1) {return STATUS_ERROR;}
    22d4:	20ff      	movs	r0, #255	; 0xff
    22d6:	e7fb      	b.n	22d0 <sendCommand+0x28>
    22d8:	200003b0 	.word	0x200003b0
    22dc:	00000a91 	.word	0x00000a91
    22e0:	00002261 	.word	0x00002261

000022e4 <i2c_m_sync_reg_read_easy>:

int32_t i2c_m_sync_reg_read_easy(struct io_descriptor *io, uint8_t cmd, uint8_t reg, const uint8_t *const buf_answer, const uint16_t length_answer)
{
    22e4:	b570      	push	{r4, r5, r6, lr}
    22e6:	b082      	sub	sp, #8
    22e8:	4605      	mov	r5, r0
    22ea:	461e      	mov	r6, r3
    22ec:	f8bd 4018 	ldrh.w	r4, [sp, #24]
	int32_t ret;
	uint8_t buffer_write[2] = {0};
	buffer_write[0] = cmd;
    22f0:	f88d 1004 	strb.w	r1, [sp, #4]
	buffer_write[1]	= reg;
    22f4:	f88d 2005 	strb.w	r2, [sp, #5]
		
	ret = io_write(io, (uint8_t *)buffer_write, 2);
    22f8:	2202      	movs	r2, #2
    22fa:	a901      	add	r1, sp, #4
    22fc:	4b09      	ldr	r3, [pc, #36]	; (2324 <i2c_m_sync_reg_read_easy+0x40>)
    22fe:	4798      	blx	r3
	if (ret != 2) {return -1;}
    2300:	2802      	cmp	r0, #2
    2302:	d10c      	bne.n	231e <i2c_m_sync_reg_read_easy+0x3a>

	ret = io_read(io, (uint8_t *) buf_answer,length_answer);
    2304:	4622      	mov	r2, r4
    2306:	4631      	mov	r1, r6
    2308:	4628      	mov	r0, r5
    230a:	4b07      	ldr	r3, [pc, #28]	; (2328 <i2c_m_sync_reg_read_easy+0x44>)
    230c:	4798      	blx	r3
	if (ret != length_answer) {return -1;}
    230e:	42a0      	cmp	r0, r4
    2310:	d102      	bne.n	2318 <i2c_m_sync_reg_read_easy+0x34>
	
	return 1;
    2312:	2001      	movs	r0, #1
}
    2314:	b002      	add	sp, #8
    2316:	bd70      	pop	{r4, r5, r6, pc}
	if (ret != length_answer) {return -1;}
    2318:	f04f 30ff 	mov.w	r0, #4294967295
    231c:	e7fa      	b.n	2314 <i2c_m_sync_reg_read_easy+0x30>
	if (ret != 2) {return -1;}
    231e:	f04f 30ff 	mov.w	r0, #4294967295
    2322:	e7f7      	b.n	2314 <i2c_m_sync_reg_read_easy+0x30>
    2324:	00000aa9 	.word	0x00000aa9
    2328:	00000add 	.word	0x00000add

0000232c <i2c_m_sync_reg_write_easy>:

int32_t i2c_m_sync_reg_write_easy(struct io_descriptor *io, uint8_t cmd, uint16_t data, uint8_t reg, const uint8_t *const buf_answer)
{
    232c:	b510      	push	{r4, lr}
    232e:	b082      	sub	sp, #8
    2330:	4604      	mov	r4, r0
	int32_t ret;

	uint8_t buffer_write[4] = {0};
	buffer_write[0] = cmd;
    2332:	f88d 1004 	strb.w	r1, [sp, #4]
	buffer_write[1] = (data & 0xff00) >> 8;
    2336:	0a11      	lsrs	r1, r2, #8
    2338:	f88d 1005 	strb.w	r1, [sp, #5]
	buffer_write[2] = data & 0x00ff;
    233c:	f88d 2006 	strb.w	r2, [sp, #6]
	buffer_write[3] = reg;
    2340:	f88d 3007 	strb.w	r3, [sp, #7]
	
	ret = io_write(io, (uint8_t *)buffer_write, 4);
    2344:	2204      	movs	r2, #4
    2346:	eb0d 0102 	add.w	r1, sp, r2
    234a:	4b09      	ldr	r3, [pc, #36]	; (2370 <i2c_m_sync_reg_write_easy+0x44>)
    234c:	4798      	blx	r3
	if (ret != 4) {return -1;}
    234e:	2804      	cmp	r0, #4
    2350:	d10b      	bne.n	236a <i2c_m_sync_reg_write_easy+0x3e>
		
	ret = io_read(io, (uint8_t *)buf_answer,1);
    2352:	2201      	movs	r2, #1
    2354:	9904      	ldr	r1, [sp, #16]
    2356:	4620      	mov	r0, r4
    2358:	4b06      	ldr	r3, [pc, #24]	; (2374 <i2c_m_sync_reg_write_easy+0x48>)
    235a:	4798      	blx	r3
	if (ret != 1) {return -1;}
    235c:	2801      	cmp	r0, #1
    235e:	d101      	bne.n	2364 <i2c_m_sync_reg_write_easy+0x38>
	
	return 1;
		
}
    2360:	b002      	add	sp, #8
    2362:	bd10      	pop	{r4, pc}
	if (ret != 1) {return -1;}
    2364:	f04f 30ff 	mov.w	r0, #4294967295
    2368:	e7fa      	b.n	2360 <i2c_m_sync_reg_write_easy+0x34>
	if (ret != 4) {return -1;}
    236a:	f04f 30ff 	mov.w	r0, #4294967295
    236e:	e7f7      	b.n	2360 <i2c_m_sync_reg_write_easy+0x34>
    2370:	00000aa9 	.word	0x00000aa9
    2374:	00000add 	.word	0x00000add

00002378 <cache_invalidate>:


// cache functions
void cache_invalidate(struct MLX90393 *hall_sensor)
{
  hall_sensor->cache.dirty = ALL_DIRTY_MASK;
    2378:	2308      	movs	r3, #8
    237a:	f880 3038 	strb.w	r3, [r0, #56]	; 0x38
    237e:	4770      	bx	lr

00002380 <initialize>:
void initialize(struct MLX90393 *hall_sensor) {
    2380:	b508      	push	{r3, lr}
    hall_sensor->I2C_prefix = 0;
    2382:	2200      	movs	r2, #0
    2384:	7042      	strb	r2, [r0, #1]
    hall_sensor->I2C_address = 0;
    2386:	7002      	strb	r2, [r0, #0]
    hall_sensor->gain_multipliers[0] = 5.f;
    2388:	4a0e      	ldr	r2, [pc, #56]	; (23c4 <initialize+0x44>)
    238a:	6082      	str	r2, [r0, #8]
    hall_sensor->gain_multipliers[1] = 4.f;
    238c:	f04f 4281 	mov.w	r2, #1082130432	; 0x40800000
    2390:	60c2      	str	r2, [r0, #12]
    hall_sensor->gain_multipliers[2] = 3.f;
    2392:	4a0d      	ldr	r2, [pc, #52]	; (23c8 <initialize+0x48>)
    2394:	6102      	str	r2, [r0, #16]
    hall_sensor->gain_multipliers[3] = 2.5f;
    2396:	4a0d      	ldr	r2, [pc, #52]	; (23cc <initialize+0x4c>)
    2398:	6142      	str	r2, [r0, #20]
    hall_sensor->gain_multipliers[4] = 2.f;
    239a:	f04f 4280 	mov.w	r2, #1073741824	; 0x40000000
    239e:	6182      	str	r2, [r0, #24]
    hall_sensor->gain_multipliers[5] = 1.66666667f;
    23a0:	4a0b      	ldr	r2, [pc, #44]	; (23d0 <initialize+0x50>)
    23a2:	61c2      	str	r2, [r0, #28]
    hall_sensor->gain_multipliers[6] = 1.33333333f;
    23a4:	4a0b      	ldr	r2, [pc, #44]	; (23d4 <initialize+0x54>)
    23a6:	6202      	str	r2, [r0, #32]
    hall_sensor->gain_multipliers[7] = 1.f;
    23a8:	f04f 527e 	mov.w	r2, #1065353216	; 0x3f800000
    23ac:	6242      	str	r2, [r0, #36]	; 0x24
    hall_sensor->base_xy_sens_hc0 = 0.196f;
    23ae:	4a0a      	ldr	r2, [pc, #40]	; (23d8 <initialize+0x58>)
    23b0:	6282      	str	r2, [r0, #40]	; 0x28
    hall_sensor->base_z_sens_hc0 = 0.316f;
    23b2:	4a0a      	ldr	r2, [pc, #40]	; (23dc <initialize+0x5c>)
    23b4:	62c2      	str	r2, [r0, #44]	; 0x2c
    hall_sensor->base_xy_sens_hc0xc = 0.150f;
    23b6:	4a0a      	ldr	r2, [pc, #40]	; (23e0 <initialize+0x60>)
    23b8:	6302      	str	r2, [r0, #48]	; 0x30
    hall_sensor->base_z_sens_hc0xc = 0.242f;
    23ba:	4a0a      	ldr	r2, [pc, #40]	; (23e4 <initialize+0x64>)
    23bc:	6342      	str	r2, [r0, #52]	; 0x34
    cache_invalidate(hall_sensor);
    23be:	4b0a      	ldr	r3, [pc, #40]	; (23e8 <initialize+0x68>)
    23c0:	4798      	blx	r3
    23c2:	bd08      	pop	{r3, pc}
    23c4:	40a00000 	.word	0x40a00000
    23c8:	40400000 	.word	0x40400000
    23cc:	40200000 	.word	0x40200000
    23d0:	3fd55555 	.word	0x3fd55555
    23d4:	3faaaaab 	.word	0x3faaaaab
    23d8:	3e48b439 	.word	0x3e48b439
    23dc:	3ea1cac1 	.word	0x3ea1cac1
    23e0:	3e19999a 	.word	0x3e19999a
    23e4:	3e77ced9 	.word	0x3e77ced9
    23e8:	00002379 	.word	0x00002379

000023ec <cache_invalidate_address>:
}

void cache_invalidate_address(struct MLX90393 *hall_sensor, uint8_t address)
{
  hall_sensor->cache.dirty |= ALL_DIRTY_MASK & (1<<address);
    23ec:	2301      	movs	r3, #1
    23ee:	fa03 f101 	lsl.w	r1, r3, r1
    23f2:	f001 0108 	and.w	r1, r1, #8
    23f6:	f890 3038 	ldrb.w	r3, [r0, #56]	; 0x38
    23fa:	4319      	orrs	r1, r3
    23fc:	f880 1038 	strb.w	r1, [r0, #56]	; 0x38
    2400:	4770      	bx	lr

00002402 <cache_set>:
}

void cache_set(struct MLX90393 *hall_sensor, uint8_t address, uint16_t data){
  if (address < CACHESIZE){
    2402:	2902      	cmp	r1, #2
    2404:	d80c      	bhi.n	2420 <cache_set+0x1e>
    hall_sensor->cache.reg[address] = data;
    2406:	f101 031c 	add.w	r3, r1, #28
    240a:	eb00 0343 	add.w	r3, r0, r3, lsl #1
    240e:	805a      	strh	r2, [r3, #2]
    hall_sensor->cache.dirty &= ~(1 << address);
    2410:	2301      	movs	r3, #1
    2412:	408b      	lsls	r3, r1
    2414:	f890 1038 	ldrb.w	r1, [r0, #56]	; 0x38
    2418:	ea21 0103 	bic.w	r1, r1, r3
    241c:	f880 1038 	strb.w	r1, [r0, #56]	; 0x38
    2420:	4770      	bx	lr
	...

00002424 <readRegister>:
{
    2424:	b5f0      	push	{r4, r5, r6, r7, lr}
    2426:	b085      	sub	sp, #20
    2428:	4604      	mov	r4, r0
    242a:	460d      	mov	r5, r1
    242c:	4617      	mov	r7, r2
    242e:	461e      	mov	r6, r3
  i2c_m_sync_set_slaveaddr(&I2C_0, hall_sensor->I2C_address, I2C_M_SEVEN);
    2430:	f44f 6200 	mov.w	r2, #2048	; 0x800
    2434:	7801      	ldrb	r1, [r0, #0]
    2436:	4810      	ldr	r0, [pc, #64]	; (2478 <readRegister+0x54>)
    2438:	4b10      	ldr	r3, [pc, #64]	; (247c <readRegister+0x58>)
    243a:	4798      	blx	r3
  uint8_t reg_adress = (address & 0x3f)<<2;
    243c:	00aa      	lsls	r2, r5, #2
  ret = i2c_m_sync_reg_read_easy(io, cmd, reg_adress, (uint8_t *)buffer, (uint16_t) 3);
    243e:	2303      	movs	r3, #3
    2440:	9300      	str	r3, [sp, #0]
    2442:	ab03      	add	r3, sp, #12
    2444:	f002 02fc 	and.w	r2, r2, #252	; 0xfc
    2448:	2150      	movs	r1, #80	; 0x50
    244a:	4630      	mov	r0, r6
    244c:	4e0c      	ldr	r6, [pc, #48]	; (2480 <readRegister+0x5c>)
    244e:	47b0      	blx	r6
  if (ret < 1) {return STATUS_ERROR;}
    2450:	2800      	cmp	r0, #0
    2452:	dc03      	bgt.n	245c <readRegister+0x38>
    2454:	26ff      	movs	r6, #255	; 0xff
}
    2456:	4630      	mov	r0, r6
    2458:	b005      	add	sp, #20
    245a:	bdf0      	pop	{r4, r5, r6, r7, pc}
  uint8_t status = buffer[0];
    245c:	f89d 600c 	ldrb.w	r6, [sp, #12]
  uint8_t b_h = buffer[1];
    2460:	f89d 300d 	ldrb.w	r3, [sp, #13]
  uint8_t b_l = buffer[2];
    2464:	f89d 200e 	ldrb.w	r2, [sp, #14]
  *(data) = ((uint16_t) b_h <<8) | b_l;
    2468:	ea42 2203 	orr.w	r2, r2, r3, lsl #8
    246c:	803a      	strh	r2, [r7, #0]
  cache_set(hall_sensor, address, *(data));
    246e:	4629      	mov	r1, r5
    2470:	4620      	mov	r0, r4
    2472:	4b04      	ldr	r3, [pc, #16]	; (2484 <readRegister+0x60>)
    2474:	4798      	blx	r3
  return status;
    2476:	e7ee      	b.n	2456 <readRegister+0x32>
    2478:	200003b0 	.word	0x200003b0
    247c:	00000a91 	.word	0x00000a91
    2480:	000022e5 	.word	0x000022e5
    2484:	00002403 	.word	0x00002403

00002488 <reset>:
}

//sensor commands 

uint8_t reset(struct MLX90393 *hall_sensor, struct io_descriptor *io)
{
    2488:	b538      	push	{r3, r4, r5, lr}
    248a:	4604      	mov	r4, r0
    248c:	460d      	mov	r5, r1
  cache_invalidate(hall_sensor);
    248e:	4b06      	ldr	r3, [pc, #24]	; (24a8 <reset+0x20>)
    2490:	4798      	blx	r3

  uint8_t status = sendCommand(hall_sensor, CMD_RESET, io);
    2492:	462a      	mov	r2, r5
    2494:	21f0      	movs	r1, #240	; 0xf0
    2496:	4620      	mov	r0, r4
    2498:	4b04      	ldr	r3, [pc, #16]	; (24ac <reset+0x24>)
    249a:	4798      	blx	r3
    249c:	4604      	mov	r4, r0
  //Device now resets. We must give it time to complete
  delay_ms(3);
    249e:	2003      	movs	r0, #3
    24a0:	4b03      	ldr	r3, [pc, #12]	; (24b0 <reset+0x28>)
    24a2:	4798      	blx	r3
  // POR is 1.6ms max. Software reset time limit is not specified.
  // 2ms was found to be good.

  return status;
}
    24a4:	4620      	mov	r0, r4
    24a6:	bd38      	pop	{r3, r4, r5, pc}
    24a8:	00002379 	.word	0x00002379
    24ac:	000022a9 	.word	0x000022a9
    24b0:	000009c5 	.word	0x000009c5

000024b4 <exit_command>:
{
  return sendCommand(hall_sensor, CMD_NOP, io);
}

uint8_t exit_command(struct MLX90393 *hall_sensor, struct io_descriptor *io)
{
    24b4:	b508      	push	{r3, lr}
  return sendCommand(hall_sensor, CMD_EXIT, io);
    24b6:	460a      	mov	r2, r1
    24b8:	2180      	movs	r1, #128	; 0x80
    24ba:	4b01      	ldr	r3, [pc, #4]	; (24c0 <exit_command+0xc>)
    24bc:	4798      	blx	r3
  delay_ms(2);
}
    24be:	bd08      	pop	{r3, pc}
    24c0:	000022a9 	.word	0x000022a9

000024c4 <readMeasurement>:
  uint8_t cmd = CMD_START_MEASUREMENT | (zyxt_flags & 0xf);
  return sendCommand(hall_sensor, cmd, io);
}

uint8_t readMeasurement(struct MLX90393 *hall_sensor, uint8_t zyxt_flags, struct io_descriptor *io)
{
    24c4:	e92d 47f0 	stmdb	sp!, {r4, r5, r6, r7, r8, r9, sl, lr}
    24c8:	b084      	sub	sp, #16
    24ca:	4605      	mov	r5, r0
    24cc:	460c      	mov	r4, r1
    24ce:	4690      	mov	r8, r2
  uint8_t cmd = CMD_READ_MEASUREMENT | (zyxt_flags & 0xf);
    24d0:	f001 060f 	and.w	r6, r1, #15
    24d4:	f046 0640 	orr.w	r6, r6, #64	; 0x40
  
  i2c_m_sync_set_slaveaddr(&I2C_0, hall_sensor->I2C_address, I2C_M_SEVEN);
    24d8:	f44f 6200 	mov.w	r2, #2048	; 0x800
    24dc:	7801      	ldrb	r1, [r0, #0]
    24de:	483d      	ldr	r0, [pc, #244]	; (25d4 <readMeasurement+0x110>)
    24e0:	4b3d      	ldr	r3, [pc, #244]	; (25d8 <readMeasurement+0x114>)
    24e2:	4798      	blx	r3

  int32_t ret;

  uint8_t buffer[9];
  uint8_t count = 1 + (((zyxt_flags & Z_FLAG)?2:0) +
    24e4:	f014 0908 	ands.w	r9, r4, #8
    24e8:	d05b      	beq.n	25a2 <readMeasurement+0xde>
    24ea:	2302      	movs	r3, #2
    24ec:	f014 0a04 	ands.w	sl, r4, #4
    24f0:	d059      	beq.n	25a6 <readMeasurement+0xe2>
    24f2:	2202      	movs	r2, #2
    24f4:	4413      	add	r3, r2
                       ((zyxt_flags & Y_FLAG)?2:0) +
                       ((zyxt_flags & X_FLAG)?2:0) +
    24f6:	f004 0702 	and.w	r7, r4, #2
                       ((zyxt_flags & Y_FLAG)?2:0) +
    24fa:	443b      	add	r3, r7
    24fc:	b2da      	uxtb	r2, r3
                       ((zyxt_flags & X_FLAG)?2:0) +
    24fe:	f014 0401 	ands.w	r4, r4, #1
    2502:	d052      	beq.n	25aa <readMeasurement+0xe6>
    2504:	2302      	movs	r3, #2
    2506:	4413      	add	r3, r2
    2508:	b2db      	uxtb	r3, r3
  uint8_t count = 1 + (((zyxt_flags & Z_FLAG)?2:0) +
    250a:	3301      	adds	r3, #1
                       ((zyxt_flags & T_FLAG)?2:0) );

    ret = i2c_m_sync_cmd_write_easy(io, cmd, (uint8_t *)buffer, (uint16_t) count);
    250c:	b2db      	uxtb	r3, r3
    250e:	aa01      	add	r2, sp, #4
    2510:	4631      	mov	r1, r6
    2512:	4640      	mov	r0, r8
    2514:	4e31      	ldr	r6, [pc, #196]	; (25dc <readMeasurement+0x118>)
    2516:	47b0      	blx	r6
    
    if (ret < 1) {return STATUS_ERROR;}
    2518:	2800      	cmp	r0, #0
    251a:	dd59      	ble.n	25d0 <readMeasurement+0x10c>

  uint8_t i = 1;
  if (zyxt_flags & T_FLAG){
    251c:	2c00      	cmp	r4, #0
    251e:	d046      	beq.n	25ae <readMeasurement+0xea>
    hall_sensor->dataRaw.t =  ((uint16_t) buffer[i] <<8) | buffer[i+1];
    2520:	f89d 2005 	ldrb.w	r2, [sp, #5]
    2524:	f89d 3006 	ldrb.w	r3, [sp, #6]
    2528:	ea43 2302 	orr.w	r3, r3, r2, lsl #8
    252c:	f8a5 3040 	strh.w	r3, [r5, #64]	; 0x40
    i += 2;
    2530:	2303      	movs	r3, #3
  } else {
    hall_sensor->dataRaw.t = 0;
  }
  if (zyxt_flags & X_FLAG){
    2532:	2f00      	cmp	r7, #0
    2534:	d040      	beq.n	25b8 <readMeasurement+0xf4>
    hall_sensor->dataRaw.x =  ((uint16_t) buffer[i] <<8) | buffer[i+1];
    2536:	aa04      	add	r2, sp, #16
    2538:	441a      	add	r2, r3
    253a:	f812 0c0c 	ldrb.w	r0, [r2, #-12]
    253e:	1c59      	adds	r1, r3, #1
    2540:	aa04      	add	r2, sp, #16
    2542:	4411      	add	r1, r2
    2544:	f811 2c0c 	ldrb.w	r2, [r1, #-12]
    2548:	ea42 2200 	orr.w	r2, r2, r0, lsl #8
    254c:	f8a5 2042 	strh.w	r2, [r5, #66]	; 0x42
    i += 2;
    2550:	3302      	adds	r3, #2
    2552:	b2db      	uxtb	r3, r3
  } else {
    hall_sensor->dataRaw.x = 0;
  }
  if (zyxt_flags & Y_FLAG){
    2554:	f1ba 0f00 	cmp.w	sl, #0
    2558:	d032      	beq.n	25c0 <readMeasurement+0xfc>
    hall_sensor->dataRaw.y =  ((uint16_t) buffer[i] <<8) | buffer[i+1];
    255a:	aa04      	add	r2, sp, #16
    255c:	441a      	add	r2, r3
    255e:	f812 0c0c 	ldrb.w	r0, [r2, #-12]
    2562:	1c59      	adds	r1, r3, #1
    2564:	aa04      	add	r2, sp, #16
    2566:	4411      	add	r1, r2
    2568:	f811 2c0c 	ldrb.w	r2, [r1, #-12]
    256c:	ea42 2200 	orr.w	r2, r2, r0, lsl #8
    2570:	f8a5 2044 	strh.w	r2, [r5, #68]	; 0x44
    i += 2;
    2574:	3302      	adds	r3, #2
    2576:	b2db      	uxtb	r3, r3
  } else {
    hall_sensor->dataRaw.y = 0;
  }
  if (zyxt_flags & Z_FLAG){
    2578:	f1b9 0f00 	cmp.w	r9, #0
    257c:	d024      	beq.n	25c8 <readMeasurement+0x104>
    hall_sensor->dataRaw.z =  ((uint16_t) buffer[i] <<8) | buffer[i+1];
    257e:	aa04      	add	r2, sp, #16
    2580:	441a      	add	r2, r3
    2582:	f812 2c0c 	ldrb.w	r2, [r2, #-12]
    2586:	3301      	adds	r3, #1
    2588:	a904      	add	r1, sp, #16
    258a:	440b      	add	r3, r1
    258c:	f813 3c0c 	ldrb.w	r3, [r3, #-12]
    2590:	ea43 2302 	orr.w	r3, r3, r2, lsl #8
    2594:	f8a5 3046 	strh.w	r3, [r5, #70]	; 0x46
    i += 2;
  } else {
    hall_sensor->dataRaw.z = 0;
  }

  return buffer[0];
    2598:	f89d 0004 	ldrb.w	r0, [sp, #4]
}
    259c:	b004      	add	sp, #16
    259e:	e8bd 87f0 	ldmia.w	sp!, {r4, r5, r6, r7, r8, r9, sl, pc}
  uint8_t count = 1 + (((zyxt_flags & Z_FLAG)?2:0) +
    25a2:	2300      	movs	r3, #0
    25a4:	e7a2      	b.n	24ec <readMeasurement+0x28>
    25a6:	2200      	movs	r2, #0
    25a8:	e7a4      	b.n	24f4 <readMeasurement+0x30>
                       ((zyxt_flags & X_FLAG)?2:0) +
    25aa:	2300      	movs	r3, #0
    25ac:	e7ab      	b.n	2506 <readMeasurement+0x42>
    hall_sensor->dataRaw.t = 0;
    25ae:	2300      	movs	r3, #0
    25b0:	f8a5 3040 	strh.w	r3, [r5, #64]	; 0x40
  uint8_t i = 1;
    25b4:	2301      	movs	r3, #1
    25b6:	e7bc      	b.n	2532 <readMeasurement+0x6e>
    hall_sensor->dataRaw.x = 0;
    25b8:	2200      	movs	r2, #0
    25ba:	f8a5 2042 	strh.w	r2, [r5, #66]	; 0x42
    25be:	e7c9      	b.n	2554 <readMeasurement+0x90>
    hall_sensor->dataRaw.y = 0;
    25c0:	2200      	movs	r2, #0
    25c2:	f8a5 2044 	strh.w	r2, [r5, #68]	; 0x44
    25c6:	e7d7      	b.n	2578 <readMeasurement+0xb4>
    hall_sensor->dataRaw.z = 0;
    25c8:	2300      	movs	r3, #0
    25ca:	f8a5 3046 	strh.w	r3, [r5, #70]	; 0x46
    25ce:	e7e3      	b.n	2598 <readMeasurement+0xd4>
    if (ret < 1) {return STATUS_ERROR;}
    25d0:	20ff      	movs	r0, #255	; 0xff
    25d2:	e7e3      	b.n	259c <readMeasurement+0xd8>
    25d4:	200003b0 	.word	0x200003b0
    25d8:	00000a91 	.word	0x00000a91
    25dc:	00002261 	.word	0x00002261

000025e0 <convertRaw>:
{
  return sendCommand(hall_sensor, CMD_MEMORY_STORE, io);
}

void convertRaw(struct MLX90393 *hall_sensor)
{
    25e0:	b470      	push	{r4, r5, r6}
  const uint8_t gain_sel = (hall_sensor->cache.reg[GAIN_SEL_REG] & GAIN_SEL_MASK) >> GAIN_SEL_SHIFT;
    25e2:	8f42      	ldrh	r2, [r0, #58]	; 0x3a
    25e4:	f3c2 1302 	ubfx	r3, r2, #4, #3
  const uint8_t hallconf = (hall_sensor->cache.reg[HALLCONF_REG] & HALLCONF_MASK) >> HALLCONF_SHIFT;
    25e8:	f002 020f 	and.w	r2, r2, #15
  const uint8_t res_xyz = (hall_sensor->cache.reg[RES_XYZ_REG] & RES_XYZ_MASK) >> RES_XYZ_SHIFT;
    25ec:	8fc1      	ldrh	r1, [r0, #62]	; 0x3e
    25ee:	f3c1 1147 	ubfx	r1, r1, #5, #8
    25f2:	f001 053f 	and.w	r5, r1, #63	; 0x3f
  const uint8_t res_x = (res_xyz >> 0) & 0x3;
    25f6:	f001 0103 	and.w	r1, r1, #3
  const uint8_t res_y = (res_xyz >> 2) & 0x3;
    25fa:	f3c5 0681 	ubfx	r6, r5, #2, #2
  const uint8_t res_z = (res_xyz >> 4) & 0x3;
    25fe:	092d      	lsrs	r5, r5, #4
  uint8_t tcmp_en = (hall_sensor->cache.reg[TCMP_EN_REG] & TCMP_EN_MASK) >> TCMP_EN_SHIFT;
    2600:	8f84      	ldrh	r4, [r0, #60]	; 0x3c
    2602:	f3c4 2480 	ubfx	r4, r4, #10, #1

  float xy_sens;
  float z_sens;

  switch(hallconf){
    2606:	2a0c      	cmp	r2, #12
    2608:	f000 8091 	beq.w	272e <convertRaw+0x14e>
  default:
  case 0:
    xy_sens = hall_sensor->base_xy_sens_hc0;
    260c:	ed90 5a0a 	vldr	s10, [r0, #40]	; 0x28
    z_sens = hall_sensor->base_z_sens_hc0;
    2610:	edd0 4a0b 	vldr	s9, [r0, #44]	; 0x2c
    xy_sens = hall_sensor->base_xy_sens_hc0xc;
    z_sens = hall_sensor->base_z_sens_hc0xc;
    break;
  }

  float gain_factor = hall_sensor->gain_multipliers[gain_sel & 0x7];
    2614:	3302      	adds	r3, #2
    2616:	eb00 0383 	add.w	r3, r0, r3, lsl #2
    261a:	edd3 5a00 	vldr	s11, [r3]

  if (tcmp_en){
    261e:	2c00      	cmp	r4, #0
    2620:	f000 808a 	beq.w	2738 <convertRaw+0x158>
    hall_sensor->data.x = ( (hall_sensor->dataRaw.x - 32768.f) * xy_sens *
    2624:	f8b0 3042 	ldrh.w	r3, [r0, #66]	; 0x42
    2628:	ee06 3a90 	vmov	s13, r3
    262c:	eef8 6ae6 	vcvt.f32.s32	s13, s13
    2630:	eddf 7ae0 	vldr	s15, [pc, #896]	; 29b4 <convertRaw+0x3d4>
    2634:	ee76 6ae7 	vsub.f32	s13, s13, s15
    2638:	ee65 6a26 	vmul.f32	s13, s10, s13
    263c:	ee65 6aa6 	vmul.f32	s13, s11, s13
               gain_factor * (1 << res_x) );
    2640:	2201      	movs	r2, #1
    2642:	fa02 f101 	lsl.w	r1, r2, r1
    2646:	ee07 1a90 	vmov	s15, r1
    264a:	eeb8 6ae7 	vcvt.f32.s32	s12, s15
    264e:	ee66 6a26 	vmul.f32	s13, s12, s13
    hall_sensor->data.x = ( (hall_sensor->dataRaw.x - 32768.f) * xy_sens *
    2652:	edc0 6a13 	vstr	s13, [r0, #76]	; 0x4c
                 gain_factor * (1 << res_x) );
      break;
    }
  }

  if (tcmp_en){
    2656:	2c00      	cmp	r4, #0
    2658:	f000 80d4 	beq.w	2804 <convertRaw+0x224>
    hall_sensor->data.y = ( (hall_sensor->dataRaw.y - 32768.f) * xy_sens *
    265c:	f8b0 3044 	ldrh.w	r3, [r0, #68]	; 0x44
    2660:	ee07 3a10 	vmov	s14, r3
    2664:	eeb8 7ac7 	vcvt.f32.s32	s14, s14
    2668:	eddf 7ad2 	vldr	s15, [pc, #840]	; 29b4 <convertRaw+0x3d4>
    266c:	ee37 7a67 	vsub.f32	s14, s14, s15
    2670:	ee25 7a07 	vmul.f32	s14, s10, s14
    2674:	ee25 7a87 	vmul.f32	s14, s11, s14
               gain_factor * (1 << res_y) );
    2678:	2301      	movs	r3, #1
    267a:	40b3      	lsls	r3, r6
    267c:	ee07 3a90 	vmov	s15, r3
    2680:	eef8 6ae7 	vcvt.f32.s32	s13, s15
    2684:	ee26 7a87 	vmul.f32	s14, s13, s14
    hall_sensor->data.y = ( (hall_sensor->dataRaw.y - 32768.f) * xy_sens *
    2688:	ed80 7a14 	vstr	s14, [r0, #80]	; 0x50
                 gain_factor * (1 << res_y) );
      break;
    }
  }

  if (tcmp_en){
    268c:	2c00      	cmp	r4, #0
    268e:	f000 811c 	beq.w	28ca <convertRaw+0x2ea>
    hall_sensor->data.z = ( (hall_sensor->dataRaw.z - 32768.f) * z_sens *
    2692:	f8b0 3046 	ldrh.w	r3, [r0, #70]	; 0x46
    2696:	ee07 3a90 	vmov	s15, r3
    269a:	eef8 7ae7 	vcvt.f32.s32	s15, s15
    269e:	ed9f 7ac5 	vldr	s14, [pc, #788]	; 29b4 <convertRaw+0x3d4>
    26a2:	ee77 7ac7 	vsub.f32	s15, s15, s14
    26a6:	ee64 7aa7 	vmul.f32	s15, s9, s15
    26aa:	ee65 7aa7 	vmul.f32	s15, s11, s15
               gain_factor * (1 << res_z) );
    26ae:	2301      	movs	r3, #1
    26b0:	fa03 f505 	lsl.w	r5, r3, r5
    26b4:	ee07 5a10 	vmov	s14, r5
    26b8:	eeb8 7ac7 	vcvt.f32.s32	s14, s14
    26bc:	ee67 7a27 	vmul.f32	s15, s14, s15
    hall_sensor->data.z = ( (hall_sensor->dataRaw.z - 32768.f) * z_sens *
    26c0:	edc0 7a15 	vstr	s15, [r0, #84]	; 0x54
                 gain_factor * (1 << res_z) );
      break;
    }
  }

  hall_sensor->data.t = 25 + (hall_sensor->dataRaw.t - 46244.f)/45.2f;
    26c4:	f8b0 3040 	ldrh.w	r3, [r0, #64]	; 0x40
    26c8:	ee07 3a90 	vmov	s15, r3
    26cc:	eef8 7ae7 	vcvt.f32.s32	s15, s15
    26d0:	ed9f 7ab9 	vldr	s14, [pc, #740]	; 29b8 <convertRaw+0x3d8>
    26d4:	ee77 7ac7 	vsub.f32	s15, s15, s14
    26d8:	eddf 6ab8 	vldr	s13, [pc, #736]	; 29bc <convertRaw+0x3dc>
    26dc:	ee87 7aa6 	vdiv.f32	s14, s15, s13
    26e0:	eef3 7a09 	vmov.f32	s15, #57	; 0x41c80000  25.0
    26e4:	ee77 7a27 	vadd.f32	s15, s14, s15
    26e8:	edc0 7a12 	vstr	s15, [r0, #72]	; 0x48
  
  if (hall_sensor->data.x >50000)
    26ec:	edd0 7a13 	vldr	s15, [r0, #76]	; 0x4c
    26f0:	ed9f 7ab3 	vldr	s14, [pc, #716]	; 29c0 <convertRaw+0x3e0>
    26f4:	eef4 7ac7 	vcmpe.f32	s15, s14
    26f8:	eef1 fa10 	vmrs	APSR_nzcv, fpscr
    26fc:	f340 814a 	ble.w	2994 <convertRaw+0x3b4>
  {
	  hall_sensor->data.x = 50000;
    2700:	ed80 7a13 	vstr	s14, [r0, #76]	; 0x4c
	  if (hall_sensor->data.x < -50000)
	  {
		  hall_sensor->data.x = -50000;
	  }
  }
    if (hall_sensor->data.y > 50000)
    2704:	edd0 7a14 	vldr	s15, [r0, #80]	; 0x50
    2708:	ed9f 7aad 	vldr	s14, [pc, #692]	; 29c0 <convertRaw+0x3e0>
    270c:	eef4 7ac7 	vcmpe.f32	s15, s14
    2710:	eef1 fa10 	vmrs	APSR_nzcv, fpscr
    2714:	f300 8149 	bgt.w	29aa <convertRaw+0x3ca>
    {
	    hall_sensor->data.y = 50000;
    }
    else
    {
	    if (hall_sensor->data.y < -50000)
    2718:	ed9f 7aaa 	vldr	s14, [pc, #680]	; 29c4 <convertRaw+0x3e4>
    271c:	eef4 7ac7 	vcmpe.f32	s15, s14
    2720:	eef1 fa10 	vmrs	APSR_nzcv, fpscr
    2724:	f140 8143 	bpl.w	29ae <convertRaw+0x3ce>
	    {
		    hall_sensor->data.y = -50000;
    2728:	ed80 7a14 	vstr	s14, [r0, #80]	; 0x50
	    if (hall_sensor->data.z < -50000)
	    {
		    //hall_sensor->data.z = -50000;
	    }
    }
}
    272c:	e13f      	b.n	29ae <convertRaw+0x3ce>
    xy_sens = hall_sensor->base_xy_sens_hc0xc;
    272e:	ed90 5a0c 	vldr	s10, [r0, #48]	; 0x30
    z_sens = hall_sensor->base_z_sens_hc0xc;
    2732:	edd0 4a0d 	vldr	s9, [r0, #52]	; 0x34
    break;
    2736:	e76d      	b.n	2614 <convertRaw+0x34>
    switch(res_x){
    2738:	2903      	cmp	r1, #3
    273a:	d88c      	bhi.n	2656 <convertRaw+0x76>
    273c:	e8df f001 	tbb	[pc, r1]
    2740:	482e1802 	.word	0x482e1802
		hall_sensor->data.x = (int16_t) hall_sensor->dataRaw.x * xy_sens * gain_factor * (1 << res_x);
    2744:	f9b0 3042 	ldrsh.w	r3, [r0, #66]	; 0x42
    2748:	ee07 3a90 	vmov	s15, r3
    274c:	eef8 7ae7 	vcvt.f32.s32	s15, s15
    2750:	ee67 7a85 	vmul.f32	s15, s15, s10
    2754:	ee25 7aa7 	vmul.f32	s14, s11, s15
    2758:	2301      	movs	r3, #1
    275a:	fa03 f101 	lsl.w	r1, r3, r1
    275e:	ee07 1a90 	vmov	s15, r1
    2762:	eef8 7ae7 	vcvt.f32.s32	s15, s15
    2766:	ee67 7a87 	vmul.f32	s15, s15, s14
    276a:	edc0 7a13 	vstr	s15, [r0, #76]	; 0x4c
		break;
    276e:	e772      	b.n	2656 <convertRaw+0x76>
      hall_sensor->data.x = (int16_t) hall_sensor->dataRaw.x * xy_sens * gain_factor * (1 << res_x);
    2770:	f9b0 3042 	ldrsh.w	r3, [r0, #66]	; 0x42
    2774:	ee07 3a90 	vmov	s15, r3
    2778:	eef8 7ae7 	vcvt.f32.s32	s15, s15
    277c:	ee67 7a85 	vmul.f32	s15, s15, s10
    2780:	ee25 7aa7 	vmul.f32	s14, s11, s15
    2784:	2301      	movs	r3, #1
    2786:	fa03 f101 	lsl.w	r1, r3, r1
    278a:	ee07 1a90 	vmov	s15, r1
    278e:	eef8 7ae7 	vcvt.f32.s32	s15, s15
    2792:	ee67 7a87 	vmul.f32	s15, s15, s14
    2796:	edc0 7a13 	vstr	s15, [r0, #76]	; 0x4c
      break;
    279a:	e75c      	b.n	2656 <convertRaw+0x76>
      hall_sensor->data.x = ( (hall_sensor->dataRaw.x - 32768.f) * xy_sens *
    279c:	f8b0 3042 	ldrh.w	r3, [r0, #66]	; 0x42
    27a0:	ee07 3a90 	vmov	s15, r3
    27a4:	eef8 7ae7 	vcvt.f32.s32	s15, s15
    27a8:	ed9f 7a82 	vldr	s14, [pc, #520]	; 29b4 <convertRaw+0x3d4>
    27ac:	ee77 7ac7 	vsub.f32	s15, s15, s14
    27b0:	ee65 7a27 	vmul.f32	s15, s10, s15
    27b4:	ee65 7aa7 	vmul.f32	s15, s11, s15
                 gain_factor * (1 << res_x) );
    27b8:	2301      	movs	r3, #1
    27ba:	fa03 f101 	lsl.w	r1, r3, r1
    27be:	ee07 1a10 	vmov	s14, r1
    27c2:	eeb8 7ac7 	vcvt.f32.s32	s14, s14
    27c6:	ee67 7a27 	vmul.f32	s15, s14, s15
      hall_sensor->data.x = ( (hall_sensor->dataRaw.x - 32768.f) * xy_sens *
    27ca:	edc0 7a13 	vstr	s15, [r0, #76]	; 0x4c
      break;
    27ce:	e742      	b.n	2656 <convertRaw+0x76>
      hall_sensor->data.x = ( (hall_sensor->dataRaw.x - 16384.f) * xy_sens *
    27d0:	f8b0 3042 	ldrh.w	r3, [r0, #66]	; 0x42
    27d4:	ee07 3a90 	vmov	s15, r3
    27d8:	eef8 7ae7 	vcvt.f32.s32	s15, s15
    27dc:	ed9f 7a7a 	vldr	s14, [pc, #488]	; 29c8 <convertRaw+0x3e8>
    27e0:	ee77 7ac7 	vsub.f32	s15, s15, s14
    27e4:	ee65 7a27 	vmul.f32	s15, s10, s15
    27e8:	ee65 7aa7 	vmul.f32	s15, s11, s15
                 gain_factor * (1 << res_x) );
    27ec:	2301      	movs	r3, #1
    27ee:	fa03 f101 	lsl.w	r1, r3, r1
    27f2:	ee07 1a10 	vmov	s14, r1
    27f6:	eeb8 7ac7 	vcvt.f32.s32	s14, s14
    27fa:	ee67 7a27 	vmul.f32	s15, s14, s15
      hall_sensor->data.x = ( (hall_sensor->dataRaw.x - 16384.f) * xy_sens *
    27fe:	edc0 7a13 	vstr	s15, [r0, #76]	; 0x4c
      break;
    2802:	e728      	b.n	2656 <convertRaw+0x76>
    switch(res_y){
    2804:	2e03      	cmp	r6, #3
    2806:	f63f af41 	bhi.w	268c <convertRaw+0xac>
    280a:	e8df f006 	tbb	[pc, r6]
    280e:	1702      	.short	0x1702
    2810:	452c      	.short	0x452c
		hall_sensor->data.y = (int16_t) hall_sensor->dataRaw.y * xy_sens * gain_factor * (1 << res_y);
    2812:	f9b0 3044 	ldrsh.w	r3, [r0, #68]	; 0x44
    2816:	ee07 3a10 	vmov	s14, r3
    281a:	eeb8 7ac7 	vcvt.f32.s32	s14, s14
    281e:	ee27 7a05 	vmul.f32	s14, s14, s10
    2822:	ee25 5a87 	vmul.f32	s10, s11, s14
    2826:	2301      	movs	r3, #1
    2828:	40b3      	lsls	r3, r6
    282a:	ee07 3a90 	vmov	s15, r3
    282e:	eeb8 7ae7 	vcvt.f32.s32	s14, s15
    2832:	ee27 7a05 	vmul.f32	s14, s14, s10
    2836:	ed80 7a14 	vstr	s14, [r0, #80]	; 0x50
		break;
    283a:	e727      	b.n	268c <convertRaw+0xac>
      hall_sensor->data.y = (int16_t) hall_sensor->dataRaw.y * xy_sens * gain_factor * (1 << res_y);
    283c:	f9b0 3044 	ldrsh.w	r3, [r0, #68]	; 0x44
    2840:	ee07 3a10 	vmov	s14, r3
    2844:	eeb8 7ac7 	vcvt.f32.s32	s14, s14
    2848:	ee27 7a05 	vmul.f32	s14, s14, s10
    284c:	ee25 5a87 	vmul.f32	s10, s11, s14
    2850:	2301      	movs	r3, #1
    2852:	40b3      	lsls	r3, r6
    2854:	ee07 3a90 	vmov	s15, r3
    2858:	eeb8 7ae7 	vcvt.f32.s32	s14, s15
    285c:	ee27 7a05 	vmul.f32	s14, s14, s10
    2860:	ed80 7a14 	vstr	s14, [r0, #80]	; 0x50
      break;
    2864:	e712      	b.n	268c <convertRaw+0xac>
      hall_sensor->data.y = ( (hall_sensor->dataRaw.y - 32768.f) * xy_sens *
    2866:	f8b0 3044 	ldrh.w	r3, [r0, #68]	; 0x44
    286a:	ee07 3a10 	vmov	s14, r3
    286e:	eeb8 7ac7 	vcvt.f32.s32	s14, s14
    2872:	eddf 7a50 	vldr	s15, [pc, #320]	; 29b4 <convertRaw+0x3d4>
    2876:	ee37 7a67 	vsub.f32	s14, s14, s15
    287a:	ee25 7a07 	vmul.f32	s14, s10, s14
    287e:	ee25 7a87 	vmul.f32	s14, s11, s14
                 gain_factor * (1 << res_y) );
    2882:	2301      	movs	r3, #1
    2884:	40b3      	lsls	r3, r6
    2886:	ee07 3a90 	vmov	s15, r3
    288a:	eeb8 5ae7 	vcvt.f32.s32	s10, s15
    288e:	ee25 7a07 	vmul.f32	s14, s10, s14
      hall_sensor->data.y = ( (hall_sensor->dataRaw.y - 32768.f) * xy_sens *
    2892:	ed80 7a14 	vstr	s14, [r0, #80]	; 0x50
      break;
    2896:	e6f9      	b.n	268c <convertRaw+0xac>
      hall_sensor->data.y = ( (hall_sensor->dataRaw.y - 16384.f) * xy_sens *
    2898:	f8b0 3044 	ldrh.w	r3, [r0, #68]	; 0x44
    289c:	ee07 3a10 	vmov	s14, r3
    28a0:	eeb8 7ac7 	vcvt.f32.s32	s14, s14
    28a4:	eddf 7a48 	vldr	s15, [pc, #288]	; 29c8 <convertRaw+0x3e8>
    28a8:	ee37 7a67 	vsub.f32	s14, s14, s15
    28ac:	ee25 7a07 	vmul.f32	s14, s10, s14
    28b0:	ee25 7a87 	vmul.f32	s14, s11, s14
                 gain_factor * (1 << res_y) );
    28b4:	2301      	movs	r3, #1
    28b6:	40b3      	lsls	r3, r6
    28b8:	ee07 3a90 	vmov	s15, r3
    28bc:	eeb8 5ae7 	vcvt.f32.s32	s10, s15
    28c0:	ee25 7a07 	vmul.f32	s14, s10, s14
      hall_sensor->data.y = ( (hall_sensor->dataRaw.y - 16384.f) * xy_sens *
    28c4:	ed80 7a14 	vstr	s14, [r0, #80]	; 0x50
      break;
    28c8:	e6e0      	b.n	268c <convertRaw+0xac>
    switch(res_z){
    28ca:	2d03      	cmp	r5, #3
    28cc:	f63f aefa 	bhi.w	26c4 <convertRaw+0xe4>
    28d0:	e8df f005 	tbb	[pc, r5]
    28d4:	462c1702 	.word	0x462c1702
		hall_sensor->data.z = (int16_t) hall_sensor->dataRaw.z * z_sens * gain_factor * (1 << res_z);
    28d8:	f9b0 3046 	ldrsh.w	r3, [r0, #70]	; 0x46
    28dc:	ee07 3a90 	vmov	s15, r3
    28e0:	eef8 7ae7 	vcvt.f32.s32	s15, s15
    28e4:	ee67 7aa4 	vmul.f32	s15, s15, s9
    28e8:	ee65 5aa7 	vmul.f32	s11, s11, s15
    28ec:	2301      	movs	r3, #1
    28ee:	40ab      	lsls	r3, r5
    28f0:	ee07 3a90 	vmov	s15, r3
    28f4:	eef8 7ae7 	vcvt.f32.s32	s15, s15
    28f8:	ee67 7aa5 	vmul.f32	s15, s15, s11
    28fc:	edc0 7a15 	vstr	s15, [r0, #84]	; 0x54
		break;
    2900:	e6e0      	b.n	26c4 <convertRaw+0xe4>
      hall_sensor->data.z = (int16_t) hall_sensor->dataRaw.z * z_sens * gain_factor * (1 << res_z);
    2902:	f9b0 3046 	ldrsh.w	r3, [r0, #70]	; 0x46
    2906:	ee07 3a90 	vmov	s15, r3
    290a:	eef8 7ae7 	vcvt.f32.s32	s15, s15
    290e:	ee67 7aa4 	vmul.f32	s15, s15, s9
    2912:	ee65 5aa7 	vmul.f32	s11, s11, s15
    2916:	2301      	movs	r3, #1
    2918:	40ab      	lsls	r3, r5
    291a:	ee07 3a90 	vmov	s15, r3
    291e:	eef8 7ae7 	vcvt.f32.s32	s15, s15
    2922:	ee67 7aa5 	vmul.f32	s15, s15, s11
    2926:	edc0 7a15 	vstr	s15, [r0, #84]	; 0x54
      break;
    292a:	e6cb      	b.n	26c4 <convertRaw+0xe4>
      hall_sensor->data.z = ( (hall_sensor->dataRaw.z - 32768.f) * z_sens *
    292c:	f8b0 3046 	ldrh.w	r3, [r0, #70]	; 0x46
    2930:	ee07 3a90 	vmov	s15, r3
    2934:	eef8 7ae7 	vcvt.f32.s32	s15, s15
    2938:	ed9f 7a1e 	vldr	s14, [pc, #120]	; 29b4 <convertRaw+0x3d4>
    293c:	ee77 7ac7 	vsub.f32	s15, s15, s14
    2940:	ee64 7aa7 	vmul.f32	s15, s9, s15
    2944:	ee65 7aa7 	vmul.f32	s15, s11, s15
                 gain_factor * (1 << res_z) );
    2948:	2301      	movs	r3, #1
    294a:	fa03 f505 	lsl.w	r5, r3, r5
    294e:	ee07 5a10 	vmov	s14, r5
    2952:	eef8 5ac7 	vcvt.f32.s32	s11, s14
    2956:	ee65 7aa7 	vmul.f32	s15, s11, s15
      hall_sensor->data.z = ( (hall_sensor->dataRaw.z - 32768.f) * z_sens *
    295a:	edc0 7a15 	vstr	s15, [r0, #84]	; 0x54
      break;
    295e:	e6b1      	b.n	26c4 <convertRaw+0xe4>
      hall_sensor->data.z = ( (hall_sensor->dataRaw.z - 16384.f) * z_sens *
    2960:	f8b0 3046 	ldrh.w	r3, [r0, #70]	; 0x46
    2964:	ee07 3a90 	vmov	s15, r3
    2968:	eef8 7ae7 	vcvt.f32.s32	s15, s15
    296c:	ed9f 7a16 	vldr	s14, [pc, #88]	; 29c8 <convertRaw+0x3e8>
    2970:	ee77 7ac7 	vsub.f32	s15, s15, s14
    2974:	ee64 7aa7 	vmul.f32	s15, s9, s15
    2978:	ee65 7aa7 	vmul.f32	s15, s11, s15
                 gain_factor * (1 << res_z) );
    297c:	2301      	movs	r3, #1
    297e:	fa03 f505 	lsl.w	r5, r3, r5
    2982:	ee07 5a10 	vmov	s14, r5
    2986:	eef8 5ac7 	vcvt.f32.s32	s11, s14
    298a:	ee65 7aa7 	vmul.f32	s15, s11, s15
      hall_sensor->data.z = ( (hall_sensor->dataRaw.z - 16384.f) * z_sens *
    298e:	edc0 7a15 	vstr	s15, [r0, #84]	; 0x54
      break;
    2992:	e697      	b.n	26c4 <convertRaw+0xe4>
	  if (hall_sensor->data.x < -50000)
    2994:	ed9f 7a0b 	vldr	s14, [pc, #44]	; 29c4 <convertRaw+0x3e4>
    2998:	eef4 7ac7 	vcmpe.f32	s15, s14
    299c:	eef1 fa10 	vmrs	APSR_nzcv, fpscr
    29a0:	f57f aeb0 	bpl.w	2704 <convertRaw+0x124>
		  hall_sensor->data.x = -50000;
    29a4:	ed80 7a13 	vstr	s14, [r0, #76]	; 0x4c
    29a8:	e6ac      	b.n	2704 <convertRaw+0x124>
	    hall_sensor->data.y = 50000;
    29aa:	ed80 7a14 	vstr	s14, [r0, #80]	; 0x50
}
    29ae:	bc70      	pop	{r4, r5, r6}
    29b0:	4770      	bx	lr
    29b2:	bf00      	nop
    29b4:	47000000 	.word	0x47000000
    29b8:	4734a400 	.word	0x4734a400
    29bc:	4234cccd 	.word	0x4234cccd
    29c0:	47435000 	.word	0x47435000
    29c4:	c7435000 	.word	0xc7435000
    29c8:	46800000 	.word	0x46800000

000029cc <convDelayMicro>:
					   
					   */
	return delaytimeMilli;
}

uint16_t convDelayMicro(struct MLX90393 *hall_sensor) {
    29cc:	b410      	push	{r4}
  const uint8_t osr = (hall_sensor->cache.reg[OSR_REG] & OSR_MASK) >> OSR_SHIFT;
    29ce:	8fc2      	ldrh	r2, [r0, #62]	; 0x3e
    29d0:	f002 0303 	and.w	r3, r2, #3
  const uint8_t osr2 = (hall_sensor->cache.reg[OSR2_REG] & OSR2_MASK) >> OSR2_SHIFT;
    29d4:	f3c2 24c1 	ubfx	r4, r2, #11, #2
  const uint8_t dig_flt = (hall_sensor->cache.reg[DIG_FLT_REG] & DIG_FLT_MASK) >> DIG_FLT_SHIFT;
    29d8:	f3c2 0182 	ubfx	r1, r2, #2, #3
  const uint8_t magnetic_axis = 3;
  
  uint32_t delayTimeMicro = (magnetic_axis * (((2 + (1 << dig_flt)) * (1 << osr) *64) + 67)) + ((192*(1<<osr2)) + 67) ; 
    29dc:	2201      	movs	r2, #1
    29de:	408a      	lsls	r2, r1
    29e0:	3202      	adds	r2, #2
    29e2:	409a      	lsls	r2, r3
    29e4:	eb02 0242 	add.w	r2, r2, r2, lsl #1
    29e8:	0193      	lsls	r3, r2, #6
    29ea:	f103 00c9 	add.w	r0, r3, #201	; 0xc9
    29ee:	23c0      	movs	r3, #192	; 0xc0
    29f0:	40a3      	lsls	r3, r4
    29f2:	3343      	adds	r3, #67	; 0x43
    29f4:	4418      	add	r0, r3
  uint16_t delayTimeMicro_final = delayTimeMicro/100 + 8; 
    29f6:	4b05      	ldr	r3, [pc, #20]	; (2a0c <convDelayMicro+0x40>)
    29f8:	fba3 3000 	umull	r3, r0, r3, r0
    29fc:	f3c0 104f 	ubfx	r0, r0, #5, #16
    2a00:	3008      	adds	r0, #8
                      (1 << osr2) * 0.192f ) *
                       1.3f;  // 30% tolerance
					   
					   */
	return delayTimeMicro_final;
}
    2a02:	b280      	uxth	r0, r0
    2a04:	f85d 4b04 	ldr.w	r4, [sp], #4
    2a08:	4770      	bx	lr
    2a0a:	bf00      	nop
    2a0c:	51eb851f 	.word	0x51eb851f

00002a10 <isOK>:
}

//checks 
bool isOK(uint8_t status)
{
  return (status & ERROR_BIT) == 0;
    2a10:	0900      	lsrs	r0, r0, #4
    2a12:	f080 0001 	eor.w	r0, r0, #1
}
    2a16:	f000 0001 	and.w	r0, r0, #1
    2a1a:	4770      	bx	lr

00002a1c <writeRegister>:
{
    2a1c:	b5f0      	push	{r4, r5, r6, r7, lr}
    2a1e:	b085      	sub	sp, #20
    2a20:	4605      	mov	r5, r0
    2a22:	460e      	mov	r6, r1
    2a24:	4617      	mov	r7, r2
    2a26:	461c      	mov	r4, r3
  cache_invalidate_address(hall_sensor, address);
    2a28:	4b12      	ldr	r3, [pc, #72]	; (2a74 <writeRegister+0x58>)
    2a2a:	4798      	blx	r3
  i2c_m_sync_set_slaveaddr(&I2C_0, hall_sensor->I2C_address, I2C_M_SEVEN);
    2a2c:	f44f 6200 	mov.w	r2, #2048	; 0x800
    2a30:	7829      	ldrb	r1, [r5, #0]
    2a32:	4811      	ldr	r0, [pc, #68]	; (2a78 <writeRegister+0x5c>)
    2a34:	4b11      	ldr	r3, [pc, #68]	; (2a7c <writeRegister+0x60>)
    2a36:	4798      	blx	r3
  uint8_t reg_adress = (address & 0x3f)<<2;
    2a38:	00b3      	lsls	r3, r6, #2
  ret = i2c_m_sync_reg_write_easy(io, cmd, data, reg_adress, (uint8_t *)buffer_answer);
    2a3a:	aa03      	add	r2, sp, #12
    2a3c:	9200      	str	r2, [sp, #0]
    2a3e:	f003 03fc 	and.w	r3, r3, #252	; 0xfc
    2a42:	463a      	mov	r2, r7
    2a44:	2160      	movs	r1, #96	; 0x60
    2a46:	4620      	mov	r0, r4
    2a48:	4c0d      	ldr	r4, [pc, #52]	; (2a80 <writeRegister+0x64>)
    2a4a:	47a0      	blx	r4
  if (ret < 1) {return STATUS_ERROR;}
    2a4c:	2800      	cmp	r0, #0
    2a4e:	dd0e      	ble.n	2a6e <writeRegister+0x52>
  const uint8_t status = buffer_answer[0];
    2a50:	f89d 400c 	ldrb.w	r4, [sp, #12]
  if (isOK(status)) {
    2a54:	4620      	mov	r0, r4
    2a56:	4b0b      	ldr	r3, [pc, #44]	; (2a84 <writeRegister+0x68>)
    2a58:	4798      	blx	r3
    2a5a:	b908      	cbnz	r0, 2a60 <writeRegister+0x44>
  return status;
    2a5c:	4620      	mov	r0, r4
    2a5e:	e007      	b.n	2a70 <writeRegister+0x54>
    cache_set(hall_sensor, address, data);
    2a60:	463a      	mov	r2, r7
    2a62:	4631      	mov	r1, r6
    2a64:	4628      	mov	r0, r5
    2a66:	4b08      	ldr	r3, [pc, #32]	; (2a88 <writeRegister+0x6c>)
    2a68:	4798      	blx	r3
  return status;
    2a6a:	4620      	mov	r0, r4
    2a6c:	e000      	b.n	2a70 <writeRegister+0x54>
  if (ret < 1) {return STATUS_ERROR;}
    2a6e:	20ff      	movs	r0, #255	; 0xff
}
    2a70:	b005      	add	sp, #20
    2a72:	bdf0      	pop	{r4, r5, r6, r7, pc}
    2a74:	000023ed 	.word	0x000023ed
    2a78:	200003b0 	.word	0x200003b0
    2a7c:	00000a91 	.word	0x00000a91
    2a80:	0000232d 	.word	0x0000232d
    2a84:	00002a11 	.word	0x00002a11
    2a88:	00002403 	.word	0x00002403

00002a8c <hasError>:

bool hasError(uint8_t status)
{
  return (status & ERROR_BIT) != 0;
}
    2a8c:	f3c0 1000 	ubfx	r0, r0, #4, #1
    2a90:	4770      	bx	lr
	...

00002a94 <cache_fill>:
  if (hall_sensor->cache.dirty != 0) {
    2a94:	f890 2038 	ldrb.w	r2, [r0, #56]	; 0x38
    2a98:	b30a      	cbz	r2, 2ade <cache_fill+0x4a>
uint8_t cache_fill(struct MLX90393 *hall_sensor, struct io_descriptor *io) {
    2a9a:	b5f8      	push	{r3, r4, r5, r6, r7, lr}
    2a9c:	460e      	mov	r6, r1
    2a9e:	4605      	mov	r5, r0
    2aa0:	2400      	movs	r4, #0
    2aa2:	e001      	b.n	2aa8 <cache_fill+0x14>
    for (uint8_t address=0; address < CACHESIZE; ++address){
    2aa4:	3401      	adds	r4, #1
    2aa6:	b2e4      	uxtb	r4, r4
    2aa8:	2c02      	cmp	r4, #2
    2aaa:	d815      	bhi.n	2ad8 <cache_fill+0x44>
      if (hall_sensor->cache.dirty & (1 << address)){
    2aac:	f895 3038 	ldrb.w	r3, [r5, #56]	; 0x38
    2ab0:	4123      	asrs	r3, r4
    2ab2:	f013 0f01 	tst.w	r3, #1
    2ab6:	d0f5      	beq.n	2aa4 <cache_fill+0x10>
        if (hasError(readRegister(hall_sensor, address, &(hall_sensor->cache.reg[address]), io))) {
    2ab8:	f104 021c 	add.w	r2, r4, #28
    2abc:	eb05 0242 	add.w	r2, r5, r2, lsl #1
    2ac0:	4633      	mov	r3, r6
    2ac2:	3202      	adds	r2, #2
    2ac4:	4621      	mov	r1, r4
    2ac6:	4628      	mov	r0, r5
    2ac8:	4f06      	ldr	r7, [pc, #24]	; (2ae4 <cache_fill+0x50>)
    2aca:	47b8      	blx	r7
    2acc:	4b06      	ldr	r3, [pc, #24]	; (2ae8 <cache_fill+0x54>)
    2ace:	4798      	blx	r3
    2ad0:	2800      	cmp	r0, #0
    2ad2:	d0e7      	beq.n	2aa4 <cache_fill+0x10>
          return STATUS_ERROR;
    2ad4:	22ff      	movs	r2, #255	; 0xff
    2ad6:	e000      	b.n	2ada <cache_fill+0x46>
  return STATUS_OK;
    2ad8:	2200      	movs	r2, #0
}
    2ada:	4610      	mov	r0, r2
    2adc:	bdf8      	pop	{r3, r4, r5, r6, r7, pc}
    2ade:	4610      	mov	r0, r2
    2ae0:	4770      	bx	lr
    2ae2:	bf00      	nop
    2ae4:	00002425 	.word	0x00002425
    2ae8:	00002a8d 	.word	0x00002a8d

00002aec <startMeasurement>:
{
    2aec:	b570      	push	{r4, r5, r6, lr}
    2aee:	4606      	mov	r6, r0
    2af0:	460c      	mov	r4, r1
    2af2:	4615      	mov	r5, r2
  cache_fill(hall_sensor, io);
    2af4:	4611      	mov	r1, r2
    2af6:	4b05      	ldr	r3, [pc, #20]	; (2b0c <startMeasurement+0x20>)
    2af8:	4798      	blx	r3
  uint8_t cmd = CMD_START_MEASUREMENT | (zyxt_flags & 0xf);
    2afa:	f004 010f 	and.w	r1, r4, #15
  return sendCommand(hall_sensor, cmd, io);
    2afe:	462a      	mov	r2, r5
    2b00:	f041 0130 	orr.w	r1, r1, #48	; 0x30
    2b04:	4630      	mov	r0, r6
    2b06:	4b02      	ldr	r3, [pc, #8]	; (2b10 <startMeasurement+0x24>)
    2b08:	4798      	blx	r3
}
    2b0a:	bd70      	pop	{r4, r5, r6, pc}
    2b0c:	00002a95 	.word	0x00002a95
    2b10:	000022a9 	.word	0x000022a9

00002b14 <checkStatus>:

uint8_t checkStatus(uint8_t status)
{
  return (status & ERROR_BIT) ? STATUS_ERROR : STATUS_OK;
    2b14:	f010 0f10 	tst.w	r0, #16
    2b18:	d001      	beq.n	2b1e <checkStatus+0xa>
    2b1a:	20ff      	movs	r0, #255	; 0xff
    2b1c:	4770      	bx	lr
    2b1e:	2000      	movs	r0, #0
    2b20:	4770      	bx	lr
	...

00002b24 <setGainSel>:
{
    2b24:	e92d 41f0 	stmdb	sp!, {r4, r5, r6, r7, r8, lr}
    2b28:	b082      	sub	sp, #8
    2b2a:	4607      	mov	r7, r0
    2b2c:	4688      	mov	r8, r1
    2b2e:	4615      	mov	r5, r2
  uint16_t old_val = 0;
    2b30:	2400      	movs	r4, #0
    2b32:	aa02      	add	r2, sp, #8
    2b34:	f822 4d02 	strh.w	r4, [r2, #-2]!
  uint8_t status1 = readRegister(hall_sensor, GAIN_SEL_REG, &old_val, io);
    2b38:	462b      	mov	r3, r5
    2b3a:	4621      	mov	r1, r4
    2b3c:	4e0f      	ldr	r6, [pc, #60]	; (2b7c <setGainSel+0x58>)
    2b3e:	47b0      	blx	r6
    2b40:	4606      	mov	r6, r0
  uint8_t status2 = writeRegister(hall_sensor, GAIN_SEL_REG, (old_val & ~GAIN_SEL_MASK) | (((uint16_t) gain_sel << GAIN_SEL_SHIFT) & GAIN_SEL_MASK), io);
    2b42:	f8bd 2006 	ldrh.w	r2, [sp, #6]
    2b46:	f022 0270 	bic.w	r2, r2, #112	; 0x70
    2b4a:	b212      	sxth	r2, r2
    2b4c:	ea4f 1808 	mov.w	r8, r8, lsl #4
    2b50:	f008 0870 	and.w	r8, r8, #112	; 0x70
    2b54:	ea42 0208 	orr.w	r2, r2, r8
    2b58:	462b      	mov	r3, r5
    2b5a:	b292      	uxth	r2, r2
    2b5c:	4621      	mov	r1, r4
    2b5e:	4638      	mov	r0, r7
    2b60:	4c07      	ldr	r4, [pc, #28]	; (2b80 <setGainSel+0x5c>)
    2b62:	47a0      	blx	r4
    2b64:	4607      	mov	r7, r0
  return checkStatus(status1) | checkStatus(status2);
    2b66:	4630      	mov	r0, r6
    2b68:	4d06      	ldr	r5, [pc, #24]	; (2b84 <setGainSel+0x60>)
    2b6a:	47a8      	blx	r5
    2b6c:	4604      	mov	r4, r0
    2b6e:	4638      	mov	r0, r7
    2b70:	47a8      	blx	r5
    2b72:	4320      	orrs	r0, r4
}
    2b74:	b2c0      	uxtb	r0, r0
    2b76:	b002      	add	sp, #8
    2b78:	e8bd 81f0 	ldmia.w	sp!, {r4, r5, r6, r7, r8, pc}
    2b7c:	00002425 	.word	0x00002425
    2b80:	00002a1d 	.word	0x00002a1d
    2b84:	00002b15 	.word	0x00002b15

00002b88 <setResolution>:
{
    2b88:	b5f0      	push	{r4, r5, r6, r7, lr}
    2b8a:	b083      	sub	sp, #12
    2b8c:	4605      	mov	r5, r0
  uint16_t res_xyz = ((res_z & 0x3)<<4) | ((res_y & 0x3)<<2) | (res_x & 0x3);
    2b8e:	011b      	lsls	r3, r3, #4
    2b90:	f003 0330 	and.w	r3, r3, #48	; 0x30
    2b94:	0092      	lsls	r2, r2, #2
    2b96:	f002 020c 	and.w	r2, r2, #12
    2b9a:	431a      	orrs	r2, r3
    2b9c:	f001 0103 	and.w	r1, r1, #3
    2ba0:	ea42 0401 	orr.w	r4, r2, r1
  uint16_t old_val = 0;
    2ba4:	aa02      	add	r2, sp, #8
    2ba6:	2300      	movs	r3, #0
    2ba8:	f822 3d02 	strh.w	r3, [r2, #-2]!
  uint8_t status1 = readRegister(hall_sensor, RES_XYZ_REG, &old_val, io);
    2bac:	9b08      	ldr	r3, [sp, #32]
    2bae:	2102      	movs	r1, #2
    2bb0:	4e0d      	ldr	r6, [pc, #52]	; (2be8 <setResolution+0x60>)
    2bb2:	47b0      	blx	r6
    2bb4:	4607      	mov	r7, r0
  uint8_t status2 = writeRegister(hall_sensor, RES_XYZ_REG, (old_val & ~RES_XYZ_MASK) | ((res_xyz << RES_XYZ_SHIFT) & RES_XYZ_MASK), io);
    2bb6:	f8bd 2006 	ldrh.w	r2, [sp, #6]
    2bba:	f422 62fc 	bic.w	r2, r2, #2016	; 0x7e0
    2bbe:	b212      	sxth	r2, r2
    2bc0:	ea42 1244 	orr.w	r2, r2, r4, lsl #5
    2bc4:	9b08      	ldr	r3, [sp, #32]
    2bc6:	b292      	uxth	r2, r2
    2bc8:	2102      	movs	r1, #2
    2bca:	4628      	mov	r0, r5
    2bcc:	4c07      	ldr	r4, [pc, #28]	; (2bec <setResolution+0x64>)
    2bce:	47a0      	blx	r4
    2bd0:	4606      	mov	r6, r0
  return checkStatus(status1) | checkStatus(status2);
    2bd2:	4638      	mov	r0, r7
    2bd4:	4d06      	ldr	r5, [pc, #24]	; (2bf0 <setResolution+0x68>)
    2bd6:	47a8      	blx	r5
    2bd8:	4604      	mov	r4, r0
    2bda:	4630      	mov	r0, r6
    2bdc:	47a8      	blx	r5
    2bde:	4320      	orrs	r0, r4
}
    2be0:	b2c0      	uxtb	r0, r0
    2be2:	b003      	add	sp, #12
    2be4:	bdf0      	pop	{r4, r5, r6, r7, pc}
    2be6:	bf00      	nop
    2be8:	00002425 	.word	0x00002425
    2bec:	00002a1d 	.word	0x00002a1d
    2bf0:	00002b15 	.word	0x00002b15

00002bf4 <setOverSampling>:
{
    2bf4:	b5f0      	push	{r4, r5, r6, r7, lr}
    2bf6:	b083      	sub	sp, #12
    2bf8:	4607      	mov	r7, r0
    2bfa:	460c      	mov	r4, r1
    2bfc:	4615      	mov	r5, r2
  uint16_t old_val = 0;
    2bfe:	aa02      	add	r2, sp, #8
    2c00:	2300      	movs	r3, #0
    2c02:	f822 3d02 	strh.w	r3, [r2, #-2]!
  uint8_t status1 = readRegister(hall_sensor, OSR_REG, &old_val, io);
    2c06:	462b      	mov	r3, r5
    2c08:	2102      	movs	r1, #2
    2c0a:	4e0e      	ldr	r6, [pc, #56]	; (2c44 <setOverSampling+0x50>)
    2c0c:	47b0      	blx	r6
    2c0e:	4606      	mov	r6, r0
  uint8_t status2 = writeRegister(hall_sensor, OSR_REG, (old_val & ~OSR_MASK) | (((uint16_t)osr << OSR_SHIFT) & OSR_MASK), io);
    2c10:	f8bd 2006 	ldrh.w	r2, [sp, #6]
    2c14:	f022 0203 	bic.w	r2, r2, #3
    2c18:	b212      	sxth	r2, r2
    2c1a:	f004 0403 	and.w	r4, r4, #3
    2c1e:	4322      	orrs	r2, r4
    2c20:	462b      	mov	r3, r5
    2c22:	b292      	uxth	r2, r2
    2c24:	2102      	movs	r1, #2
    2c26:	4638      	mov	r0, r7
    2c28:	4c07      	ldr	r4, [pc, #28]	; (2c48 <setOverSampling+0x54>)
    2c2a:	47a0      	blx	r4
    2c2c:	4607      	mov	r7, r0
  return checkStatus(status1) | checkStatus(status2);
    2c2e:	4630      	mov	r0, r6
    2c30:	4d06      	ldr	r5, [pc, #24]	; (2c4c <setOverSampling+0x58>)
    2c32:	47a8      	blx	r5
    2c34:	4604      	mov	r4, r0
    2c36:	4638      	mov	r0, r7
    2c38:	47a8      	blx	r5
    2c3a:	4320      	orrs	r0, r4
}
    2c3c:	b2c0      	uxtb	r0, r0
    2c3e:	b003      	add	sp, #12
    2c40:	bdf0      	pop	{r4, r5, r6, r7, pc}
    2c42:	bf00      	nop
    2c44:	00002425 	.word	0x00002425
    2c48:	00002a1d 	.word	0x00002a1d
    2c4c:	00002b15 	.word	0x00002b15

00002c50 <setDigitalFiltering>:
{
    2c50:	b5f0      	push	{r4, r5, r6, r7, lr}
    2c52:	b083      	sub	sp, #12
    2c54:	4607      	mov	r7, r0
    2c56:	460c      	mov	r4, r1
    2c58:	4615      	mov	r5, r2
  uint16_t old_val = 0;
    2c5a:	aa02      	add	r2, sp, #8
    2c5c:	2300      	movs	r3, #0
    2c5e:	f822 3d02 	strh.w	r3, [r2, #-2]!
  uint8_t status1 = readRegister(hall_sensor, DIG_FLT_REG, &old_val, io);
    2c62:	462b      	mov	r3, r5
    2c64:	2102      	movs	r1, #2
    2c66:	4e0e      	ldr	r6, [pc, #56]	; (2ca0 <setDigitalFiltering+0x50>)
    2c68:	47b0      	blx	r6
    2c6a:	4606      	mov	r6, r0
  uint8_t status2 = writeRegister(hall_sensor, DIG_FLT_REG, (old_val & ~DIG_FLT_MASK) | (((uint16_t) dig_flt << DIG_FLT_SHIFT) & DIG_FLT_MASK),io);
    2c6c:	f8bd 2006 	ldrh.w	r2, [sp, #6]
    2c70:	f022 021c 	bic.w	r2, r2, #28
    2c74:	b212      	sxth	r2, r2
    2c76:	00a4      	lsls	r4, r4, #2
    2c78:	f004 041c 	and.w	r4, r4, #28
    2c7c:	4322      	orrs	r2, r4
    2c7e:	462b      	mov	r3, r5
    2c80:	b292      	uxth	r2, r2
    2c82:	2102      	movs	r1, #2
    2c84:	4638      	mov	r0, r7
    2c86:	4c07      	ldr	r4, [pc, #28]	; (2ca4 <setDigitalFiltering+0x54>)
    2c88:	47a0      	blx	r4
    2c8a:	4607      	mov	r7, r0
  return checkStatus(status1) | checkStatus(status2);
    2c8c:	4630      	mov	r0, r6
    2c8e:	4d06      	ldr	r5, [pc, #24]	; (2ca8 <setDigitalFiltering+0x58>)
    2c90:	47a8      	blx	r5
    2c92:	4604      	mov	r4, r0
    2c94:	4638      	mov	r0, r7
    2c96:	47a8      	blx	r5
    2c98:	4320      	orrs	r0, r4
}
    2c9a:	b2c0      	uxtb	r0, r0
    2c9c:	b003      	add	sp, #12
    2c9e:	bdf0      	pop	{r4, r5, r6, r7, pc}
    2ca0:	00002425 	.word	0x00002425
    2ca4:	00002a1d 	.word	0x00002a1d
    2ca8:	00002b15 	.word	0x00002b15

00002cac <setTemperatureCompensation>:
{
    2cac:	b5f0      	push	{r4, r5, r6, r7, lr}
    2cae:	b083      	sub	sp, #12
    2cb0:	4606      	mov	r6, r0
    2cb2:	4614      	mov	r4, r2
  uint8_t tcmp_en = enabled?1:0;
    2cb4:	1c0f      	adds	r7, r1, #0
    2cb6:	bf18      	it	ne
    2cb8:	2701      	movne	r7, #1
  uint16_t old_val = 0;
    2cba:	aa02      	add	r2, sp, #8
    2cbc:	2300      	movs	r3, #0
    2cbe:	f822 3d02 	strh.w	r3, [r2, #-2]!
  uint8_t status1 = readRegister(hall_sensor, TCMP_EN_REG, &old_val, io);
    2cc2:	4623      	mov	r3, r4
    2cc4:	2101      	movs	r1, #1
    2cc6:	4d0d      	ldr	r5, [pc, #52]	; (2cfc <setTemperatureCompensation+0x50>)
    2cc8:	47a8      	blx	r5
    2cca:	4605      	mov	r5, r0
  uint8_t status2 = writeRegister(hall_sensor, TCMP_EN_REG, (old_val & ~TCMP_EN_MASK) | (((uint16_t) tcmp_en << TCMP_EN_SHIFT) & TCMP_EN_MASK), io);
    2ccc:	f8bd 2006 	ldrh.w	r2, [sp, #6]
    2cd0:	f422 6280 	bic.w	r2, r2, #1024	; 0x400
    2cd4:	b212      	sxth	r2, r2
    2cd6:	ea42 2287 	orr.w	r2, r2, r7, lsl #10
    2cda:	4623      	mov	r3, r4
    2cdc:	b292      	uxth	r2, r2
    2cde:	2101      	movs	r1, #1
    2ce0:	4630      	mov	r0, r6
    2ce2:	4c07      	ldr	r4, [pc, #28]	; (2d00 <setTemperatureCompensation+0x54>)
    2ce4:	47a0      	blx	r4
    2ce6:	4606      	mov	r6, r0
  return checkStatus(status1) | checkStatus(status2);
    2ce8:	4628      	mov	r0, r5
    2cea:	4d06      	ldr	r5, [pc, #24]	; (2d04 <setTemperatureCompensation+0x58>)
    2cec:	47a8      	blx	r5
    2cee:	4604      	mov	r4, r0
    2cf0:	4630      	mov	r0, r6
    2cf2:	47a8      	blx	r5
    2cf4:	4320      	orrs	r0, r4
}
    2cf6:	b2c0      	uxtb	r0, r0
    2cf8:	b003      	add	sp, #12
    2cfa:	bdf0      	pop	{r4, r5, r6, r7, pc}
    2cfc:	00002425 	.word	0x00002425
    2d00:	00002a1d 	.word	0x00002a1d
    2d04:	00002b15 	.word	0x00002b15

00002d08 <begin>:
{
    2d08:	e92d 47f0 	stmdb	sp!, {r4, r5, r6, r7, r8, r9, sl, lr}
    2d0c:	b082      	sub	sp, #8
    2d0e:	4604      	mov	r4, r0
    2d10:	4617      	mov	r7, r2
    2d12:	461e      	mov	r6, r3
    2d14:	9d0b      	ldr	r5, [sp, #44]	; 0x2c
  select_prefix(hall_sensor, order_code_last_digit);
    2d16:	4b24      	ldr	r3, [pc, #144]	; (2da8 <begin+0xa0>)
    2d18:	4798      	blx	r3
  hall_sensor->I2C_address = hall_sensor->I2C_prefix | (A1?2:0) | (A0?1:0);
    2d1a:	f994 2001 	ldrsb.w	r2, [r4, #1]
    2d1e:	2f00      	cmp	r7, #0
    2d20:	d13f      	bne.n	2da2 <begin+0x9a>
    2d22:	2300      	movs	r3, #0
    2d24:	4313      	orrs	r3, r2
    2d26:	2e00      	cmp	r6, #0
    2d28:	bf18      	it	ne
    2d2a:	f043 0301 	orrne.w	r3, r3, #1
    2d2e:	7023      	strb	r3, [r4, #0]
  hall_sensor->DRDY_pin = DRDY;
    2d30:	f89d 3028 	ldrb.w	r3, [sp, #40]	; 0x28
    2d34:	70a3      	strb	r3, [r4, #2]
  exit_command(hall_sensor, io);
    2d36:	4629      	mov	r1, r5
    2d38:	4620      	mov	r0, r4
    2d3a:	4b1c      	ldr	r3, [pc, #112]	; (2dac <begin+0xa4>)
    2d3c:	4798      	blx	r3
  uint8_t status1 = checkStatus(reset(hall_sensor, io));
    2d3e:	4629      	mov	r1, r5
    2d40:	4620      	mov	r0, r4
    2d42:	4b1b      	ldr	r3, [pc, #108]	; (2db0 <begin+0xa8>)
    2d44:	4798      	blx	r3
    2d46:	4b1b      	ldr	r3, [pc, #108]	; (2db4 <begin+0xac>)
    2d48:	4798      	blx	r3
    2d4a:	4681      	mov	r9, r0
  uint8_t status2 = setGainSel(hall_sensor, 2, io); //7
    2d4c:	462a      	mov	r2, r5
    2d4e:	2102      	movs	r1, #2
    2d50:	4620      	mov	r0, r4
    2d52:	4b19      	ldr	r3, [pc, #100]	; (2db8 <begin+0xb0>)
    2d54:	4798      	blx	r3
    2d56:	4682      	mov	sl, r0
  uint8_t status3 = setResolution(hall_sensor, 0, 0, 0, io); //0,0,0
    2d58:	9500      	str	r5, [sp, #0]
    2d5a:	2300      	movs	r3, #0
    2d5c:	461a      	mov	r2, r3
    2d5e:	4619      	mov	r1, r3
    2d60:	4620      	mov	r0, r4
    2d62:	4e16      	ldr	r6, [pc, #88]	; (2dbc <begin+0xb4>)
    2d64:	47b0      	blx	r6
    2d66:	4680      	mov	r8, r0
  uint8_t status4 = setOverSampling(hall_sensor, 1, io); //3
    2d68:	462a      	mov	r2, r5
    2d6a:	2101      	movs	r1, #1
    2d6c:	4620      	mov	r0, r4
    2d6e:	4b14      	ldr	r3, [pc, #80]	; (2dc0 <begin+0xb8>)
    2d70:	4798      	blx	r3
    2d72:	4607      	mov	r7, r0
  uint8_t status5 = setDigitalFiltering(hall_sensor, 2, io); //7
    2d74:	462a      	mov	r2, r5
    2d76:	2102      	movs	r1, #2
    2d78:	4620      	mov	r0, r4
    2d7a:	4b12      	ldr	r3, [pc, #72]	; (2dc4 <begin+0xbc>)
    2d7c:	4798      	blx	r3
    2d7e:	4606      	mov	r6, r0
  uint8_t status6 = setTemperatureCompensation(hall_sensor, 0, io);//0
    2d80:	462a      	mov	r2, r5
    2d82:	2100      	movs	r1, #0
    2d84:	4620      	mov	r0, r4
    2d86:	4b10      	ldr	r3, [pc, #64]	; (2dc8 <begin+0xc0>)
    2d88:	4798      	blx	r3
  return status1 | status2 | status3 | status4 | status5 | status6;
    2d8a:	ea49 090a 	orr.w	r9, r9, sl
    2d8e:	ea48 0809 	orr.w	r8, r8, r9
    2d92:	ea47 0708 	orr.w	r7, r7, r8
    2d96:	433e      	orrs	r6, r7
    2d98:	4330      	orrs	r0, r6
}
    2d9a:	b2c0      	uxtb	r0, r0
    2d9c:	b002      	add	sp, #8
    2d9e:	e8bd 87f0 	ldmia.w	sp!, {r4, r5, r6, r7, r8, r9, sl, pc}
  hall_sensor->I2C_address = hall_sensor->I2C_prefix | (A1?2:0) | (A0?1:0);
    2da2:	2302      	movs	r3, #2
    2da4:	e7be      	b.n	2d24 <begin+0x1c>
    2da6:	bf00      	nop
    2da8:	00002239 	.word	0x00002239
    2dac:	000024b5 	.word	0x000024b5
    2db0:	00002489 	.word	0x00002489
    2db4:	00002b15 	.word	0x00002b15
    2db8:	00002b25 	.word	0x00002b25
    2dbc:	00002b89 	.word	0x00002b89
    2dc0:	00002bf5 	.word	0x00002bf5
    2dc4:	00002c51 	.word	0x00002c51
    2dc8:	00002cad 	.word	0x00002cad

00002dcc <setExtTrig>:
{
    2dcc:	b5f0      	push	{r4, r5, r6, r7, lr}
    2dce:	b083      	sub	sp, #12
    2dd0:	4607      	mov	r7, r0
    2dd2:	460c      	mov	r4, r1
    2dd4:	4615      	mov	r5, r2
  uint16_t old_val = 0;
    2dd6:	aa02      	add	r2, sp, #8
    2dd8:	2300      	movs	r3, #0
    2dda:	f822 3d02 	strh.w	r3, [r2, #-2]!
  uint8_t status1 = readRegister(hall_sensor, EXT_TRIG_REG, &old_val, io);
    2dde:	462b      	mov	r3, r5
    2de0:	2101      	movs	r1, #1
    2de2:	4e0f      	ldr	r6, [pc, #60]	; (2e20 <setExtTrig+0x54>)
    2de4:	47b0      	blx	r6
    2de6:	4606      	mov	r6, r0
  uint8_t status2 = writeRegister(hall_sensor, EXT_TRIG_REG, (old_val & ~EXT_TRIG_MASK) | (((uint16_t) ext_trig << EXT_TRIG_SHIFT) & EXT_TRIG_MASK), io);
    2de8:	f8bd 2006 	ldrh.w	r2, [sp, #6]
    2dec:	f422 6200 	bic.w	r2, r2, #2048	; 0x800
    2df0:	b213      	sxth	r3, r2
    2df2:	b2a2      	uxth	r2, r4
    2df4:	02d2      	lsls	r2, r2, #11
    2df6:	f402 6200 	and.w	r2, r2, #2048	; 0x800
    2dfa:	431a      	orrs	r2, r3
    2dfc:	462b      	mov	r3, r5
    2dfe:	b292      	uxth	r2, r2
    2e00:	2101      	movs	r1, #1
    2e02:	4638      	mov	r0, r7
    2e04:	4c07      	ldr	r4, [pc, #28]	; (2e24 <setExtTrig+0x58>)
    2e06:	47a0      	blx	r4
    2e08:	4607      	mov	r7, r0
  return checkStatus(status1) | checkStatus(status2);
    2e0a:	4630      	mov	r0, r6
    2e0c:	4d06      	ldr	r5, [pc, #24]	; (2e28 <setExtTrig+0x5c>)
    2e0e:	47a8      	blx	r5
    2e10:	4604      	mov	r4, r0
    2e12:	4638      	mov	r0, r7
    2e14:	47a8      	blx	r5
    2e16:	4320      	orrs	r0, r4
}
    2e18:	b2c0      	uxtb	r0, r0
    2e1a:	b003      	add	sp, #12
    2e1c:	bdf0      	pop	{r4, r5, r6, r7, pc}
    2e1e:	bf00      	nop
    2e20:	00002425 	.word	0x00002425
    2e24:	00002a1d 	.word	0x00002a1d
    2e28:	00002b15 	.word	0x00002b15

00002e2c <triggerInitialize>:
#include <Melexis/SensorArray.h>
#include <math.h>


void triggerInitialize(struct MLX90393 *hall_sensor, struct io_descriptor *io)
{
    2e2c:	b538      	push	{r3, r4, r5, lr}
    2e2e:	4605      	mov	r5, r0
    2e30:	460c      	mov	r4, r1
		//setTrigIntSel(hall_sensor,1,io);
		setExtTrig(hall_sensor,1,io);
    2e32:	460a      	mov	r2, r1
    2e34:	2101      	movs	r1, #1
    2e36:	4b04      	ldr	r3, [pc, #16]	; (2e48 <triggerInitialize+0x1c>)
    2e38:	4798      	blx	r3
		//startMeasurement(hall_sensor, X_FLAG | Y_FLAG | Z_FLAG | T_FLAG, io);
		startMeasurement(hall_sensor, X_FLAG | Y_FLAG | Z_FLAG, io);
    2e3a:	4622      	mov	r2, r4
    2e3c:	210e      	movs	r1, #14
    2e3e:	4628      	mov	r0, r5
    2e40:	4b02      	ldr	r3, [pc, #8]	; (2e4c <triggerInitialize+0x20>)
    2e42:	4798      	blx	r3
    2e44:	bd38      	pop	{r3, r4, r5, pc}
    2e46:	bf00      	nop
    2e48:	00002dcd 	.word	0x00002dcd
    2e4c:	00002aed 	.word	0x00002aed

00002e50 <triggerSensor>:
}


void triggerSensor(uint16_t pulseTime)
{
    2e50:	b538      	push	{r3, r4, r5, lr}
	((Port *)hw)->Group[submodule_index].OUTSET.reg = mask;
    2e52:	4c03      	ldr	r4, [pc, #12]	; (2e60 <triggerSensor+0x10>)
    2e54:	2540      	movs	r5, #64	; 0x40
    2e56:	61a5      	str	r5, [r4, #24]
	gpio_set_pin_level(TRG,true);
	delay_us(pulseTime);
    2e58:	4b02      	ldr	r3, [pc, #8]	; (2e64 <triggerSensor+0x14>)
    2e5a:	4798      	blx	r3
	((Port *)hw)->Group[submodule_index].OUTCLR.reg = mask;
    2e5c:	6165      	str	r5, [r4, #20]
    2e5e:	bd38      	pop	{r3, r4, r5, pc}
    2e60:	41008000 	.word	0x41008000
    2e64:	000009a5 	.word	0x000009a5

00002e68 <triggerReadout>:
{
	triggerSensor(pulseTime);
};

uint8_t triggerReadout(struct MLX90393 *hall_sensor, struct io_descriptor *io)
{
    2e68:	b538      	push	{r3, r4, r5, lr}
    2e6a:	4605      	mov	r5, r0
	//uint8_t status = readMeasurement(hall_sensor, X_FLAG | Y_FLAG | Z_FLAG | T_FLAG, io);
	uint8_t status = readMeasurement(hall_sensor, X_FLAG | Y_FLAG | Z_FLAG , io);
    2e6c:	460a      	mov	r2, r1
    2e6e:	210e      	movs	r1, #14
    2e70:	4b04      	ldr	r3, [pc, #16]	; (2e84 <triggerReadout+0x1c>)
    2e72:	4798      	blx	r3
    2e74:	4604      	mov	r4, r0
	convertRaw(hall_sensor);
    2e76:	4628      	mov	r0, r5
    2e78:	4b03      	ldr	r3, [pc, #12]	; (2e88 <triggerReadout+0x20>)
    2e7a:	4798      	blx	r3
	return checkStatus(status);
    2e7c:	4620      	mov	r0, r4
    2e7e:	4b03      	ldr	r3, [pc, #12]	; (2e8c <triggerReadout+0x24>)
    2e80:	4798      	blx	r3
};
    2e82:	bd38      	pop	{r3, r4, r5, pc}
    2e84:	000024c5 	.word	0x000024c5
    2e88:	000025e1 	.word	0x000025e1
    2e8c:	00002b15 	.word	0x00002b15

00002e90 <triggerReadoutArray>:

uint8_t triggerReadoutArray(struct MLX90393 *hall_sensor_1, struct MLX90393 *hall_sensor_2, struct MLX90393 *hall_sensor_3, 
						    struct MLX90393 *hall_sensor_4, struct MLX90393 *hall_sensor_5, struct MLX90393 *hall_sensor_6, 
					        struct MLX90393 *hall_sensor_7, struct MLX90393 *hall_sensor_8, struct MLX90393 *hall_sensor_9,
					        struct io_descriptor *io)
{
    2e90:	e92d 4ff0 	stmdb	sp!, {r4, r5, r6, r7, r8, r9, sl, fp, lr}
    2e94:	b083      	sub	sp, #12
    2e96:	4688      	mov	r8, r1
    2e98:	4617      	mov	r7, r2
    2e9a:	461e      	mov	r6, r3
	uint8_t status1 = triggerReadout(hall_sensor_1,io);
    2e9c:	9911      	ldr	r1, [sp, #68]	; 0x44
    2e9e:	4c25      	ldr	r4, [pc, #148]	; (2f34 <triggerReadoutArray+0xa4>)
    2ea0:	47a0      	blx	r4
    2ea2:	4605      	mov	r5, r0
	uint8_t status2 = triggerReadout(hall_sensor_2,io);
    2ea4:	9911      	ldr	r1, [sp, #68]	; 0x44
    2ea6:	4640      	mov	r0, r8
    2ea8:	47a0      	blx	r4
    2eaa:	4683      	mov	fp, r0
	uint8_t status3 = triggerReadout(hall_sensor_3,io);
    2eac:	9911      	ldr	r1, [sp, #68]	; 0x44
    2eae:	4638      	mov	r0, r7
    2eb0:	47a0      	blx	r4
    2eb2:	4682      	mov	sl, r0
	uint8_t status4 = triggerReadout(hall_sensor_4,io);
    2eb4:	9911      	ldr	r1, [sp, #68]	; 0x44
    2eb6:	4630      	mov	r0, r6
    2eb8:	47a0      	blx	r4
    2eba:	4681      	mov	r9, r0
	uint8_t status5 = triggerReadout(hall_sensor_5,io);
    2ebc:	9911      	ldr	r1, [sp, #68]	; 0x44
    2ebe:	980c      	ldr	r0, [sp, #48]	; 0x30
    2ec0:	47a0      	blx	r4
    2ec2:	4680      	mov	r8, r0
	uint8_t status6 = triggerReadout(hall_sensor_6,io);
    2ec4:	9911      	ldr	r1, [sp, #68]	; 0x44
    2ec6:	980d      	ldr	r0, [sp, #52]	; 0x34
    2ec8:	47a0      	blx	r4
    2eca:	4607      	mov	r7, r0
	uint8_t status7 = triggerReadout(hall_sensor_7,io);
    2ecc:	9911      	ldr	r1, [sp, #68]	; 0x44
    2ece:	980e      	ldr	r0, [sp, #56]	; 0x38
    2ed0:	47a0      	blx	r4
    2ed2:	4606      	mov	r6, r0
	uint8_t status8 = triggerReadout(hall_sensor_8,io);
    2ed4:	9911      	ldr	r1, [sp, #68]	; 0x44
    2ed6:	980f      	ldr	r0, [sp, #60]	; 0x3c
    2ed8:	47a0      	blx	r4
    2eda:	9000      	str	r0, [sp, #0]
	uint8_t status9 = triggerReadout(hall_sensor_9,io);
    2edc:	9911      	ldr	r1, [sp, #68]	; 0x44
    2ede:	9810      	ldr	r0, [sp, #64]	; 0x40
    2ee0:	47a0      	blx	r4
    2ee2:	9001      	str	r0, [sp, #4]
	
	return checkStatus(status1) | checkStatus(status2) | checkStatus(status3) | checkStatus(status4) | checkStatus(status5) | checkStatus(status6) | checkStatus(status7) | checkStatus(status8) | checkStatus(status9);
    2ee4:	4628      	mov	r0, r5
    2ee6:	4d14      	ldr	r5, [pc, #80]	; (2f38 <triggerReadoutArray+0xa8>)
    2ee8:	47a8      	blx	r5
    2eea:	4604      	mov	r4, r0
    2eec:	4658      	mov	r0, fp
    2eee:	47a8      	blx	r5
    2ef0:	4304      	orrs	r4, r0
    2ef2:	b2e4      	uxtb	r4, r4
    2ef4:	4650      	mov	r0, sl
    2ef6:	47a8      	blx	r5
    2ef8:	4304      	orrs	r4, r0
    2efa:	b2e4      	uxtb	r4, r4
    2efc:	4648      	mov	r0, r9
    2efe:	47a8      	blx	r5
    2f00:	4304      	orrs	r4, r0
    2f02:	b2e4      	uxtb	r4, r4
    2f04:	4640      	mov	r0, r8
    2f06:	47a8      	blx	r5
    2f08:	4304      	orrs	r4, r0
    2f0a:	b2e4      	uxtb	r4, r4
    2f0c:	4638      	mov	r0, r7
    2f0e:	47a8      	blx	r5
    2f10:	4304      	orrs	r4, r0
    2f12:	b2e4      	uxtb	r4, r4
    2f14:	4630      	mov	r0, r6
    2f16:	47a8      	blx	r5
    2f18:	4304      	orrs	r4, r0
    2f1a:	b2e4      	uxtb	r4, r4
    2f1c:	9800      	ldr	r0, [sp, #0]
    2f1e:	47a8      	blx	r5
    2f20:	4304      	orrs	r4, r0
    2f22:	b2e4      	uxtb	r4, r4
    2f24:	9801      	ldr	r0, [sp, #4]
    2f26:	47a8      	blx	r5
    2f28:	4320      	orrs	r0, r4
};
    2f2a:	b2c0      	uxtb	r0, r0
    2f2c:	b003      	add	sp, #12
    2f2e:	e8bd 8ff0 	ldmia.w	sp!, {r4, r5, r6, r7, r8, r9, sl, fp, pc}
    2f32:	bf00      	nop
    2f34:	00002e69 	.word	0x00002e69
    2f38:	00002b15 	.word	0x00002b15

00002f3c <SensorArray_Init>:

void SensorArray_Init(struct MLX90393 *hall_sensor_1, struct MLX90393 *hall_sensor_2, struct MLX90393 *hall_sensor_3,
struct MLX90393 *hall_sensor_4, struct MLX90393 *hall_sensor_5, struct MLX90393 *hall_sensor_6,
struct MLX90393 *hall_sensor_7, struct MLX90393 *hall_sensor_8, struct MLX90393 *hall_sensor_9,
struct io_descriptor *io)
{
    2f3c:	e92d 4ff0 	stmdb	sp!, {r4, r5, r6, r7, r8, r9, sl, fp, lr}
    2f40:	b085      	sub	sp, #20
    2f42:	4606      	mov	r6, r0
    2f44:	468b      	mov	fp, r1
    2f46:	4692      	mov	sl, r2
    2f48:	9303      	str	r3, [sp, #12]
    2f4a:	9d13      	ldr	r5, [sp, #76]	; 0x4c
	//bottom row left
	initialize(hall_sensor_1);
    2f4c:	f8df 9118 	ldr.w	r9, [pc, #280]	; 3068 <SensorArray_Init+0x12c>
    2f50:	47c8      	blx	r9
	begin(hall_sensor_1,1,0,0,false, io);
    2f52:	9501      	str	r5, [sp, #4]
    2f54:	2400      	movs	r4, #0
    2f56:	9400      	str	r4, [sp, #0]
    2f58:	4623      	mov	r3, r4
    2f5a:	4622      	mov	r2, r4
    2f5c:	2101      	movs	r1, #1
    2f5e:	4630      	mov	r0, r6
    2f60:	f8df 8108 	ldr.w	r8, [pc, #264]	; 306c <SensorArray_Init+0x130>
    2f64:	47c0      	blx	r8
	triggerInitialize(hall_sensor_1, io);
    2f66:	4629      	mov	r1, r5
    2f68:	4630      	mov	r0, r6
    2f6a:	4f3d      	ldr	r7, [pc, #244]	; (3060 <SensorArray_Init+0x124>)
    2f6c:	47b8      	blx	r7
	delay_ms(5);
    2f6e:	2005      	movs	r0, #5
    2f70:	4e3c      	ldr	r6, [pc, #240]	; (3064 <SensorArray_Init+0x128>)
    2f72:	47b0      	blx	r6
	
	//bottom row middle
	initialize(hall_sensor_2);
    2f74:	4658      	mov	r0, fp
    2f76:	47c8      	blx	r9
	begin(hall_sensor_2,1,0,1,false, io);
    2f78:	9501      	str	r5, [sp, #4]
    2f7a:	9400      	str	r4, [sp, #0]
    2f7c:	2301      	movs	r3, #1
    2f7e:	4622      	mov	r2, r4
    2f80:	4619      	mov	r1, r3
    2f82:	4658      	mov	r0, fp
    2f84:	47c0      	blx	r8
	triggerInitialize(hall_sensor_2, io);
    2f86:	4629      	mov	r1, r5
    2f88:	4658      	mov	r0, fp
    2f8a:	47b8      	blx	r7
	delay_ms(5);
    2f8c:	2005      	movs	r0, #5
    2f8e:	47b0      	blx	r6
	
	//bottom row right
	initialize(hall_sensor_3);
    2f90:	4650      	mov	r0, sl
    2f92:	47c8      	blx	r9
	begin(hall_sensor_3,1,1,0,false, io);
    2f94:	9501      	str	r5, [sp, #4]
    2f96:	9400      	str	r4, [sp, #0]
    2f98:	4623      	mov	r3, r4
    2f9a:	2201      	movs	r2, #1
    2f9c:	4611      	mov	r1, r2
    2f9e:	4650      	mov	r0, sl
    2fa0:	47c0      	blx	r8
	triggerInitialize(hall_sensor_3, io);
    2fa2:	4629      	mov	r1, r5
    2fa4:	4650      	mov	r0, sl
    2fa6:	47b8      	blx	r7
	delay_ms(5);
    2fa8:	2005      	movs	r0, #5
    2faa:	47b0      	blx	r6
	
	//middle row left
	initialize(hall_sensor_4);
    2fac:	f8dd a00c 	ldr.w	sl, [sp, #12]
    2fb0:	4650      	mov	r0, sl
    2fb2:	47c8      	blx	r9
	begin(hall_sensor_4,2,0,0,false, io);
    2fb4:	9501      	str	r5, [sp, #4]
    2fb6:	9400      	str	r4, [sp, #0]
    2fb8:	4623      	mov	r3, r4
    2fba:	4622      	mov	r2, r4
    2fbc:	2102      	movs	r1, #2
    2fbe:	4650      	mov	r0, sl
    2fc0:	47c0      	blx	r8
	triggerInitialize(hall_sensor_4, io);
    2fc2:	4629      	mov	r1, r5
    2fc4:	4650      	mov	r0, sl
    2fc6:	47b8      	blx	r7
	delay_ms(5);
    2fc8:	2005      	movs	r0, #5
    2fca:	47b0      	blx	r6
	
	//middle row middle
	initialize(hall_sensor_5);
    2fcc:	980e      	ldr	r0, [sp, #56]	; 0x38
    2fce:	47c8      	blx	r9
	begin(hall_sensor_5,2,0,1,false, io);
    2fd0:	9501      	str	r5, [sp, #4]
    2fd2:	9400      	str	r4, [sp, #0]
    2fd4:	2301      	movs	r3, #1
    2fd6:	4622      	mov	r2, r4
    2fd8:	2102      	movs	r1, #2
    2fda:	980e      	ldr	r0, [sp, #56]	; 0x38
    2fdc:	47c0      	blx	r8
	triggerInitialize(hall_sensor_5, io);
    2fde:	4629      	mov	r1, r5
    2fe0:	980e      	ldr	r0, [sp, #56]	; 0x38
    2fe2:	47b8      	blx	r7
	delay_ms(5);
    2fe4:	2005      	movs	r0, #5
    2fe6:	47b0      	blx	r6
	
	//middle row right
	initialize(hall_sensor_6);
    2fe8:	980f      	ldr	r0, [sp, #60]	; 0x3c
    2fea:	47c8      	blx	r9
	begin(hall_sensor_6,2,1,0,false, io);
    2fec:	9501      	str	r5, [sp, #4]
    2fee:	9400      	str	r4, [sp, #0]
    2ff0:	4623      	mov	r3, r4
    2ff2:	2201      	movs	r2, #1
    2ff4:	2102      	movs	r1, #2
    2ff6:	980f      	ldr	r0, [sp, #60]	; 0x3c
    2ff8:	47c0      	blx	r8
	triggerInitialize(hall_sensor_6, io);
    2ffa:	4629      	mov	r1, r5
    2ffc:	980f      	ldr	r0, [sp, #60]	; 0x3c
    2ffe:	47b8      	blx	r7
	delay_ms(5);
    3000:	2005      	movs	r0, #5
    3002:	47b0      	blx	r6
	
	//top row left
	initialize(hall_sensor_7);
    3004:	9810      	ldr	r0, [sp, #64]	; 0x40
    3006:	47c8      	blx	r9
	begin(hall_sensor_7,3,0,0,false, io);
    3008:	9501      	str	r5, [sp, #4]
    300a:	9400      	str	r4, [sp, #0]
    300c:	4623      	mov	r3, r4
    300e:	4622      	mov	r2, r4
    3010:	2103      	movs	r1, #3
    3012:	9810      	ldr	r0, [sp, #64]	; 0x40
    3014:	47c0      	blx	r8
	triggerInitialize(hall_sensor_7, io);
    3016:	4629      	mov	r1, r5
    3018:	9810      	ldr	r0, [sp, #64]	; 0x40
    301a:	47b8      	blx	r7
	delay_ms(5);
    301c:	2005      	movs	r0, #5
    301e:	47b0      	blx	r6
	
	//top row middle
	initialize(hall_sensor_8);
    3020:	9811      	ldr	r0, [sp, #68]	; 0x44
    3022:	47c8      	blx	r9
	begin(hall_sensor_8,3,0,1,false, io);
    3024:	9501      	str	r5, [sp, #4]
    3026:	9400      	str	r4, [sp, #0]
    3028:	2301      	movs	r3, #1
    302a:	4622      	mov	r2, r4
    302c:	2103      	movs	r1, #3
    302e:	9811      	ldr	r0, [sp, #68]	; 0x44
    3030:	47c0      	blx	r8
	triggerInitialize(hall_sensor_8, io);
    3032:	4629      	mov	r1, r5
    3034:	9811      	ldr	r0, [sp, #68]	; 0x44
    3036:	47b8      	blx	r7
	delay_ms(5);
    3038:	2005      	movs	r0, #5
    303a:	47b0      	blx	r6
	
	//top row right
	initialize(hall_sensor_9);
    303c:	9812      	ldr	r0, [sp, #72]	; 0x48
    303e:	47c8      	blx	r9
	begin(hall_sensor_9,3,1,0,false, io);
    3040:	9501      	str	r5, [sp, #4]
    3042:	9400      	str	r4, [sp, #0]
    3044:	4623      	mov	r3, r4
    3046:	2201      	movs	r2, #1
    3048:	2103      	movs	r1, #3
    304a:	9812      	ldr	r0, [sp, #72]	; 0x48
    304c:	47c0      	blx	r8
	triggerInitialize(hall_sensor_9, io);
    304e:	4629      	mov	r1, r5
    3050:	9812      	ldr	r0, [sp, #72]	; 0x48
    3052:	47b8      	blx	r7
	delay_ms(5);
    3054:	2005      	movs	r0, #5
    3056:	47b0      	blx	r6
}
    3058:	b005      	add	sp, #20
    305a:	e8bd 8ff0 	ldmia.w	sp!, {r4, r5, r6, r7, r8, r9, sl, fp, pc}
    305e:	bf00      	nop
    3060:	00002e2d 	.word	0x00002e2d
    3064:	000009c5 	.word	0x000009c5
    3068:	00002381 	.word	0x00002381
    306c:	00002d09 	.word	0x00002d09

00003070 <update_struct_values>:


void update_struct_values(struct sensorRow_Values *sensor_row, struct MLX90393 *hall_sensor_top, struct MLX90393 *hall_sensor_middle, struct MLX90393 *hall_sensor_bottom){
    3070:	b5f8      	push	{r3, r4, r5, r6, r7, lr}
    3072:	4604      	mov	r4, r0
		//allocate every data to corresponding struct value
		sensor_row->b_x_top = hall_sensor_top->data.x;
    3074:	edd1 7a13 	vldr	s15, [r1, #76]	; 0x4c
    3078:	edc0 7a00 	vstr	s15, [r0]
		sensor_row->b_y_top = hall_sensor_top->data.y;
    307c:	ed91 7a14 	vldr	s14, [r1, #80]	; 0x50
    3080:	ed80 7a03 	vstr	s14, [r0, #12]
		sensor_row->b_z_top = hall_sensor_top->data.z;
    3084:	6d49      	ldr	r1, [r1, #84]	; 0x54
    3086:	6181      	str	r1, [r0, #24]
		
		sensor_row->b_x_middle = hall_sensor_middle->data.x;
    3088:	6cd1      	ldr	r1, [r2, #76]	; 0x4c
    308a:	6041      	str	r1, [r0, #4]
		sensor_row->b_y_middle = hall_sensor_middle->data.y;
    308c:	6d11      	ldr	r1, [r2, #80]	; 0x50
    308e:	6101      	str	r1, [r0, #16]
		sensor_row->b_z_middle = hall_sensor_middle->data.z;
    3090:	6d52      	ldr	r2, [r2, #84]	; 0x54
    3092:	61c2      	str	r2, [r0, #28]
		
		sensor_row->b_x_bottom = hall_sensor_bottom->data.x;
    3094:	6cda      	ldr	r2, [r3, #76]	; 0x4c
    3096:	6082      	str	r2, [r0, #8]
		sensor_row->b_y_bottom = hall_sensor_bottom->data.y;
    3098:	6d1a      	ldr	r2, [r3, #80]	; 0x50
    309a:	6142      	str	r2, [r0, #20]
		sensor_row->b_z_bottom = hall_sensor_bottom->data.z;
    309c:	6d5b      	ldr	r3, [r3, #84]	; 0x54
    309e:	6203      	str	r3, [r0, #32]
		
		//Combine X and Y Axis Into Br
		sensor_row->b_r_top = (sensor_row->b_x_top*sensor_row->b_x_top) + (sensor_row->b_y_top*sensor_row->b_y_top);
    30a0:	ee67 7aa7 	vmul.f32	s15, s15, s15
    30a4:	ee27 7a07 	vmul.f32	s14, s14, s14
    30a8:	ee77 7a87 	vadd.f32	s15, s15, s14
    30ac:	edc0 7a09 	vstr	s15, [r0, #36]	; 0x24
		sensor_row->b_r_top = sqrt(sensor_row->b_r_top);
    30b0:	4f16      	ldr	r7, [pc, #88]	; (310c <update_struct_values+0x9c>)
    30b2:	ee17 0a90 	vmov	r0, s15
    30b6:	47b8      	blx	r7
    30b8:	4e15      	ldr	r6, [pc, #84]	; (3110 <update_struct_values+0xa0>)
    30ba:	47b0      	blx	r6
    30bc:	4d15      	ldr	r5, [pc, #84]	; (3114 <update_struct_values+0xa4>)
    30be:	47a8      	blx	r5
    30c0:	6260      	str	r0, [r4, #36]	; 0x24

		sensor_row->b_r_middle = (sensor_row->b_x_middle*sensor_row->b_x_middle) + (sensor_row->b_y_middle*sensor_row->b_y_middle);
    30c2:	edd4 7a01 	vldr	s15, [r4, #4]
    30c6:	ee67 7aa7 	vmul.f32	s15, s15, s15
    30ca:	ed94 7a04 	vldr	s14, [r4, #16]
    30ce:	ee27 7a07 	vmul.f32	s14, s14, s14
    30d2:	ee77 7a87 	vadd.f32	s15, s15, s14
    30d6:	edc4 7a0a 	vstr	s15, [r4, #40]	; 0x28
		sensor_row->b_r_middle = sqrt(sensor_row->b_r_middle);
    30da:	ee17 0a90 	vmov	r0, s15
    30de:	47b8      	blx	r7
    30e0:	47b0      	blx	r6
    30e2:	47a8      	blx	r5
    30e4:	62a0      	str	r0, [r4, #40]	; 0x28
		
		sensor_row->b_r_bottom = (sensor_row->b_x_bottom*sensor_row->b_x_bottom) + (sensor_row->b_y_bottom *sensor_row->b_y_bottom );
    30e6:	edd4 7a02 	vldr	s15, [r4, #8]
    30ea:	ee67 7aa7 	vmul.f32	s15, s15, s15
    30ee:	ed94 7a05 	vldr	s14, [r4, #20]
    30f2:	ee27 7a07 	vmul.f32	s14, s14, s14
    30f6:	ee77 7a87 	vadd.f32	s15, s15, s14
    30fa:	edc4 7a0b 	vstr	s15, [r4, #44]	; 0x2c
		sensor_row->b_r_bottom = sqrt(sensor_row->b_r_bottom);
    30fe:	ee17 0a90 	vmov	r0, s15
    3102:	47b8      	blx	r7
    3104:	47b0      	blx	r6
    3106:	47a8      	blx	r5
    3108:	62e0      	str	r0, [r4, #44]	; 0x2c
    310a:	bdf8      	pop	{r3, r4, r5, r6, r7, pc}
    310c:	00004561 	.word	0x00004561
    3110:	00004061 	.word	0x00004061
    3114:	00004b69 	.word	0x00004b69

00003118 <mag_to_force>:
		sensor_row->b_r_bottom = sqrt(sensor_row->b_r_bottom);
		*/
}


void mag_to_force(struct sensorRow_Values *sensor_row){
    3118:	e92d 4ff0 	stmdb	sp!, {r4, r5, r6, r7, r8, r9, sl, fp, lr}
    311c:	ed2d 8b06 	vpush	{d8-d10}
    3120:	b089      	sub	sp, #36	; 0x24
    3122:	4682      	mov	sl, r0
	
	sensor_row->force_x_top= 13.33 - (0.003288*sensor_row->b_x_top) + (0.003361*sensor_row->b_z_top) + (0.000000724*(sensor_row->b_x_top*sensor_row->b_x_top)) - (0.0000006201*(sensor_row->b_x_top*sensor_row->b_z_top)) + (0.0000002654*(sensor_row->b_z_top*sensor_row->b_z_top)) + (0.00000000004886*((sensor_row->b_x_top*sensor_row->b_x_top)*sensor_row->b_z_top)) - (0.0000000000242*(sensor_row->b_x_top*(sensor_row->b_z_top*sensor_row->b_z_top))) + (0.000000000006595*((sensor_row->b_z_top*sensor_row->b_z_top)*sensor_row->b_z_top));
    3124:	edd0 8a00 	vldr	s17, [r0]
    3128:	4dcb      	ldr	r5, [pc, #812]	; (3458 <mag_to_force+0x340>)
    312a:	ee18 0a90 	vmov	r0, s17
    312e:	47a8      	blx	r5
    3130:	4cca      	ldr	r4, [pc, #808]	; (345c <mag_to_force+0x344>)
    3132:	a39d      	add	r3, pc, #628	; (adr r3, 33a8 <mag_to_force+0x290>)
    3134:	e9d3 2300 	ldrd	r2, r3, [r3]
    3138:	47a0      	blx	r4
    313a:	4ec9      	ldr	r6, [pc, #804]	; (3460 <mag_to_force+0x348>)
    313c:	4602      	mov	r2, r0
    313e:	460b      	mov	r3, r1
    3140:	a19b      	add	r1, pc, #620	; (adr r1, 33b0 <mag_to_force+0x298>)
    3142:	e9d1 0100 	ldrd	r0, r1, [r1]
    3146:	47b0      	blx	r6
    3148:	4680      	mov	r8, r0
    314a:	4689      	mov	r9, r1
    314c:	ed9a 8a06 	vldr	s16, [sl, #24]
    3150:	ee18 0a10 	vmov	r0, s16
    3154:	47a8      	blx	r5
    3156:	e9cd 0100 	strd	r0, r1, [sp]
    315a:	a397      	add	r3, pc, #604	; (adr r3, 33b8 <mag_to_force+0x2a0>)
    315c:	e9d3 2300 	ldrd	r2, r3, [r3]
    3160:	47a0      	blx	r4
    3162:	4fc0      	ldr	r7, [pc, #768]	; (3464 <mag_to_force+0x34c>)
    3164:	4602      	mov	r2, r0
    3166:	460b      	mov	r3, r1
    3168:	4640      	mov	r0, r8
    316a:	4649      	mov	r1, r9
    316c:	47b8      	blx	r7
    316e:	4680      	mov	r8, r0
    3170:	4689      	mov	r9, r1
    3172:	ee28 9aa8 	vmul.f32	s18, s17, s17
    3176:	ee19 0a10 	vmov	r0, s18
    317a:	47a8      	blx	r5
    317c:	a390      	add	r3, pc, #576	; (adr r3, 33c0 <mag_to_force+0x2a8>)
    317e:	e9d3 2300 	ldrd	r2, r3, [r3]
    3182:	47a0      	blx	r4
    3184:	4602      	mov	r2, r0
    3186:	460b      	mov	r3, r1
    3188:	4640      	mov	r0, r8
    318a:	4649      	mov	r1, r9
    318c:	47b8      	blx	r7
    318e:	4680      	mov	r8, r0
    3190:	4689      	mov	r9, r1
    3192:	ee68 7a88 	vmul.f32	s15, s17, s16
    3196:	ee17 0a90 	vmov	r0, s15
    319a:	47a8      	blx	r5
    319c:	a38a      	add	r3, pc, #552	; (adr r3, 33c8 <mag_to_force+0x2b0>)
    319e:	e9d3 2300 	ldrd	r2, r3, [r3]
    31a2:	47a0      	blx	r4
    31a4:	4602      	mov	r2, r0
    31a6:	460b      	mov	r3, r1
    31a8:	4640      	mov	r0, r8
    31aa:	4649      	mov	r1, r9
    31ac:	47b0      	blx	r6
    31ae:	4680      	mov	r8, r0
    31b0:	4689      	mov	r9, r1
    31b2:	ee28 aa08 	vmul.f32	s20, s16, s16
    31b6:	ee1a 0a10 	vmov	r0, s20
    31ba:	47a8      	blx	r5
    31bc:	e9cd 0102 	strd	r0, r1, [sp, #8]
    31c0:	a383      	add	r3, pc, #524	; (adr r3, 33d0 <mag_to_force+0x2b8>)
    31c2:	e9d3 2300 	ldrd	r2, r3, [r3]
    31c6:	47a0      	blx	r4
    31c8:	4602      	mov	r2, r0
    31ca:	460b      	mov	r3, r1
    31cc:	4640      	mov	r0, r8
    31ce:	4649      	mov	r1, r9
    31d0:	47b8      	blx	r7
    31d2:	4680      	mov	r8, r0
    31d4:	4689      	mov	r9, r1
	sensor_row->force_y_top= 2.824 - (0.0004832*sensor_row->b_y_top) + (0.001006*sensor_row->b_z_top) + (0.000000521*(sensor_row->b_y_top*sensor_row->b_y_top)) - (0.0000003988*(sensor_row->b_y_top*sensor_row->b_z_top)) + (0.000000135*(sensor_row->b_z_top*sensor_row->b_z_top)) + (0.00000000003199*((sensor_row->b_y_top*sensor_row->b_y_top)*sensor_row->b_z_top)) - (0.0000000000218*(sensor_row->b_y_top*(sensor_row->b_z_top*sensor_row->b_z_top))) + (0.000000000004829*((sensor_row->b_z_top*sensor_row->b_z_top)*sensor_row->b_z_top));
	sensor_row->force_z_top= 24.47 - (0.004608*sensor_row->b_r_top) + (0.006606*sensor_row->b_z_top) + (0.0000003998*(sensor_row->b_r_top*sensor_row->b_r_top)) - (0.0000006645*(sensor_row->b_r_top*sensor_row->b_z_top)) + (0.0000005293*(sensor_row->b_z_top*sensor_row->b_z_top)) + (0.000000000006865*((sensor_row->b_r_top*sensor_row->b_r_top)*sensor_row->b_z_top)) - (0.00000000002459*(sensor_row->b_r_top*(sensor_row->b_z_top*sensor_row->b_z_top))) + (0.0000000000106*((sensor_row->b_z_top*sensor_row->b_z_top)*sensor_row->b_z_top));
    31d6:	ee68 7a09 	vmul.f32	s15, s16, s18
    31da:	ee17 0a90 	vmov	r0, s15
    31de:	47a8      	blx	r5
    31e0:	a37d      	add	r3, pc, #500	; (adr r3, 33d8 <mag_to_force+0x2c0>)
    31e2:	e9d3 2300 	ldrd	r2, r3, [r3]
    31e6:	47a0      	blx	r4
    31e8:	4602      	mov	r2, r0
    31ea:	460b      	mov	r3, r1
    31ec:	4640      	mov	r0, r8
    31ee:	4649      	mov	r1, r9
    31f0:	47b8      	blx	r7
    31f2:	4680      	mov	r8, r0
    31f4:	4689      	mov	r9, r1
	sensor_row->force_r_top= (sensor_row->force_x_top*sensor_row->force_x_top) + (sensor_row->force_y_top*sensor_row->force_y_top);
    31f6:	ee68 7a8a 	vmul.f32	s15, s17, s20
    31fa:	ee17 0a90 	vmov	r0, s15
    31fe:	47a8      	blx	r5
	sensor_row->force_z_top= 24.47 - (0.004608*sensor_row->b_r_top) + (0.006606*sensor_row->b_z_top) + (0.0000003998*(sensor_row->b_r_top*sensor_row->b_r_top)) - (0.0000006645*(sensor_row->b_r_top*sensor_row->b_z_top)) + (0.0000005293*(sensor_row->b_z_top*sensor_row->b_z_top)) + (0.000000000006865*((sensor_row->b_r_top*sensor_row->b_r_top)*sensor_row->b_z_top)) - (0.00000000002459*(sensor_row->b_r_top*(sensor_row->b_z_top*sensor_row->b_z_top))) + (0.0000000000106*((sensor_row->b_z_top*sensor_row->b_z_top)*sensor_row->b_z_top));
    3200:	a377      	add	r3, pc, #476	; (adr r3, 33e0 <mag_to_force+0x2c8>)
    3202:	e9d3 2300 	ldrd	r2, r3, [r3]
    3206:	47a0      	blx	r4
    3208:	4602      	mov	r2, r0
    320a:	460b      	mov	r3, r1
    320c:	4640      	mov	r0, r8
    320e:	4649      	mov	r1, r9
    3210:	47b0      	blx	r6
    3212:	4680      	mov	r8, r0
    3214:	4689      	mov	r9, r1
	sensor_row->force_r_top= (sensor_row->force_x_top*sensor_row->force_x_top) + (sensor_row->force_y_top*sensor_row->force_y_top);
    3216:	ee68 7a0a 	vmul.f32	s15, s16, s20
    321a:	ee17 0a90 	vmov	r0, s15
    321e:	47a8      	blx	r5
    3220:	e9cd 0104 	strd	r0, r1, [sp, #16]
    3224:	a370      	add	r3, pc, #448	; (adr r3, 33e8 <mag_to_force+0x2d0>)
    3226:	e9d3 2300 	ldrd	r2, r3, [r3]
    322a:	47a0      	blx	r4
    322c:	4602      	mov	r2, r0
    322e:	460b      	mov	r3, r1
    3230:	4640      	mov	r0, r8
    3232:	4649      	mov	r1, r9
    3234:	47b8      	blx	r7
    3236:	f8df b230 	ldr.w	fp, [pc, #560]	; 3468 <mag_to_force+0x350>
    323a:	47d8      	blx	fp
    323c:	ee08 0a90 	vmov	s17, r0
	sensor_row->force_x_top= 13.33 - (0.003288*sensor_row->b_x_top) + (0.003361*sensor_row->b_z_top) + (0.000000724*(sensor_row->b_x_top*sensor_row->b_x_top)) - (0.0000006201*(sensor_row->b_x_top*sensor_row->b_z_top)) + (0.0000002654*(sensor_row->b_z_top*sensor_row->b_z_top)) + (0.00000000004886*((sensor_row->b_x_top*sensor_row->b_x_top)*sensor_row->b_z_top)) - (0.0000000000242*(sensor_row->b_x_top*(sensor_row->b_z_top*sensor_row->b_z_top))) + (0.000000000006595*((sensor_row->b_z_top*sensor_row->b_z_top)*sensor_row->b_z_top));
    3240:	f8ca 0030 	str.w	r0, [sl, #48]	; 0x30
	sensor_row->force_y_top= 2.824 - (0.0004832*sensor_row->b_y_top) + (0.001006*sensor_row->b_z_top) + (0.000000521*(sensor_row->b_y_top*sensor_row->b_y_top)) - (0.0000003988*(sensor_row->b_y_top*sensor_row->b_z_top)) + (0.000000135*(sensor_row->b_z_top*sensor_row->b_z_top)) + (0.00000000003199*((sensor_row->b_y_top*sensor_row->b_y_top)*sensor_row->b_z_top)) - (0.0000000000218*(sensor_row->b_y_top*(sensor_row->b_z_top*sensor_row->b_z_top))) + (0.000000000004829*((sensor_row->b_z_top*sensor_row->b_z_top)*sensor_row->b_z_top));
    3244:	ed9a 9a03 	vldr	s18, [sl, #12]
    3248:	ee19 0a10 	vmov	r0, s18
    324c:	47a8      	blx	r5
    324e:	a368      	add	r3, pc, #416	; (adr r3, 33f0 <mag_to_force+0x2d8>)
    3250:	e9d3 2300 	ldrd	r2, r3, [r3]
    3254:	47a0      	blx	r4
    3256:	4602      	mov	r2, r0
    3258:	460b      	mov	r3, r1
    325a:	a167      	add	r1, pc, #412	; (adr r1, 33f8 <mag_to_force+0x2e0>)
    325c:	e9d1 0100 	ldrd	r0, r1, [r1]
    3260:	47b0      	blx	r6
    3262:	4680      	mov	r8, r0
    3264:	4689      	mov	r9, r1
    3266:	a366      	add	r3, pc, #408	; (adr r3, 3400 <mag_to_force+0x2e8>)
    3268:	e9d3 2300 	ldrd	r2, r3, [r3]
    326c:	e9dd 0100 	ldrd	r0, r1, [sp]
    3270:	47a0      	blx	r4
    3272:	4602      	mov	r2, r0
    3274:	460b      	mov	r3, r1
    3276:	4640      	mov	r0, r8
    3278:	4649      	mov	r1, r9
    327a:	47b8      	blx	r7
    327c:	4680      	mov	r8, r0
    327e:	4689      	mov	r9, r1
	sensor_row->force_z_top= 24.47 - (0.004608*sensor_row->b_r_top) + (0.006606*sensor_row->b_z_top) + (0.0000003998*(sensor_row->b_r_top*sensor_row->b_r_top)) - (0.0000006645*(sensor_row->b_r_top*sensor_row->b_z_top)) + (0.0000005293*(sensor_row->b_z_top*sensor_row->b_z_top)) + (0.000000000006865*((sensor_row->b_r_top*sensor_row->b_r_top)*sensor_row->b_z_top)) - (0.00000000002459*(sensor_row->b_r_top*(sensor_row->b_z_top*sensor_row->b_z_top))) + (0.0000000000106*((sensor_row->b_z_top*sensor_row->b_z_top)*sensor_row->b_z_top));
    3280:	ee69 9a09 	vmul.f32	s19, s18, s18
    3284:	ee19 0a90 	vmov	r0, s19
    3288:	47a8      	blx	r5
	sensor_row->force_y_top= 2.824 - (0.0004832*sensor_row->b_y_top) + (0.001006*sensor_row->b_z_top) + (0.000000521*(sensor_row->b_y_top*sensor_row->b_y_top)) - (0.0000003988*(sensor_row->b_y_top*sensor_row->b_z_top)) + (0.000000135*(sensor_row->b_z_top*sensor_row->b_z_top)) + (0.00000000003199*((sensor_row->b_y_top*sensor_row->b_y_top)*sensor_row->b_z_top)) - (0.0000000000218*(sensor_row->b_y_top*(sensor_row->b_z_top*sensor_row->b_z_top))) + (0.000000000004829*((sensor_row->b_z_top*sensor_row->b_z_top)*sensor_row->b_z_top));
    328a:	a35f      	add	r3, pc, #380	; (adr r3, 3408 <mag_to_force+0x2f0>)
    328c:	e9d3 2300 	ldrd	r2, r3, [r3]
    3290:	47a0      	blx	r4
    3292:	4602      	mov	r2, r0
    3294:	460b      	mov	r3, r1
    3296:	4640      	mov	r0, r8
    3298:	4649      	mov	r1, r9
    329a:	47b8      	blx	r7
    329c:	4680      	mov	r8, r0
    329e:	4689      	mov	r9, r1
	sensor_row->force_z_top= 24.47 - (0.004608*sensor_row->b_r_top) + (0.006606*sensor_row->b_z_top) + (0.0000003998*(sensor_row->b_r_top*sensor_row->b_r_top)) - (0.0000006645*(sensor_row->b_r_top*sensor_row->b_z_top)) + (0.0000005293*(sensor_row->b_z_top*sensor_row->b_z_top)) + (0.000000000006865*((sensor_row->b_r_top*sensor_row->b_r_top)*sensor_row->b_z_top)) - (0.00000000002459*(sensor_row->b_r_top*(sensor_row->b_z_top*sensor_row->b_z_top))) + (0.0000000000106*((sensor_row->b_z_top*sensor_row->b_z_top)*sensor_row->b_z_top));
    32a0:	ee68 7a09 	vmul.f32	s15, s16, s18
    32a4:	ee17 0a90 	vmov	r0, s15
    32a8:	47a8      	blx	r5
    32aa:	a359      	add	r3, pc, #356	; (adr r3, 3410 <mag_to_force+0x2f8>)
    32ac:	e9d3 2300 	ldrd	r2, r3, [r3]
    32b0:	47a0      	blx	r4
    32b2:	4602      	mov	r2, r0
    32b4:	460b      	mov	r3, r1
    32b6:	4640      	mov	r0, r8
    32b8:	4649      	mov	r1, r9
    32ba:	47b0      	blx	r6
    32bc:	4680      	mov	r8, r0
    32be:	4689      	mov	r9, r1
    32c0:	a355      	add	r3, pc, #340	; (adr r3, 3418 <mag_to_force+0x300>)
    32c2:	e9d3 2300 	ldrd	r2, r3, [r3]
    32c6:	e9dd 0102 	ldrd	r0, r1, [sp, #8]
    32ca:	47a0      	blx	r4
    32cc:	4602      	mov	r2, r0
    32ce:	460b      	mov	r3, r1
    32d0:	4640      	mov	r0, r8
    32d2:	4649      	mov	r1, r9
    32d4:	47b8      	blx	r7
    32d6:	4680      	mov	r8, r0
    32d8:	4689      	mov	r9, r1
	sensor_row->force_r_top= (sensor_row->force_x_top*sensor_row->force_x_top) + (sensor_row->force_y_top*sensor_row->force_y_top);
    32da:	ee68 7a29 	vmul.f32	s15, s16, s19
    32de:	ee17 0a90 	vmov	r0, s15
    32e2:	47a8      	blx	r5
    32e4:	a34e      	add	r3, pc, #312	; (adr r3, 3420 <mag_to_force+0x308>)
    32e6:	e9d3 2300 	ldrd	r2, r3, [r3]
    32ea:	47a0      	blx	r4
    32ec:	4602      	mov	r2, r0
    32ee:	460b      	mov	r3, r1
    32f0:	4640      	mov	r0, r8
    32f2:	4649      	mov	r1, r9
    32f4:	47b8      	blx	r7
    32f6:	4680      	mov	r8, r0
    32f8:	4689      	mov	r9, r1
	sensor_row->force_r_top = sqrt(sensor_row->force_r_top);
    32fa:	ee6a 7a09 	vmul.f32	s15, s20, s18
    32fe:	ee17 0a90 	vmov	r0, s15
    3302:	47a8      	blx	r5
	sensor_row->force_r_top= (sensor_row->force_x_top*sensor_row->force_x_top) + (sensor_row->force_y_top*sensor_row->force_y_top);
    3304:	a348      	add	r3, pc, #288	; (adr r3, 3428 <mag_to_force+0x310>)
    3306:	e9d3 2300 	ldrd	r2, r3, [r3]
    330a:	47a0      	blx	r4
    330c:	4602      	mov	r2, r0
    330e:	460b      	mov	r3, r1
    3310:	4640      	mov	r0, r8
    3312:	4649      	mov	r1, r9
    3314:	47b0      	blx	r6
    3316:	4680      	mov	r8, r0
    3318:	4689      	mov	r9, r1
	sensor_row->force_r_top = sqrt(sensor_row->force_r_top);
    331a:	a345      	add	r3, pc, #276	; (adr r3, 3430 <mag_to_force+0x318>)
    331c:	e9d3 2300 	ldrd	r2, r3, [r3]
    3320:	e9dd 0104 	ldrd	r0, r1, [sp, #16]
    3324:	47a0      	blx	r4
    3326:	4602      	mov	r2, r0
    3328:	460b      	mov	r3, r1
    332a:	4640      	mov	r0, r8
    332c:	4649      	mov	r1, r9
    332e:	47b8      	blx	r7
    3330:	47d8      	blx	fp
    3332:	ee09 0a10 	vmov	s18, r0
	sensor_row->force_y_top= 2.824 - (0.0004832*sensor_row->b_y_top) + (0.001006*sensor_row->b_z_top) + (0.000000521*(sensor_row->b_y_top*sensor_row->b_y_top)) - (0.0000003988*(sensor_row->b_y_top*sensor_row->b_z_top)) + (0.000000135*(sensor_row->b_z_top*sensor_row->b_z_top)) + (0.00000000003199*((sensor_row->b_y_top*sensor_row->b_y_top)*sensor_row->b_z_top)) - (0.0000000000218*(sensor_row->b_y_top*(sensor_row->b_z_top*sensor_row->b_z_top))) + (0.000000000004829*((sensor_row->b_z_top*sensor_row->b_z_top)*sensor_row->b_z_top));
    3336:	f8ca 003c 	str.w	r0, [sl, #60]	; 0x3c
	sensor_row->force_z_top= 24.47 - (0.004608*sensor_row->b_r_top) + (0.006606*sensor_row->b_z_top) + (0.0000003998*(sensor_row->b_r_top*sensor_row->b_r_top)) - (0.0000006645*(sensor_row->b_r_top*sensor_row->b_z_top)) + (0.0000005293*(sensor_row->b_z_top*sensor_row->b_z_top)) + (0.000000000006865*((sensor_row->b_r_top*sensor_row->b_r_top)*sensor_row->b_z_top)) - (0.00000000002459*(sensor_row->b_r_top*(sensor_row->b_z_top*sensor_row->b_z_top))) + (0.0000000000106*((sensor_row->b_z_top*sensor_row->b_z_top)*sensor_row->b_z_top));
    333a:	edda 9a09 	vldr	s19, [sl, #36]	; 0x24
    333e:	ee19 0a90 	vmov	r0, s19
    3342:	47a8      	blx	r5
    3344:	a33c      	add	r3, pc, #240	; (adr r3, 3438 <mag_to_force+0x320>)
    3346:	e9d3 2300 	ldrd	r2, r3, [r3]
    334a:	47a0      	blx	r4
    334c:	4602      	mov	r2, r0
    334e:	460b      	mov	r3, r1
    3350:	a13b      	add	r1, pc, #236	; (adr r1, 3440 <mag_to_force+0x328>)
    3352:	e9d1 0100 	ldrd	r0, r1, [r1]
    3356:	47b0      	blx	r6
    3358:	4680      	mov	r8, r0
    335a:	4689      	mov	r9, r1
    335c:	a33a      	add	r3, pc, #232	; (adr r3, 3448 <mag_to_force+0x330>)
    335e:	e9d3 2300 	ldrd	r2, r3, [r3]
    3362:	e9dd 0100 	ldrd	r0, r1, [sp]
    3366:	47a0      	blx	r4
    3368:	4602      	mov	r2, r0
    336a:	460b      	mov	r3, r1
    336c:	4640      	mov	r0, r8
    336e:	4649      	mov	r1, r9
    3370:	47b8      	blx	r7
    3372:	4680      	mov	r8, r0
    3374:	4689      	mov	r9, r1
	sensor_row->force_r_top= (sensor_row->force_x_top*sensor_row->force_x_top) + (sensor_row->force_y_top*sensor_row->force_y_top);
    3376:	ee69 aaa9 	vmul.f32	s21, s19, s19
    337a:	ee1a 0a90 	vmov	r0, s21
    337e:	47a8      	blx	r5
	sensor_row->force_z_top= 24.47 - (0.004608*sensor_row->b_r_top) + (0.006606*sensor_row->b_z_top) + (0.0000003998*(sensor_row->b_r_top*sensor_row->b_r_top)) - (0.0000006645*(sensor_row->b_r_top*sensor_row->b_z_top)) + (0.0000005293*(sensor_row->b_z_top*sensor_row->b_z_top)) + (0.000000000006865*((sensor_row->b_r_top*sensor_row->b_r_top)*sensor_row->b_z_top)) - (0.00000000002459*(sensor_row->b_r_top*(sensor_row->b_z_top*sensor_row->b_z_top))) + (0.0000000000106*((sensor_row->b_z_top*sensor_row->b_z_top)*sensor_row->b_z_top));
    3380:	a333      	add	r3, pc, #204	; (adr r3, 3450 <mag_to_force+0x338>)
    3382:	e9d3 2300 	ldrd	r2, r3, [r3]
    3386:	47a0      	blx	r4
    3388:	4602      	mov	r2, r0
    338a:	460b      	mov	r3, r1
    338c:	4640      	mov	r0, r8
    338e:	4649      	mov	r1, r9
    3390:	47b8      	blx	r7
    3392:	4680      	mov	r8, r0
    3394:	4689      	mov	r9, r1
	sensor_row->force_r_top= (sensor_row->force_x_top*sensor_row->force_x_top) + (sensor_row->force_y_top*sensor_row->force_y_top);
    3396:	ee68 7a29 	vmul.f32	s15, s16, s19
    339a:	ee17 0a90 	vmov	r0, s15
    339e:	47a8      	blx	r5
    33a0:	e064      	b.n	346c <mag_to_force+0x354>
    33a2:	bf00      	nop
    33a4:	f3af 8000 	nop.w
    33a8:	8f041462 	.word	0x8f041462
    33ac:	3f6aef6f 	.word	0x3f6aef6f
    33b0:	c28f5c29 	.word	0xc28f5c29
    33b4:	402aa8f5 	.word	0x402aa8f5
    33b8:	229e9079 	.word	0x229e9079
    33bc:	3f6b8887 	.word	0x3f6b8887
    33c0:	d646eb6e 	.word	0xd646eb6e
    33c4:	3ea84b1c 	.word	0x3ea84b1c
    33c8:	521dd696 	.word	0x521dd696
    33cc:	3ea4ce9e 	.word	0x3ea4ce9e
    33d0:	8b46aa0f 	.word	0x8b46aa0f
    33d4:	3e91cf89 	.word	0x3e91cf89
    33d8:	05b88164 	.word	0x05b88164
    33dc:	3dcadc6f 	.word	0x3dcadc6f
    33e0:	c6957207 	.word	0xc6957207
    33e4:	3dba9bb1 	.word	0x3dba9bb1
    33e8:	54aa19eb 	.word	0x54aa19eb
    33ec:	3d9d014f 	.word	0x3d9d014f
    33f0:	328a96c7 	.word	0x328a96c7
    33f4:	3f3faac0 	.word	0x3f3faac0
    33f8:	4fdf3b64 	.word	0x4fdf3b64
    33fc:	4006978d 	.word	0x4006978d
    3400:	4662bae0 	.word	0x4662bae0
    3404:	3f507b78 	.word	0x3f507b78
    3408:	1dbb855a 	.word	0x1dbb855a
    340c:	3ea17b5b 	.word	0x3ea17b5b
    3410:	f2d94d7a 	.word	0xf2d94d7a
    3414:	3e9ac354 	.word	0x3e9ac354
    3418:	8ed8f651 	.word	0x8ed8f651
    341c:	3e821e90 	.word	0x3e821e90
    3420:	37757ffe 	.word	0x37757ffe
    3424:	3dc19631 	.word	0x3dc19631
    3428:	8cce8eea 	.word	0x8cce8eea
    342c:	3db7f827 	.word	0x3db7f827
    3430:	7c871c2d 	.word	0x7c871c2d
    3434:	3d953cf8 	.word	0x3d953cf8
    3438:	94ccab3f 	.word	0x94ccab3f
    343c:	3f72dfd6 	.word	0x3f72dfd6
    3440:	eb851eb8 	.word	0xeb851eb8
    3444:	40387851 	.word	0x40387851
    3448:	9f51697f 	.word	0x9f51697f
    344c:	3f7b0ee4 	.word	0x3f7b0ee4
    3450:	fec17451 	.word	0xfec17451
    3454:	3e9ad482 	.word	0x3e9ad482
    3458:	00004561 	.word	0x00004561
    345c:	00004609 	.word	0x00004609
    3460:	000042a1 	.word	0x000042a1
    3464:	000042a5 	.word	0x000042a5
    3468:	00004b69 	.word	0x00004b69
    346c:	a3f5      	add	r3, pc, #980	; (adr r3, 3844 <mag_to_force+0x72c>)
    346e:	e9d3 2300 	ldrd	r2, r3, [r3]
    3472:	47a0      	blx	r4
    3474:	4602      	mov	r2, r0
    3476:	460b      	mov	r3, r1
    3478:	4640      	mov	r0, r8
    347a:	4649      	mov	r1, r9
    347c:	47b0      	blx	r6
    347e:	4680      	mov	r8, r0
    3480:	4689      	mov	r9, r1
    3482:	a3f2      	add	r3, pc, #968	; (adr r3, 384c <mag_to_force+0x734>)
    3484:	e9d3 2300 	ldrd	r2, r3, [r3]
    3488:	e9dd 0102 	ldrd	r0, r1, [sp, #8]
    348c:	47a0      	blx	r4
    348e:	4602      	mov	r2, r0
    3490:	460b      	mov	r3, r1
    3492:	4640      	mov	r0, r8
    3494:	4649      	mov	r1, r9
    3496:	47b8      	blx	r7
    3498:	4680      	mov	r8, r0
    349a:	4689      	mov	r9, r1
	sensor_row->force_r_top = sqrt(sensor_row->force_r_top);
    349c:	ee68 7a2a 	vmul.f32	s15, s16, s21
    34a0:	ee17 0a90 	vmov	r0, s15
    34a4:	47a8      	blx	r5
    34a6:	a3eb      	add	r3, pc, #940	; (adr r3, 3854 <mag_to_force+0x73c>)
    34a8:	e9d3 2300 	ldrd	r2, r3, [r3]
    34ac:	47a0      	blx	r4
    34ae:	4602      	mov	r2, r0
    34b0:	460b      	mov	r3, r1
    34b2:	4640      	mov	r0, r8
    34b4:	4649      	mov	r1, r9
    34b6:	47b8      	blx	r7
    34b8:	4680      	mov	r8, r0
    34ba:	4689      	mov	r9, r1
	
    34bc:	ee6a 7a29 	vmul.f32	s15, s20, s19
    34c0:	ee17 0a90 	vmov	r0, s15
    34c4:	47a8      	blx	r5
	sensor_row->force_r_top = sqrt(sensor_row->force_r_top);
    34c6:	a3e5      	add	r3, pc, #916	; (adr r3, 385c <mag_to_force+0x744>)
    34c8:	e9d3 2300 	ldrd	r2, r3, [r3]
    34cc:	47a0      	blx	r4
    34ce:	4602      	mov	r2, r0
    34d0:	460b      	mov	r3, r1
    34d2:	4640      	mov	r0, r8
    34d4:	4649      	mov	r1, r9
    34d6:	47b0      	blx	r6
    34d8:	4680      	mov	r8, r0
    34da:	4689      	mov	r9, r1
	
    34dc:	a3e1      	add	r3, pc, #900	; (adr r3, 3864 <mag_to_force+0x74c>)
    34de:	e9d3 2300 	ldrd	r2, r3, [r3]
    34e2:	e9dd 0104 	ldrd	r0, r1, [sp, #16]
    34e6:	47a0      	blx	r4
    34e8:	4602      	mov	r2, r0
    34ea:	460b      	mov	r3, r1
    34ec:	4640      	mov	r0, r8
    34ee:	4649      	mov	r1, r9
    34f0:	47b8      	blx	r7
    34f2:	47d8      	blx	fp
	sensor_row->force_z_top= 24.47 - (0.004608*sensor_row->b_r_top) + (0.006606*sensor_row->b_z_top) + (0.0000003998*(sensor_row->b_r_top*sensor_row->b_r_top)) - (0.0000006645*(sensor_row->b_r_top*sensor_row->b_z_top)) + (0.0000005293*(sensor_row->b_z_top*sensor_row->b_z_top)) + (0.000000000006865*((sensor_row->b_r_top*sensor_row->b_r_top)*sensor_row->b_z_top)) - (0.00000000002459*(sensor_row->b_r_top*(sensor_row->b_z_top*sensor_row->b_z_top))) + (0.0000000000106*((sensor_row->b_z_top*sensor_row->b_z_top)*sensor_row->b_z_top));
    34f4:	f8ca 0048 	str.w	r0, [sl, #72]	; 0x48
	sensor_row->force_r_top= (sensor_row->force_x_top*sensor_row->force_x_top) + (sensor_row->force_y_top*sensor_row->force_y_top);
    34f8:	ee68 8aa8 	vmul.f32	s17, s17, s17
    34fc:	ee29 9a09 	vmul.f32	s18, s18, s18
    3500:	ee78 8a89 	vadd.f32	s17, s17, s18
    3504:	edca 8a15 	vstr	s17, [sl, #84]	; 0x54
	sensor_row->force_r_top = sqrt(sensor_row->force_r_top);
    3508:	ee18 0a90 	vmov	r0, s17
    350c:	47a8      	blx	r5
    350e:	4bcc      	ldr	r3, [pc, #816]	; (3840 <mag_to_force+0x728>)
    3510:	4798      	blx	r3
    3512:	47d8      	blx	fp
    3514:	f8ca 0054 	str.w	r0, [sl, #84]	; 0x54
	sensor_row->force_x_middle= 1.411 - (0.0002827*sensor_row->b_x_middle) + (0.0003494*sensor_row->b_z_middle) + (0.0000001662*(sensor_row->b_x_middle*sensor_row->b_x_middle)) - (0.0000001945*(sensor_row->b_x_middle*sensor_row->b_z_middle)) + (0.00000003569*(sensor_row->b_z_middle*sensor_row->b_z_middle)) + (0.0000000000112*((sensor_row->b_x_middle*sensor_row->b_x_middle)*sensor_row->b_z_middle)) - (0.000000000009128*(sensor_row->b_x_middle*(sensor_row->b_z_middle*sensor_row->b_z_middle))) + (0.000000000001119*((sensor_row->b_z_middle*sensor_row->b_z_middle)*sensor_row->b_z_middle));
    3518:	edda 8a01 	vldr	s17, [sl, #4]
    351c:	ee18 0a90 	vmov	r0, s17
    3520:	47a8      	blx	r5
    3522:	a39b      	add	r3, pc, #620	; (adr r3, 3790 <mag_to_force+0x678>)
    3524:	e9d3 2300 	ldrd	r2, r3, [r3]
    3528:	47a0      	blx	r4
    352a:	4602      	mov	r2, r0
    352c:	460b      	mov	r3, r1
    352e:	a19a      	add	r1, pc, #616	; (adr r1, 3798 <mag_to_force+0x680>)
    3530:	e9d1 0100 	ldrd	r0, r1, [r1]
    3534:	47b0      	blx	r6
    3536:	4680      	mov	r8, r0
    3538:	4689      	mov	r9, r1
    353a:	ed9a 8a07 	vldr	s16, [sl, #28]
    353e:	ee18 0a10 	vmov	r0, s16
    3542:	47a8      	blx	r5
    3544:	e9cd 0100 	strd	r0, r1, [sp]
    3548:	a395      	add	r3, pc, #596	; (adr r3, 37a0 <mag_to_force+0x688>)
    354a:	e9d3 2300 	ldrd	r2, r3, [r3]
    354e:	47a0      	blx	r4
    3550:	4602      	mov	r2, r0
    3552:	460b      	mov	r3, r1
    3554:	4640      	mov	r0, r8
    3556:	4649      	mov	r1, r9
    3558:	47b8      	blx	r7
    355a:	4680      	mov	r8, r0
    355c:	4689      	mov	r9, r1
    355e:	ee28 9aa8 	vmul.f32	s18, s17, s17
    3562:	ee19 0a10 	vmov	r0, s18
    3566:	47a8      	blx	r5
    3568:	a38f      	add	r3, pc, #572	; (adr r3, 37a8 <mag_to_force+0x690>)
    356a:	e9d3 2300 	ldrd	r2, r3, [r3]
    356e:	47a0      	blx	r4
    3570:	4602      	mov	r2, r0
    3572:	460b      	mov	r3, r1
    3574:	4640      	mov	r0, r8
    3576:	4649      	mov	r1, r9
    3578:	47b8      	blx	r7
    357a:	4680      	mov	r8, r0
    357c:	4689      	mov	r9, r1
    357e:	ee68 7a88 	vmul.f32	s15, s17, s16
    3582:	ee17 0a90 	vmov	r0, s15
    3586:	47a8      	blx	r5
    3588:	a389      	add	r3, pc, #548	; (adr r3, 37b0 <mag_to_force+0x698>)
    358a:	e9d3 2300 	ldrd	r2, r3, [r3]
    358e:	47a0      	blx	r4
    3590:	4602      	mov	r2, r0
    3592:	460b      	mov	r3, r1
    3594:	4640      	mov	r0, r8
    3596:	4649      	mov	r1, r9
    3598:	47b0      	blx	r6
    359a:	4680      	mov	r8, r0
    359c:	4689      	mov	r9, r1
	sensor_row->force_y_middle= 7.812 - (0.004493*sensor_row->b_y_middle) + (0.002601*sensor_row->b_z_middle) - (0.0000001078*(sensor_row->b_y_middle*sensor_row->b_y_middle)) - (0.0000007358*(sensor_row->b_y_middle*sensor_row->b_z_middle)) + (0.0000002632*(sensor_row->b_z_middle*sensor_row->b_z_middle)) - (0.00000000001189*((sensor_row->b_y_middle*sensor_row->b_y_middle)*sensor_row->b_z_middle)) - (0.00000000002614*(sensor_row->b_y_middle*(sensor_row->b_z_middle*sensor_row->b_z_middle))) + (0.000000000007836*((sensor_row->b_z_middle*sensor_row->b_z_middle)*sensor_row->b_z_middle));
	sensor_row->force_z_middle= 14.21 - (0.005789*sensor_row->b_r_middle) + (0.004071*sensor_row->b_z_middle) + (0.0000005279*(sensor_row->b_r_middle*sensor_row->b_r_middle)) - (0.0000007658*(sensor_row->b_r_middle*sensor_row->b_z_middle)) + (0.0000003383*(sensor_row->b_z_middle*sensor_row->b_z_middle)) + (0.00000000001514*((sensor_row->b_r_middle*sensor_row->b_r_middle)*sensor_row->b_z_middle)) - (0.00000000002614*(sensor_row->b_r_middle*(sensor_row->b_z_middle*sensor_row->b_z_middle))) + (0.000000000006038*((sensor_row->b_z_middle*sensor_row->b_z_middle)*sensor_row->b_z_middle));
    359e:	ee28 aa08 	vmul.f32	s20, s16, s16
    35a2:	ee1a 0a10 	vmov	r0, s20
    35a6:	47a8      	blx	r5
    35a8:	e9cd 0102 	strd	r0, r1, [sp, #8]
    35ac:	a382      	add	r3, pc, #520	; (adr r3, 37b8 <mag_to_force+0x6a0>)
    35ae:	e9d3 2300 	ldrd	r2, r3, [r3]
    35b2:	47a0      	blx	r4
	sensor_row->force_x_middle= 1.411 - (0.0002827*sensor_row->b_x_middle) + (0.0003494*sensor_row->b_z_middle) + (0.0000001662*(sensor_row->b_x_middle*sensor_row->b_x_middle)) - (0.0000001945*(sensor_row->b_x_middle*sensor_row->b_z_middle)) + (0.00000003569*(sensor_row->b_z_middle*sensor_row->b_z_middle)) + (0.0000000000112*((sensor_row->b_x_middle*sensor_row->b_x_middle)*sensor_row->b_z_middle)) - (0.000000000009128*(sensor_row->b_x_middle*(sensor_row->b_z_middle*sensor_row->b_z_middle))) + (0.000000000001119*((sensor_row->b_z_middle*sensor_row->b_z_middle)*sensor_row->b_z_middle));
    35b4:	4602      	mov	r2, r0
    35b6:	460b      	mov	r3, r1
    35b8:	4640      	mov	r0, r8
    35ba:	4649      	mov	r1, r9
    35bc:	47b8      	blx	r7
    35be:	4680      	mov	r8, r0
    35c0:	4689      	mov	r9, r1
	sensor_row->force_z_middle= 14.21 - (0.005789*sensor_row->b_r_middle) + (0.004071*sensor_row->b_z_middle) + (0.0000005279*(sensor_row->b_r_middle*sensor_row->b_r_middle)) - (0.0000007658*(sensor_row->b_r_middle*sensor_row->b_z_middle)) + (0.0000003383*(sensor_row->b_z_middle*sensor_row->b_z_middle)) + (0.00000000001514*((sensor_row->b_r_middle*sensor_row->b_r_middle)*sensor_row->b_z_middle)) - (0.00000000002614*(sensor_row->b_r_middle*(sensor_row->b_z_middle*sensor_row->b_z_middle))) + (0.000000000006038*((sensor_row->b_z_middle*sensor_row->b_z_middle)*sensor_row->b_z_middle));
    35c2:	ee68 7a09 	vmul.f32	s15, s16, s18
    35c6:	ee17 0a90 	vmov	r0, s15
    35ca:	47a8      	blx	r5
    35cc:	a37c      	add	r3, pc, #496	; (adr r3, 37c0 <mag_to_force+0x6a8>)
    35ce:	e9d3 2300 	ldrd	r2, r3, [r3]
    35d2:	47a0      	blx	r4
    35d4:	4602      	mov	r2, r0
    35d6:	460b      	mov	r3, r1
    35d8:	4640      	mov	r0, r8
    35da:	4649      	mov	r1, r9
    35dc:	47b8      	blx	r7
    35de:	4680      	mov	r8, r0
    35e0:	4689      	mov	r9, r1
	sensor_row->force_r_middle= (sensor_row->force_x_middle*sensor_row->force_x_middle) + (sensor_row->force_y_middle*sensor_row->force_y_middle);
    35e2:	ee68 7a8a 	vmul.f32	s15, s17, s20
    35e6:	ee17 0a90 	vmov	r0, s15
    35ea:	47a8      	blx	r5
    35ec:	a376      	add	r3, pc, #472	; (adr r3, 37c8 <mag_to_force+0x6b0>)
    35ee:	e9d3 2300 	ldrd	r2, r3, [r3]
    35f2:	47a0      	blx	r4
    35f4:	4602      	mov	r2, r0
    35f6:	460b      	mov	r3, r1
    35f8:	4640      	mov	r0, r8
    35fa:	4649      	mov	r1, r9
    35fc:	47b0      	blx	r6
    35fe:	4680      	mov	r8, r0
    3600:	4689      	mov	r9, r1
	sensor_row->force_r_middle = sqrt(sensor_row->force_r_middle);
    3602:	ee68 7a0a 	vmul.f32	s15, s16, s20
    3606:	ee17 0a90 	vmov	r0, s15
    360a:	47a8      	blx	r5
    360c:	e9cd 0104 	strd	r0, r1, [sp, #16]
    3610:	a36f      	add	r3, pc, #444	; (adr r3, 37d0 <mag_to_force+0x6b8>)
    3612:	e9d3 2300 	ldrd	r2, r3, [r3]
    3616:	47a0      	blx	r4
	sensor_row->force_r_middle= (sensor_row->force_x_middle*sensor_row->force_x_middle) + (sensor_row->force_y_middle*sensor_row->force_y_middle);
    3618:	4602      	mov	r2, r0
    361a:	460b      	mov	r3, r1
    361c:	4640      	mov	r0, r8
    361e:	4649      	mov	r1, r9
    3620:	47b8      	blx	r7
    3622:	47d8      	blx	fp
    3624:	ee08 0a90 	vmov	s17, r0
	sensor_row->force_x_middle= 1.411 - (0.0002827*sensor_row->b_x_middle) + (0.0003494*sensor_row->b_z_middle) + (0.0000001662*(sensor_row->b_x_middle*sensor_row->b_x_middle)) - (0.0000001945*(sensor_row->b_x_middle*sensor_row->b_z_middle)) + (0.00000003569*(sensor_row->b_z_middle*sensor_row->b_z_middle)) + (0.0000000000112*((sensor_row->b_x_middle*sensor_row->b_x_middle)*sensor_row->b_z_middle)) - (0.000000000009128*(sensor_row->b_x_middle*(sensor_row->b_z_middle*sensor_row->b_z_middle))) + (0.000000000001119*((sensor_row->b_z_middle*sensor_row->b_z_middle)*sensor_row->b_z_middle));
    3628:	f8ca 0034 	str.w	r0, [sl, #52]	; 0x34
	sensor_row->force_y_middle= 7.812 - (0.004493*sensor_row->b_y_middle) + (0.002601*sensor_row->b_z_middle) - (0.0000001078*(sensor_row->b_y_middle*sensor_row->b_y_middle)) - (0.0000007358*(sensor_row->b_y_middle*sensor_row->b_z_middle)) + (0.0000002632*(sensor_row->b_z_middle*sensor_row->b_z_middle)) - (0.00000000001189*((sensor_row->b_y_middle*sensor_row->b_y_middle)*sensor_row->b_z_middle)) - (0.00000000002614*(sensor_row->b_y_middle*(sensor_row->b_z_middle*sensor_row->b_z_middle))) + (0.000000000007836*((sensor_row->b_z_middle*sensor_row->b_z_middle)*sensor_row->b_z_middle));
    362c:	ed9a 9a04 	vldr	s18, [sl, #16]
    3630:	ee19 0a10 	vmov	r0, s18
    3634:	47a8      	blx	r5
    3636:	a368      	add	r3, pc, #416	; (adr r3, 37d8 <mag_to_force+0x6c0>)
    3638:	e9d3 2300 	ldrd	r2, r3, [r3]
    363c:	47a0      	blx	r4
    363e:	4602      	mov	r2, r0
    3640:	460b      	mov	r3, r1
    3642:	a167      	add	r1, pc, #412	; (adr r1, 37e0 <mag_to_force+0x6c8>)
    3644:	e9d1 0100 	ldrd	r0, r1, [r1]
    3648:	47b0      	blx	r6
    364a:	4680      	mov	r8, r0
    364c:	4689      	mov	r9, r1
    364e:	a366      	add	r3, pc, #408	; (adr r3, 37e8 <mag_to_force+0x6d0>)
    3650:	e9d3 2300 	ldrd	r2, r3, [r3]
    3654:	e9dd 0100 	ldrd	r0, r1, [sp]
    3658:	47a0      	blx	r4
    365a:	4602      	mov	r2, r0
    365c:	460b      	mov	r3, r1
    365e:	4640      	mov	r0, r8
    3660:	4649      	mov	r1, r9
    3662:	47b8      	blx	r7
    3664:	4680      	mov	r8, r0
    3666:	4689      	mov	r9, r1
	sensor_row->force_z_middle= 14.21 - (0.005789*sensor_row->b_r_middle) + (0.004071*sensor_row->b_z_middle) + (0.0000005279*(sensor_row->b_r_middle*sensor_row->b_r_middle)) - (0.0000007658*(sensor_row->b_r_middle*sensor_row->b_z_middle)) + (0.0000003383*(sensor_row->b_z_middle*sensor_row->b_z_middle)) + (0.00000000001514*((sensor_row->b_r_middle*sensor_row->b_r_middle)*sensor_row->b_z_middle)) - (0.00000000002614*(sensor_row->b_r_middle*(sensor_row->b_z_middle*sensor_row->b_z_middle))) + (0.000000000006038*((sensor_row->b_z_middle*sensor_row->b_z_middle)*sensor_row->b_z_middle));
    3668:	ee69 9a09 	vmul.f32	s19, s18, s18
    366c:	ee19 0a90 	vmov	r0, s19
    3670:	47a8      	blx	r5
	sensor_row->force_y_middle= 7.812 - (0.004493*sensor_row->b_y_middle) + (0.002601*sensor_row->b_z_middle) - (0.0000001078*(sensor_row->b_y_middle*sensor_row->b_y_middle)) - (0.0000007358*(sensor_row->b_y_middle*sensor_row->b_z_middle)) + (0.0000002632*(sensor_row->b_z_middle*sensor_row->b_z_middle)) - (0.00000000001189*((sensor_row->b_y_middle*sensor_row->b_y_middle)*sensor_row->b_z_middle)) - (0.00000000002614*(sensor_row->b_y_middle*(sensor_row->b_z_middle*sensor_row->b_z_middle))) + (0.000000000007836*((sensor_row->b_z_middle*sensor_row->b_z_middle)*sensor_row->b_z_middle));
    3672:	a35f      	add	r3, pc, #380	; (adr r3, 37f0 <mag_to_force+0x6d8>)
    3674:	e9d3 2300 	ldrd	r2, r3, [r3]
    3678:	47a0      	blx	r4
    367a:	4602      	mov	r2, r0
    367c:	460b      	mov	r3, r1
    367e:	4640      	mov	r0, r8
    3680:	4649      	mov	r1, r9
    3682:	47b0      	blx	r6
    3684:	4680      	mov	r8, r0
    3686:	4689      	mov	r9, r1
	sensor_row->force_z_middle= 14.21 - (0.005789*sensor_row->b_r_middle) + (0.004071*sensor_row->b_z_middle) + (0.0000005279*(sensor_row->b_r_middle*sensor_row->b_r_middle)) - (0.0000007658*(sensor_row->b_r_middle*sensor_row->b_z_middle)) + (0.0000003383*(sensor_row->b_z_middle*sensor_row->b_z_middle)) + (0.00000000001514*((sensor_row->b_r_middle*sensor_row->b_r_middle)*sensor_row->b_z_middle)) - (0.00000000002614*(sensor_row->b_r_middle*(sensor_row->b_z_middle*sensor_row->b_z_middle))) + (0.000000000006038*((sensor_row->b_z_middle*sensor_row->b_z_middle)*sensor_row->b_z_middle));
    3688:	ee68 7a09 	vmul.f32	s15, s16, s18
    368c:	ee17 0a90 	vmov	r0, s15
    3690:	47a8      	blx	r5
    3692:	a359      	add	r3, pc, #356	; (adr r3, 37f8 <mag_to_force+0x6e0>)
    3694:	e9d3 2300 	ldrd	r2, r3, [r3]
    3698:	47a0      	blx	r4
    369a:	4602      	mov	r2, r0
    369c:	460b      	mov	r3, r1
    369e:	4640      	mov	r0, r8
    36a0:	4649      	mov	r1, r9
    36a2:	47b0      	blx	r6
    36a4:	4680      	mov	r8, r0
    36a6:	4689      	mov	r9, r1
    36a8:	a355      	add	r3, pc, #340	; (adr r3, 3800 <mag_to_force+0x6e8>)
    36aa:	e9d3 2300 	ldrd	r2, r3, [r3]
    36ae:	e9dd 0102 	ldrd	r0, r1, [sp, #8]
    36b2:	47a0      	blx	r4
    36b4:	4602      	mov	r2, r0
    36b6:	460b      	mov	r3, r1
    36b8:	4640      	mov	r0, r8
    36ba:	4649      	mov	r1, r9
    36bc:	47b8      	blx	r7
    36be:	4680      	mov	r8, r0
    36c0:	4689      	mov	r9, r1
	sensor_row->force_r_middle= (sensor_row->force_x_middle*sensor_row->force_x_middle) + (sensor_row->force_y_middle*sensor_row->force_y_middle);
    36c2:	ee68 7a29 	vmul.f32	s15, s16, s19
    36c6:	ee17 0a90 	vmov	r0, s15
    36ca:	47a8      	blx	r5
    36cc:	a34e      	add	r3, pc, #312	; (adr r3, 3808 <mag_to_force+0x6f0>)
    36ce:	e9d3 2300 	ldrd	r2, r3, [r3]
    36d2:	47a0      	blx	r4
    36d4:	4602      	mov	r2, r0
    36d6:	460b      	mov	r3, r1
    36d8:	4640      	mov	r0, r8
    36da:	4649      	mov	r1, r9
    36dc:	47b0      	blx	r6
    36de:	4680      	mov	r8, r0
    36e0:	4689      	mov	r9, r1
	sensor_row->force_r_middle = sqrt(sensor_row->force_r_middle);
    36e2:	ee6a 7a09 	vmul.f32	s15, s20, s18
    36e6:	ee17 0a90 	vmov	r0, s15
    36ea:	47a8      	blx	r5
    36ec:	a348      	add	r3, pc, #288	; (adr r3, 3810 <mag_to_force+0x6f8>)
    36ee:	e9d3 2300 	ldrd	r2, r3, [r3]
    36f2:	47a0      	blx	r4
    36f4:	4602      	mov	r2, r0
    36f6:	460b      	mov	r3, r1
    36f8:	4640      	mov	r0, r8
    36fa:	4649      	mov	r1, r9
    36fc:	47b0      	blx	r6
    36fe:	4680      	mov	r8, r0
    3700:	4689      	mov	r9, r1
    3702:	a345      	add	r3, pc, #276	; (adr r3, 3818 <mag_to_force+0x700>)
    3704:	e9d3 2300 	ldrd	r2, r3, [r3]
    3708:	e9dd 0104 	ldrd	r0, r1, [sp, #16]
    370c:	47a0      	blx	r4
    370e:	4602      	mov	r2, r0
    3710:	460b      	mov	r3, r1
    3712:	4640      	mov	r0, r8
    3714:	4649      	mov	r1, r9
    3716:	47b8      	blx	r7
    3718:	47d8      	blx	fp
    371a:	ee09 0a10 	vmov	s18, r0
	sensor_row->force_y_middle= 7.812 - (0.004493*sensor_row->b_y_middle) + (0.002601*sensor_row->b_z_middle) - (0.0000001078*(sensor_row->b_y_middle*sensor_row->b_y_middle)) - (0.0000007358*(sensor_row->b_y_middle*sensor_row->b_z_middle)) + (0.0000002632*(sensor_row->b_z_middle*sensor_row->b_z_middle)) - (0.00000000001189*((sensor_row->b_y_middle*sensor_row->b_y_middle)*sensor_row->b_z_middle)) - (0.00000000002614*(sensor_row->b_y_middle*(sensor_row->b_z_middle*sensor_row->b_z_middle))) + (0.000000000007836*((sensor_row->b_z_middle*sensor_row->b_z_middle)*sensor_row->b_z_middle));
    371e:	f8ca 0040 	str.w	r0, [sl, #64]	; 0x40
	sensor_row->force_z_middle= 14.21 - (0.005789*sensor_row->b_r_middle) + (0.004071*sensor_row->b_z_middle) + (0.0000005279*(sensor_row->b_r_middle*sensor_row->b_r_middle)) - (0.0000007658*(sensor_row->b_r_middle*sensor_row->b_z_middle)) + (0.0000003383*(sensor_row->b_z_middle*sensor_row->b_z_middle)) + (0.00000000001514*((sensor_row->b_r_middle*sensor_row->b_r_middle)*sensor_row->b_z_middle)) - (0.00000000002614*(sensor_row->b_r_middle*(sensor_row->b_z_middle*sensor_row->b_z_middle))) + (0.000000000006038*((sensor_row->b_z_middle*sensor_row->b_z_middle)*sensor_row->b_z_middle));
    3722:	edda 9a0a 	vldr	s19, [sl, #40]	; 0x28
    3726:	ee19 0a90 	vmov	r0, s19
    372a:	47a8      	blx	r5
    372c:	a33c      	add	r3, pc, #240	; (adr r3, 3820 <mag_to_force+0x708>)
    372e:	e9d3 2300 	ldrd	r2, r3, [r3]
    3732:	47a0      	blx	r4
    3734:	4602      	mov	r2, r0
    3736:	460b      	mov	r3, r1
    3738:	a13b      	add	r1, pc, #236	; (adr r1, 3828 <mag_to_force+0x710>)
    373a:	e9d1 0100 	ldrd	r0, r1, [r1]
    373e:	47b0      	blx	r6
    3740:	4680      	mov	r8, r0
    3742:	4689      	mov	r9, r1
    3744:	a33a      	add	r3, pc, #232	; (adr r3, 3830 <mag_to_force+0x718>)
    3746:	e9d3 2300 	ldrd	r2, r3, [r3]
    374a:	e9dd 0100 	ldrd	r0, r1, [sp]
    374e:	47a0      	blx	r4
    3750:	4602      	mov	r2, r0
    3752:	460b      	mov	r3, r1
    3754:	4640      	mov	r0, r8
    3756:	4649      	mov	r1, r9
    3758:	47b8      	blx	r7
    375a:	4680      	mov	r8, r0
    375c:	4689      	mov	r9, r1
	sensor_row->force_r_middle= (sensor_row->force_x_middle*sensor_row->force_x_middle) + (sensor_row->force_y_middle*sensor_row->force_y_middle);
    375e:	ee69 aaa9 	vmul.f32	s21, s19, s19
    3762:	ee1a 0a90 	vmov	r0, s21
    3766:	47a8      	blx	r5
	sensor_row->force_z_middle= 14.21 - (0.005789*sensor_row->b_r_middle) + (0.004071*sensor_row->b_z_middle) + (0.0000005279*(sensor_row->b_r_middle*sensor_row->b_r_middle)) - (0.0000007658*(sensor_row->b_r_middle*sensor_row->b_z_middle)) + (0.0000003383*(sensor_row->b_z_middle*sensor_row->b_z_middle)) + (0.00000000001514*((sensor_row->b_r_middle*sensor_row->b_r_middle)*sensor_row->b_z_middle)) - (0.00000000002614*(sensor_row->b_r_middle*(sensor_row->b_z_middle*sensor_row->b_z_middle))) + (0.000000000006038*((sensor_row->b_z_middle*sensor_row->b_z_middle)*sensor_row->b_z_middle));
    3768:	a333      	add	r3, pc, #204	; (adr r3, 3838 <mag_to_force+0x720>)
    376a:	e9d3 2300 	ldrd	r2, r3, [r3]
    376e:	47a0      	blx	r4
    3770:	4602      	mov	r2, r0
    3772:	460b      	mov	r3, r1
    3774:	4640      	mov	r0, r8
    3776:	4649      	mov	r1, r9
    3778:	47b8      	blx	r7
    377a:	4680      	mov	r8, r0
    377c:	4689      	mov	r9, r1
	sensor_row->force_r_middle= (sensor_row->force_x_middle*sensor_row->force_x_middle) + (sensor_row->force_y_middle*sensor_row->force_y_middle);
    377e:	ee68 7a29 	vmul.f32	s15, s16, s19
    3782:	ee17 0a90 	vmov	r0, s15
    3786:	47a8      	blx	r5
    3788:	e070      	b.n	386c <mag_to_force+0x754>
    378a:	bf00      	nop
    378c:	f3af 8000 	nop.w
    3790:	412c1a3a 	.word	0x412c1a3a
    3794:	3f3286eb 	.word	0x3f3286eb
    3798:	bc6a7efa 	.word	0xbc6a7efa
    379c:	3ff69374 	.word	0x3ff69374
    37a0:	92beb405 	.word	0x92beb405
    37a4:	3f36e5f5 	.word	0x3f36e5f5
    37a8:	a908d438 	.word	0xa908d438
    37ac:	3e864e96 	.word	0x3e864e96
    37b0:	17c30410 	.word	0x17c30410
    37b4:	3e8a1af8 	.word	0x3e8a1af8
    37b8:	3d66d634 	.word	0x3d66d634
    37bc:	3e632932 	.word	0x3e632932
    37c0:	1b4047b2 	.word	0x1b4047b2
    37c4:	3da8a10a 	.word	0x3da8a10a
    37c8:	6fcf44ac 	.word	0x6fcf44ac
    37cc:	3da4129b 	.word	0x3da4129b
    37d0:	29e54c52 	.word	0x29e54c52
    37d4:	3d73af87 	.word	0x3d73af87
    37d8:	80f98fa3 	.word	0x80f98fa3
    37dc:	3f726740 	.word	0x3f726740
    37e0:	ed916873 	.word	0xed916873
    37e4:	401f3f7c 	.word	0x401f3f7c
    37e8:	3dfb0d52 	.word	0x3dfb0d52
    37ec:	3f654eb1 	.word	0x3f654eb1
    37f0:	a7d49e3c 	.word	0xa7d49e3c
    37f4:	3e7ceff5 	.word	0x3e7ceff5
    37f8:	4fba36fa 	.word	0x4fba36fa
    37fc:	3ea8b079 	.word	0x3ea8b079
    3800:	d77b216a 	.word	0xd77b216a
    3804:	3e91a9bd 	.word	0x3e91a9bd
    3808:	9612a3e2 	.word	0x9612a3e2
    380c:	3daa2579 	.word	0x3daa2579
    3810:	82163668 	.word	0x82163668
    3814:	3dbcbdc1 	.word	0x3dbcbdc1
    3818:	9d1f8878 	.word	0x9d1f8878
    381c:	3da13b46 	.word	0x3da13b46
    3820:	dad31fcd 	.word	0xdad31fcd
    3824:	3f77b634 	.word	0x3f77b634
    3828:	1eb851ec 	.word	0x1eb851ec
    382c:	402c6b85 	.word	0x402c6b85
    3830:	bdcad14a 	.word	0xbdcad14a
    3834:	3f70acc0 	.word	0x3f70acc0
    3838:	60693e8b 	.word	0x60693e8b
    383c:	3ea1b6a0 	.word	0x3ea1b6a0
    3840:	00004061 	.word	0x00004061
    3844:	f40c67fe 	.word	0xf40c67fe
    3848:	3ea64c02 	.word	0x3ea64c02
    384c:	02588cee 	.word	0x02588cee
    3850:	3ea1c2a7 	.word	0x3ea1c2a7
    3854:	884399b8 	.word	0x884399b8
    3858:	3d9e314d 	.word	0x3d9e314d
    385c:	3cc5c3bb 	.word	0x3cc5c3bb
    3860:	3dbb0978 	.word	0x3dbb0978
    3864:	fe5cd623 	.word	0xfe5cd623
    3868:	3da74f44 	.word	0x3da74f44
    386c:	a3f6      	add	r3, pc, #984	; (adr r3, 3c48 <mag_to_force+0xb30>)
    386e:	e9d3 2300 	ldrd	r2, r3, [r3]
    3872:	47a0      	blx	r4
    3874:	4602      	mov	r2, r0
    3876:	460b      	mov	r3, r1
    3878:	4640      	mov	r0, r8
    387a:	4649      	mov	r1, r9
    387c:	47b0      	blx	r6
    387e:	4680      	mov	r8, r0
    3880:	4689      	mov	r9, r1
    3882:	a3f3      	add	r3, pc, #972	; (adr r3, 3c50 <mag_to_force+0xb38>)
    3884:	e9d3 2300 	ldrd	r2, r3, [r3]
    3888:	e9dd 0102 	ldrd	r0, r1, [sp, #8]
    388c:	47a0      	blx	r4
    388e:	4602      	mov	r2, r0
    3890:	460b      	mov	r3, r1
    3892:	4640      	mov	r0, r8
    3894:	4649      	mov	r1, r9
    3896:	47b8      	blx	r7
    3898:	4680      	mov	r8, r0
    389a:	4689      	mov	r9, r1
	sensor_row->force_r_middle = sqrt(sensor_row->force_r_middle);
    389c:	ee68 7a2a 	vmul.f32	s15, s16, s21
    38a0:	ee17 0a90 	vmov	r0, s15
    38a4:	47a8      	blx	r5
    38a6:	a3ec      	add	r3, pc, #944	; (adr r3, 3c58 <mag_to_force+0xb40>)
    38a8:	e9d3 2300 	ldrd	r2, r3, [r3]
    38ac:	47a0      	blx	r4
    38ae:	4602      	mov	r2, r0
    38b0:	460b      	mov	r3, r1
    38b2:	4640      	mov	r0, r8
    38b4:	4649      	mov	r1, r9
    38b6:	47b8      	blx	r7
    38b8:	4680      	mov	r8, r0
    38ba:	4689      	mov	r9, r1
	
    38bc:	ee6a 7a29 	vmul.f32	s15, s20, s19
    38c0:	ee17 0a90 	vmov	r0, s15
    38c4:	47a8      	blx	r5
    38c6:	a3e6      	add	r3, pc, #920	; (adr r3, 3c60 <mag_to_force+0xb48>)
    38c8:	e9d3 2300 	ldrd	r2, r3, [r3]
    38cc:	47a0      	blx	r4
    38ce:	4602      	mov	r2, r0
    38d0:	460b      	mov	r3, r1
    38d2:	4640      	mov	r0, r8
    38d4:	4649      	mov	r1, r9
    38d6:	47b0      	blx	r6
    38d8:	4680      	mov	r8, r0
    38da:	4689      	mov	r9, r1
    38dc:	a3e2      	add	r3, pc, #904	; (adr r3, 3c68 <mag_to_force+0xb50>)
    38de:	e9d3 2300 	ldrd	r2, r3, [r3]
    38e2:	e9dd 0104 	ldrd	r0, r1, [sp, #16]
    38e6:	47a0      	blx	r4
    38e8:	4602      	mov	r2, r0
    38ea:	460b      	mov	r3, r1
    38ec:	4640      	mov	r0, r8
    38ee:	4649      	mov	r1, r9
    38f0:	47b8      	blx	r7
    38f2:	47d8      	blx	fp
	sensor_row->force_z_middle= 14.21 - (0.005789*sensor_row->b_r_middle) + (0.004071*sensor_row->b_z_middle) + (0.0000005279*(sensor_row->b_r_middle*sensor_row->b_r_middle)) - (0.0000007658*(sensor_row->b_r_middle*sensor_row->b_z_middle)) + (0.0000003383*(sensor_row->b_z_middle*sensor_row->b_z_middle)) + (0.00000000001514*((sensor_row->b_r_middle*sensor_row->b_r_middle)*sensor_row->b_z_middle)) - (0.00000000002614*(sensor_row->b_r_middle*(sensor_row->b_z_middle*sensor_row->b_z_middle))) + (0.000000000006038*((sensor_row->b_z_middle*sensor_row->b_z_middle)*sensor_row->b_z_middle));
    38f4:	f8ca 004c 	str.w	r0, [sl, #76]	; 0x4c
	sensor_row->force_r_middle= (sensor_row->force_x_middle*sensor_row->force_x_middle) + (sensor_row->force_y_middle*sensor_row->force_y_middle);
    38f8:	ee68 8aa8 	vmul.f32	s17, s17, s17
    38fc:	ee29 9a09 	vmul.f32	s18, s18, s18
    3900:	ee78 8a89 	vadd.f32	s17, s17, s18
    3904:	edca 8a16 	vstr	s17, [sl, #88]	; 0x58
	sensor_row->force_r_middle = sqrt(sensor_row->force_r_middle);
    3908:	ee18 0a90 	vmov	r0, s17
    390c:	47a8      	blx	r5
    390e:	4bcc      	ldr	r3, [pc, #816]	; (3c40 <mag_to_force+0xb28>)
    3910:	4798      	blx	r3
    3912:	47d8      	blx	fp
    3914:	f8ca 0058 	str.w	r0, [sl, #88]	; 0x58
	
	sensor_row->force_x_bottom= -10.33 - (0.003475*sensor_row->b_x_bottom) - (0.003007 *sensor_row->b_z_bottom) - (0.0000006456*(sensor_row->b_x_bottom*sensor_row->b_x_bottom)) - (0.0000007356*(sensor_row->b_x_bottom*sensor_row->b_z_bottom)) - (0.0000002724*(sensor_row->b_z_bottom*sensor_row->b_z_bottom)) - (0.00000000004405*((sensor_row->b_x_bottom*sensor_row->b_x_bottom)*sensor_row->b_z_bottom)) - (0.00000000003177*(sensor_row->b_x_bottom*(sensor_row->b_z_bottom*sensor_row->b_z_bottom))) - (0.00000000000747*((sensor_row->b_z_bottom*sensor_row->b_z_bottom)*sensor_row->b_z_bottom));
    3918:	ed9a 8a02 	vldr	s16, [sl, #8]
    391c:	ee18 0a10 	vmov	r0, s16
    3920:	47a8      	blx	r5
    3922:	a39b      	add	r3, pc, #620	; (adr r3, 3b90 <mag_to_force+0xa78>)
    3924:	e9d3 2300 	ldrd	r2, r3, [r3]
    3928:	47a0      	blx	r4
    392a:	4602      	mov	r2, r0
    392c:	460b      	mov	r3, r1
    392e:	a19a      	add	r1, pc, #616	; (adr r1, 3b98 <mag_to_force+0xa80>)
    3930:	e9d1 0100 	ldrd	r0, r1, [r1]
    3934:	47b0      	blx	r6
    3936:	4680      	mov	r8, r0
    3938:	4689      	mov	r9, r1
    393a:	edda 8a08 	vldr	s17, [sl, #32]
    393e:	ee18 0a90 	vmov	r0, s17
    3942:	47a8      	blx	r5
    3944:	e9cd 0100 	strd	r0, r1, [sp]
    3948:	a395      	add	r3, pc, #596	; (adr r3, 3ba0 <mag_to_force+0xa88>)
    394a:	e9d3 2300 	ldrd	r2, r3, [r3]
    394e:	47a0      	blx	r4
    3950:	4602      	mov	r2, r0
    3952:	460b      	mov	r3, r1
    3954:	4640      	mov	r0, r8
    3956:	4649      	mov	r1, r9
    3958:	47b0      	blx	r6
    395a:	4680      	mov	r8, r0
    395c:	4689      	mov	r9, r1
    395e:	ee28 9a08 	vmul.f32	s18, s16, s16
    3962:	ee19 0a10 	vmov	r0, s18
    3966:	47a8      	blx	r5
    3968:	a38f      	add	r3, pc, #572	; (adr r3, 3ba8 <mag_to_force+0xa90>)
    396a:	e9d3 2300 	ldrd	r2, r3, [r3]
    396e:	47a0      	blx	r4
    3970:	4602      	mov	r2, r0
    3972:	460b      	mov	r3, r1
    3974:	4640      	mov	r0, r8
    3976:	4649      	mov	r1, r9
    3978:	47b0      	blx	r6
    397a:	4680      	mov	r8, r0
    397c:	4689      	mov	r9, r1
    397e:	ee68 7a28 	vmul.f32	s15, s16, s17
    3982:	ee17 0a90 	vmov	r0, s15
    3986:	47a8      	blx	r5
    3988:	a389      	add	r3, pc, #548	; (adr r3, 3bb0 <mag_to_force+0xa98>)
    398a:	e9d3 2300 	ldrd	r2, r3, [r3]
    398e:	47a0      	blx	r4
    3990:	4602      	mov	r2, r0
    3992:	460b      	mov	r3, r1
    3994:	4640      	mov	r0, r8
    3996:	4649      	mov	r1, r9
    3998:	47b0      	blx	r6
    399a:	4680      	mov	r8, r0
    399c:	4689      	mov	r9, r1
	sensor_row->force_y_bottom= -2.141 + (0.002644*sensor_row->b_y_bottom) - (0.000585*sensor_row->b_z_bottom) + (0.0000005642*(sensor_row->b_y_bottom*sensor_row->b_y_bottom)) + (0.0000001582*(sensor_row->b_y_bottom*sensor_row->b_z_bottom)) - (0.00000003274*(sensor_row->b_z_bottom*sensor_row->b_z_bottom)) + (0.00000000004031*((sensor_row->b_y_bottom*sensor_row->b_y_bottom)*sensor_row->b_z_bottom)) + (0.000000000000689*(sensor_row->b_y_bottom*(sensor_row->b_z_bottom*sensor_row->b_z_bottom))) - (0.0000000000005236*((sensor_row->b_z_bottom*sensor_row->b_z_bottom)*sensor_row->b_z_bottom));
	sensor_row->force_z_bottom= 25.61 - (0.005403*sensor_row->b_r_bottom) + (0.007253*sensor_row->b_z_bottom) + (0.000001078*(sensor_row->b_r_bottom*sensor_row->b_r_bottom)) - (0.0000006989*sensor_row->b_r_bottom*sensor_row->b_z_bottom) + (0.0000006109*(sensor_row->b_z_bottom*sensor_row->b_z_bottom)) + (0.00000000005541*(sensor_row->b_r_bottom*sensor_row->b_r_bottom)*sensor_row->b_z_bottom) - (0.00000000002099*sensor_row->b_r_bottom*(sensor_row->b_z_bottom*sensor_row->b_z_bottom)) + (0.00000000001312*(sensor_row->b_z_bottom*sensor_row->b_z_bottom)*sensor_row->b_z_bottom);
    399e:	ee68 9aa8 	vmul.f32	s19, s17, s17
    39a2:	ee19 0a90 	vmov	r0, s19
    39a6:	47a8      	blx	r5
    39a8:	e9cd 0102 	strd	r0, r1, [sp, #8]
	sensor_row->force_x_bottom= -10.33 - (0.003475*sensor_row->b_x_bottom) - (0.003007 *sensor_row->b_z_bottom) - (0.0000006456*(sensor_row->b_x_bottom*sensor_row->b_x_bottom)) - (0.0000007356*(sensor_row->b_x_bottom*sensor_row->b_z_bottom)) - (0.0000002724*(sensor_row->b_z_bottom*sensor_row->b_z_bottom)) - (0.00000000004405*((sensor_row->b_x_bottom*sensor_row->b_x_bottom)*sensor_row->b_z_bottom)) - (0.00000000003177*(sensor_row->b_x_bottom*(sensor_row->b_z_bottom*sensor_row->b_z_bottom))) - (0.00000000000747*((sensor_row->b_z_bottom*sensor_row->b_z_bottom)*sensor_row->b_z_bottom));
    39ac:	a382      	add	r3, pc, #520	; (adr r3, 3bb8 <mag_to_force+0xaa0>)
    39ae:	e9d3 2300 	ldrd	r2, r3, [r3]
    39b2:	47a0      	blx	r4
    39b4:	4602      	mov	r2, r0
    39b6:	460b      	mov	r3, r1
    39b8:	4640      	mov	r0, r8
    39ba:	4649      	mov	r1, r9
    39bc:	47b0      	blx	r6
    39be:	4680      	mov	r8, r0
    39c0:	4689      	mov	r9, r1
	sensor_row->force_z_bottom= 25.61 - (0.005403*sensor_row->b_r_bottom) + (0.007253*sensor_row->b_z_bottom) + (0.000001078*(sensor_row->b_r_bottom*sensor_row->b_r_bottom)) - (0.0000006989*sensor_row->b_r_bottom*sensor_row->b_z_bottom) + (0.0000006109*(sensor_row->b_z_bottom*sensor_row->b_z_bottom)) + (0.00000000005541*(sensor_row->b_r_bottom*sensor_row->b_r_bottom)*sensor_row->b_z_bottom) - (0.00000000002099*sensor_row->b_r_bottom*(sensor_row->b_z_bottom*sensor_row->b_z_bottom)) + (0.00000000001312*(sensor_row->b_z_bottom*sensor_row->b_z_bottom)*sensor_row->b_z_bottom);
    39c2:	ee68 7a89 	vmul.f32	s15, s17, s18
    39c6:	ee17 0a90 	vmov	r0, s15
    39ca:	47a8      	blx	r5
    39cc:	a37c      	add	r3, pc, #496	; (adr r3, 3bc0 <mag_to_force+0xaa8>)
    39ce:	e9d3 2300 	ldrd	r2, r3, [r3]
    39d2:	47a0      	blx	r4
    39d4:	4602      	mov	r2, r0
    39d6:	460b      	mov	r3, r1
    39d8:	4640      	mov	r0, r8
    39da:	4649      	mov	r1, r9
    39dc:	47b0      	blx	r6
    39de:	4680      	mov	r8, r0
    39e0:	4689      	mov	r9, r1
	sensor_row->force_r_bottom= (sensor_row->force_x_bottom*sensor_row->force_x_bottom) + (sensor_row->force_y_bottom*sensor_row->force_y_bottom);
    39e2:	ee68 7a29 	vmul.f32	s15, s16, s19
    39e6:	ee17 0a90 	vmov	r0, s15
    39ea:	47a8      	blx	r5
    39ec:	a376      	add	r3, pc, #472	; (adr r3, 3bc8 <mag_to_force+0xab0>)
    39ee:	e9d3 2300 	ldrd	r2, r3, [r3]
    39f2:	47a0      	blx	r4
    39f4:	4602      	mov	r2, r0
    39f6:	460b      	mov	r3, r1
    39f8:	4640      	mov	r0, r8
    39fa:	4649      	mov	r1, r9
    39fc:	47b0      	blx	r6
    39fe:	4680      	mov	r8, r0
    3a00:	4689      	mov	r9, r1
	sensor_row->force_r_bottom = sqrt(sensor_row->force_r_bottom);
    3a02:	ee68 7aa9 	vmul.f32	s15, s17, s19
    3a06:	ee17 0a90 	vmov	r0, s15
    3a0a:	47a8      	blx	r5
    3a0c:	e9cd 0104 	strd	r0, r1, [sp, #16]
    3a10:	a36f      	add	r3, pc, #444	; (adr r3, 3bd0 <mag_to_force+0xab8>)
    3a12:	e9d3 2300 	ldrd	r2, r3, [r3]
    3a16:	47a0      	blx	r4
	sensor_row->force_r_bottom= (sensor_row->force_x_bottom*sensor_row->force_x_bottom) + (sensor_row->force_y_bottom*sensor_row->force_y_bottom);
    3a18:	4602      	mov	r2, r0
    3a1a:	460b      	mov	r3, r1
    3a1c:	4640      	mov	r0, r8
    3a1e:	4649      	mov	r1, r9
    3a20:	47b0      	blx	r6
    3a22:	47d8      	blx	fp
    3a24:	ee08 0a10 	vmov	s16, r0
	sensor_row->force_x_bottom= -10.33 - (0.003475*sensor_row->b_x_bottom) - (0.003007 *sensor_row->b_z_bottom) - (0.0000006456*(sensor_row->b_x_bottom*sensor_row->b_x_bottom)) - (0.0000007356*(sensor_row->b_x_bottom*sensor_row->b_z_bottom)) - (0.0000002724*(sensor_row->b_z_bottom*sensor_row->b_z_bottom)) - (0.00000000004405*((sensor_row->b_x_bottom*sensor_row->b_x_bottom)*sensor_row->b_z_bottom)) - (0.00000000003177*(sensor_row->b_x_bottom*(sensor_row->b_z_bottom*sensor_row->b_z_bottom))) - (0.00000000000747*((sensor_row->b_z_bottom*sensor_row->b_z_bottom)*sensor_row->b_z_bottom));
    3a28:	f8ca 0038 	str.w	r0, [sl, #56]	; 0x38
	sensor_row->force_y_bottom= -2.141 + (0.002644*sensor_row->b_y_bottom) - (0.000585*sensor_row->b_z_bottom) + (0.0000005642*(sensor_row->b_y_bottom*sensor_row->b_y_bottom)) + (0.0000001582*(sensor_row->b_y_bottom*sensor_row->b_z_bottom)) - (0.00000003274*(sensor_row->b_z_bottom*sensor_row->b_z_bottom)) + (0.00000000004031*((sensor_row->b_y_bottom*sensor_row->b_y_bottom)*sensor_row->b_z_bottom)) + (0.000000000000689*(sensor_row->b_y_bottom*(sensor_row->b_z_bottom*sensor_row->b_z_bottom))) - (0.0000000000005236*((sensor_row->b_z_bottom*sensor_row->b_z_bottom)*sensor_row->b_z_bottom));
    3a2c:	ed9a 9a05 	vldr	s18, [sl, #20]
    3a30:	ee19 0a10 	vmov	r0, s18
    3a34:	47a8      	blx	r5
    3a36:	a368      	add	r3, pc, #416	; (adr r3, 3bd8 <mag_to_force+0xac0>)
    3a38:	e9d3 2300 	ldrd	r2, r3, [r3]
    3a3c:	47a0      	blx	r4
    3a3e:	a368      	add	r3, pc, #416	; (adr r3, 3be0 <mag_to_force+0xac8>)
    3a40:	e9d3 2300 	ldrd	r2, r3, [r3]
    3a44:	47b0      	blx	r6
    3a46:	4680      	mov	r8, r0
    3a48:	4689      	mov	r9, r1
    3a4a:	a367      	add	r3, pc, #412	; (adr r3, 3be8 <mag_to_force+0xad0>)
    3a4c:	e9d3 2300 	ldrd	r2, r3, [r3]
    3a50:	e9dd 0100 	ldrd	r0, r1, [sp]
    3a54:	47a0      	blx	r4
    3a56:	4602      	mov	r2, r0
    3a58:	460b      	mov	r3, r1
    3a5a:	4640      	mov	r0, r8
    3a5c:	4649      	mov	r1, r9
    3a5e:	47b0      	blx	r6
    3a60:	4680      	mov	r8, r0
    3a62:	4689      	mov	r9, r1
	sensor_row->force_z_bottom= 25.61 - (0.005403*sensor_row->b_r_bottom) + (0.007253*sensor_row->b_z_bottom) + (0.000001078*(sensor_row->b_r_bottom*sensor_row->b_r_bottom)) - (0.0000006989*sensor_row->b_r_bottom*sensor_row->b_z_bottom) + (0.0000006109*(sensor_row->b_z_bottom*sensor_row->b_z_bottom)) + (0.00000000005541*(sensor_row->b_r_bottom*sensor_row->b_r_bottom)*sensor_row->b_z_bottom) - (0.00000000002099*sensor_row->b_r_bottom*(sensor_row->b_z_bottom*sensor_row->b_z_bottom)) + (0.00000000001312*(sensor_row->b_z_bottom*sensor_row->b_z_bottom)*sensor_row->b_z_bottom);
    3a64:	ee29 aa09 	vmul.f32	s20, s18, s18
    3a68:	ee1a 0a10 	vmov	r0, s20
    3a6c:	47a8      	blx	r5
	sensor_row->force_y_bottom= -2.141 + (0.002644*sensor_row->b_y_bottom) - (0.000585*sensor_row->b_z_bottom) + (0.0000005642*(sensor_row->b_y_bottom*sensor_row->b_y_bottom)) + (0.0000001582*(sensor_row->b_y_bottom*sensor_row->b_z_bottom)) - (0.00000003274*(sensor_row->b_z_bottom*sensor_row->b_z_bottom)) + (0.00000000004031*((sensor_row->b_y_bottom*sensor_row->b_y_bottom)*sensor_row->b_z_bottom)) + (0.000000000000689*(sensor_row->b_y_bottom*(sensor_row->b_z_bottom*sensor_row->b_z_bottom))) - (0.0000000000005236*((sensor_row->b_z_bottom*sensor_row->b_z_bottom)*sensor_row->b_z_bottom));
    3a6e:	a360      	add	r3, pc, #384	; (adr r3, 3bf0 <mag_to_force+0xad8>)
    3a70:	e9d3 2300 	ldrd	r2, r3, [r3]
    3a74:	47a0      	blx	r4
    3a76:	4602      	mov	r2, r0
    3a78:	460b      	mov	r3, r1
    3a7a:	4640      	mov	r0, r8
    3a7c:	4649      	mov	r1, r9
    3a7e:	47b8      	blx	r7
    3a80:	4680      	mov	r8, r0
    3a82:	4689      	mov	r9, r1
	sensor_row->force_z_bottom= 25.61 - (0.005403*sensor_row->b_r_bottom) + (0.007253*sensor_row->b_z_bottom) + (0.000001078*(sensor_row->b_r_bottom*sensor_row->b_r_bottom)) - (0.0000006989*sensor_row->b_r_bottom*sensor_row->b_z_bottom) + (0.0000006109*(sensor_row->b_z_bottom*sensor_row->b_z_bottom)) + (0.00000000005541*(sensor_row->b_r_bottom*sensor_row->b_r_bottom)*sensor_row->b_z_bottom) - (0.00000000002099*sensor_row->b_r_bottom*(sensor_row->b_z_bottom*sensor_row->b_z_bottom)) + (0.00000000001312*(sensor_row->b_z_bottom*sensor_row->b_z_bottom)*sensor_row->b_z_bottom);
    3a84:	462e      	mov	r6, r5
    3a86:	ee68 7a89 	vmul.f32	s15, s17, s18
    3a8a:	ee17 0a90 	vmov	r0, s15
    3a8e:	47a8      	blx	r5
    3a90:	a359      	add	r3, pc, #356	; (adr r3, 3bf8 <mag_to_force+0xae0>)
    3a92:	e9d3 2300 	ldrd	r2, r3, [r3]
    3a96:	47a0      	blx	r4
    3a98:	463d      	mov	r5, r7
    3a9a:	4602      	mov	r2, r0
    3a9c:	460b      	mov	r3, r1
    3a9e:	4640      	mov	r0, r8
    3aa0:	4649      	mov	r1, r9
    3aa2:	47b8      	blx	r7
    3aa4:	4680      	mov	r8, r0
    3aa6:	4689      	mov	r9, r1
    3aa8:	a355      	add	r3, pc, #340	; (adr r3, 3c00 <mag_to_force+0xae8>)
    3aaa:	e9d3 2300 	ldrd	r2, r3, [r3]
    3aae:	e9dd 0102 	ldrd	r0, r1, [sp, #8]
    3ab2:	47a0      	blx	r4
    3ab4:	4f63      	ldr	r7, [pc, #396]	; (3c44 <mag_to_force+0xb2c>)
    3ab6:	4602      	mov	r2, r0
    3ab8:	460b      	mov	r3, r1
    3aba:	4640      	mov	r0, r8
    3abc:	4649      	mov	r1, r9
    3abe:	47b8      	blx	r7
    3ac0:	4680      	mov	r8, r0
    3ac2:	4689      	mov	r9, r1
	sensor_row->force_r_bottom= (sensor_row->force_x_bottom*sensor_row->force_x_bottom) + (sensor_row->force_y_bottom*sensor_row->force_y_bottom);
    3ac4:	ee68 7a8a 	vmul.f32	s15, s17, s20
    3ac8:	ee17 0a90 	vmov	r0, s15
    3acc:	47b0      	blx	r6
    3ace:	a34e      	add	r3, pc, #312	; (adr r3, 3c08 <mag_to_force+0xaf0>)
    3ad0:	e9d3 2300 	ldrd	r2, r3, [r3]
    3ad4:	47a0      	blx	r4
    3ad6:	4602      	mov	r2, r0
    3ad8:	460b      	mov	r3, r1
    3ada:	4640      	mov	r0, r8
    3adc:	4649      	mov	r1, r9
    3ade:	47a8      	blx	r5
    3ae0:	4680      	mov	r8, r0
    3ae2:	4689      	mov	r9, r1
	sensor_row->force_r_bottom = sqrt(sensor_row->force_r_bottom);
    3ae4:	ee69 7a89 	vmul.f32	s15, s19, s18
    3ae8:	ee17 0a90 	vmov	r0, s15
    3aec:	47b0      	blx	r6
    3aee:	a348      	add	r3, pc, #288	; (adr r3, 3c10 <mag_to_force+0xaf8>)
    3af0:	e9d3 2300 	ldrd	r2, r3, [r3]
    3af4:	47a0      	blx	r4
    3af6:	4602      	mov	r2, r0
    3af8:	460b      	mov	r3, r1
    3afa:	4640      	mov	r0, r8
    3afc:	4649      	mov	r1, r9
    3afe:	47a8      	blx	r5
    3b00:	4680      	mov	r8, r0
    3b02:	4689      	mov	r9, r1
	
    3b04:	a344      	add	r3, pc, #272	; (adr r3, 3c18 <mag_to_force+0xb00>)
    3b06:	e9d3 2300 	ldrd	r2, r3, [r3]
    3b0a:	e9dd 0104 	ldrd	r0, r1, [sp, #16]
    3b0e:	47a0      	blx	r4
	sensor_row->force_r_bottom = sqrt(sensor_row->force_r_bottom);
    3b10:	4602      	mov	r2, r0
    3b12:	460b      	mov	r3, r1
    3b14:	4640      	mov	r0, r8
    3b16:	4649      	mov	r1, r9
    3b18:	47b8      	blx	r7
    3b1a:	47d8      	blx	fp
    3b1c:	ee08 0a90 	vmov	s17, r0
	sensor_row->force_y_bottom= -2.141 + (0.002644*sensor_row->b_y_bottom) - (0.000585*sensor_row->b_z_bottom) + (0.0000005642*(sensor_row->b_y_bottom*sensor_row->b_y_bottom)) + (0.0000001582*(sensor_row->b_y_bottom*sensor_row->b_z_bottom)) - (0.00000003274*(sensor_row->b_z_bottom*sensor_row->b_z_bottom)) + (0.00000000004031*((sensor_row->b_y_bottom*sensor_row->b_y_bottom)*sensor_row->b_z_bottom)) + (0.000000000000689*(sensor_row->b_y_bottom*(sensor_row->b_z_bottom*sensor_row->b_z_bottom))) - (0.0000000000005236*((sensor_row->b_z_bottom*sensor_row->b_z_bottom)*sensor_row->b_z_bottom));
    3b20:	f8ca 0044 	str.w	r0, [sl, #68]	; 0x44
	sensor_row->force_z_bottom= 25.61 - (0.005403*sensor_row->b_r_bottom) + (0.007253*sensor_row->b_z_bottom) + (0.000001078*(sensor_row->b_r_bottom*sensor_row->b_r_bottom)) - (0.0000006989*sensor_row->b_r_bottom*sensor_row->b_z_bottom) + (0.0000006109*(sensor_row->b_z_bottom*sensor_row->b_z_bottom)) + (0.00000000005541*(sensor_row->b_r_bottom*sensor_row->b_r_bottom)*sensor_row->b_z_bottom) - (0.00000000002099*sensor_row->b_r_bottom*(sensor_row->b_z_bottom*sensor_row->b_z_bottom)) + (0.00000000001312*(sensor_row->b_z_bottom*sensor_row->b_z_bottom)*sensor_row->b_z_bottom);
    3b24:	ed9a 9a0b 	vldr	s18, [sl, #44]	; 0x2c
    3b28:	ee19 0a10 	vmov	r0, s18
    3b2c:	47b0      	blx	r6
    3b2e:	e9cd 0104 	strd	r0, r1, [sp, #16]
    3b32:	a33b      	add	r3, pc, #236	; (adr r3, 3c20 <mag_to_force+0xb08>)
    3b34:	e9d3 2300 	ldrd	r2, r3, [r3]
    3b38:	47a0      	blx	r4
    3b3a:	4602      	mov	r2, r0
    3b3c:	460b      	mov	r3, r1
    3b3e:	a13a      	add	r1, pc, #232	; (adr r1, 3c28 <mag_to_force+0xb10>)
    3b40:	e9d1 0100 	ldrd	r0, r1, [r1]
    3b44:	47b8      	blx	r7
    3b46:	4680      	mov	r8, r0
    3b48:	4689      	mov	r9, r1
    3b4a:	a339      	add	r3, pc, #228	; (adr r3, 3c30 <mag_to_force+0xb18>)
    3b4c:	e9d3 2300 	ldrd	r2, r3, [r3]
    3b50:	e9dd 0100 	ldrd	r0, r1, [sp]
    3b54:	47a0      	blx	r4
    3b56:	4602      	mov	r2, r0
    3b58:	460b      	mov	r3, r1
    3b5a:	4640      	mov	r0, r8
    3b5c:	4649      	mov	r1, r9
    3b5e:	47a8      	blx	r5
    3b60:	4680      	mov	r8, r0
    3b62:	4689      	mov	r9, r1
	sensor_row->force_r_bottom= (sensor_row->force_x_bottom*sensor_row->force_x_bottom) + (sensor_row->force_y_bottom*sensor_row->force_y_bottom);
    3b64:	ee69 7a09 	vmul.f32	s15, s18, s18
    3b68:	ee17 0a90 	vmov	r0, s15
    3b6c:	47b0      	blx	r6
    3b6e:	e9cd 0106 	strd	r0, r1, [sp, #24]
	sensor_row->force_z_bottom= 25.61 - (0.005403*sensor_row->b_r_bottom) + (0.007253*sensor_row->b_z_bottom) + (0.000001078*(sensor_row->b_r_bottom*sensor_row->b_r_bottom)) - (0.0000006989*sensor_row->b_r_bottom*sensor_row->b_z_bottom) + (0.0000006109*(sensor_row->b_z_bottom*sensor_row->b_z_bottom)) + (0.00000000005541*(sensor_row->b_r_bottom*sensor_row->b_r_bottom)*sensor_row->b_z_bottom) - (0.00000000002099*sensor_row->b_r_bottom*(sensor_row->b_z_bottom*sensor_row->b_z_bottom)) + (0.00000000001312*(sensor_row->b_z_bottom*sensor_row->b_z_bottom)*sensor_row->b_z_bottom);
    3b72:	a331      	add	r3, pc, #196	; (adr r3, 3c38 <mag_to_force+0xb20>)
    3b74:	e9d3 2300 	ldrd	r2, r3, [r3]
    3b78:	47a0      	blx	r4
    3b7a:	4602      	mov	r2, r0
    3b7c:	460b      	mov	r3, r1
    3b7e:	4640      	mov	r0, r8
    3b80:	4649      	mov	r1, r9
    3b82:	47a8      	blx	r5
    3b84:	4680      	mov	r8, r0
    3b86:	4689      	mov	r9, r1
    3b88:	e072      	b.n	3c70 <mag_to_force+0xb58>
    3b8a:	bf00      	nop
    3b8c:	f3af 8000 	nop.w
    3b90:	6b50b0f2 	.word	0x6b50b0f2
    3b94:	3f6c779a 	.word	0x3f6c779a
    3b98:	c28f5c29 	.word	0xc28f5c29
    3b9c:	c024a8f5 	.word	0xc024a8f5
    3ba0:	d5171e2a 	.word	0xd5171e2a
    3ba4:	3f68a222 	.word	0x3f68a222
    3ba8:	69edc5c6 	.word	0x69edc5c6
    3bac:	3ea5a9a9 	.word	0x3ea5a9a9
    3bb0:	81bc997e 	.word	0x81bc997e
    3bb4:	3ea8aec1 	.word	0x3ea8aec1
    3bb8:	de9fb9ed 	.word	0xde9fb9ed
    3bbc:	3e9247cb 	.word	0x3e9247cb
    3bc0:	82393435 	.word	0x82393435
    3bc4:	3dc8377c 	.word	0x3dc8377c
    3bc8:	e19c6262 	.word	0xe19c6262
    3bcc:	3dc1773a 	.word	0x3dc1773a
    3bd0:	7476128f 	.word	0x7476128f
    3bd4:	3da06d3c 	.word	0x3da06d3c
    3bd8:	b0fadf2f 	.word	0xb0fadf2f
    3bdc:	3f65a8de 	.word	0x3f65a8de
    3be0:	9ba5e354 	.word	0x9ba5e354
    3be4:	400120c4 	.word	0x400120c4
    3be8:	ef1fddec 	.word	0xef1fddec
    3bec:	3f432b55 	.word	0x3f432b55
    3bf0:	ebb865dc 	.word	0xebb865dc
    3bf4:	3ea2ee70 	.word	0x3ea2ee70
    3bf8:	ea8666cf 	.word	0xea8666cf
    3bfc:	3e853bb5 	.word	0x3e853bb5
    3c00:	5799a806 	.word	0x5799a806
    3c04:	3e6193c0 	.word	0x3e6193c0
    3c08:	cece3cda 	.word	0xcece3cda
    3c0c:	3dc62920 	.word	0x3dc62920
    3c10:	d5564f58 	.word	0xd5564f58
    3c14:	3d683df5 	.word	0x3d683df5
    3c18:	664dc709 	.word	0x664dc709
    3c1c:	3d626c2b 	.word	0x3d626c2b
    3c20:	c4cdfaca 	.word	0xc4cdfaca
    3c24:	3f762174 	.word	0x3f762174
    3c28:	f5c28f5c 	.word	0xf5c28f5c
    3c2c:	40399c28 	.word	0x40399c28
    3c30:	5cc42635 	.word	0x5cc42635
    3c34:	3f7db552 	.word	0x3f7db552
    3c38:	88e4e2e6 	.word	0x88e4e2e6
    3c3c:	3eb215f9 	.word	0x3eb215f9
    3c40:	00004061 	.word	0x00004061
    3c44:	000042a1 	.word	0x000042a1
    3c48:	02547d8d 	.word	0x02547d8d
    3c4c:	3ea9b22c 	.word	0x3ea9b22c
    3c50:	227c1fc4 	.word	0x227c1fc4
    3c54:	3e96b3f3 	.word	0x3e96b3f3
    3c58:	f946a57c 	.word	0xf946a57c
    3c5c:	3db0a587 	.word	0x3db0a587
    3c60:	82163668 	.word	0x82163668
    3c64:	3dbcbdc1 	.word	0x3dbcbdc1
    3c68:	02de4486 	.word	0x02de4486
    3c6c:	3d9a8e2f 	.word	0x3d9a8e2f
	sensor_row->force_r_bottom= (sensor_row->force_x_bottom*sensor_row->force_x_bottom) + (sensor_row->force_y_bottom*sensor_row->force_y_bottom);
    3c70:	a336      	add	r3, pc, #216	; (adr r3, 3d4c <mag_to_force+0xc34>)
    3c72:	e9d3 2300 	ldrd	r2, r3, [r3]
    3c76:	e9dd 0104 	ldrd	r0, r1, [sp, #16]
    3c7a:	47a0      	blx	r4
    3c7c:	4602      	mov	r2, r0
    3c7e:	460b      	mov	r3, r1
    3c80:	e9dd 0100 	ldrd	r0, r1, [sp]
    3c84:	47a0      	blx	r4
    3c86:	4602      	mov	r2, r0
    3c88:	460b      	mov	r3, r1
    3c8a:	4640      	mov	r0, r8
    3c8c:	4649      	mov	r1, r9
    3c8e:	47b8      	blx	r7
    3c90:	4680      	mov	r8, r0
    3c92:	4689      	mov	r9, r1
    3c94:	a32f      	add	r3, pc, #188	; (adr r3, 3d54 <mag_to_force+0xc3c>)
    3c96:	e9d3 2300 	ldrd	r2, r3, [r3]
    3c9a:	e9dd 0102 	ldrd	r0, r1, [sp, #8]
    3c9e:	47a0      	blx	r4
    3ca0:	4602      	mov	r2, r0
    3ca2:	460b      	mov	r3, r1
    3ca4:	4640      	mov	r0, r8
    3ca6:	4649      	mov	r1, r9
    3ca8:	47a8      	blx	r5
    3caa:	4680      	mov	r8, r0
    3cac:	4689      	mov	r9, r1
	sensor_row->force_r_bottom = sqrt(sensor_row->force_r_bottom);
    3cae:	a32b      	add	r3, pc, #172	; (adr r3, 3d5c <mag_to_force+0xc44>)
    3cb0:	e9d3 2300 	ldrd	r2, r3, [r3]
    3cb4:	e9dd 0106 	ldrd	r0, r1, [sp, #24]
    3cb8:	47a0      	blx	r4
    3cba:	4602      	mov	r2, r0
    3cbc:	460b      	mov	r3, r1
    3cbe:	e9dd 0100 	ldrd	r0, r1, [sp]
    3cc2:	47a0      	blx	r4
    3cc4:	4602      	mov	r2, r0
    3cc6:	460b      	mov	r3, r1
    3cc8:	4640      	mov	r0, r8
    3cca:	4649      	mov	r1, r9
    3ccc:	47a8      	blx	r5
    3cce:	4680      	mov	r8, r0
    3cd0:	4689      	mov	r9, r1
	
    3cd2:	a324      	add	r3, pc, #144	; (adr r3, 3d64 <mag_to_force+0xc4c>)
    3cd4:	e9d3 2300 	ldrd	r2, r3, [r3]
    3cd8:	e9dd 0104 	ldrd	r0, r1, [sp, #16]
    3cdc:	47a0      	blx	r4
    3cde:	4602      	mov	r2, r0
    3ce0:	460b      	mov	r3, r1
    3ce2:	e9dd 0102 	ldrd	r0, r1, [sp, #8]
    3ce6:	47a0      	blx	r4
    3ce8:	4602      	mov	r2, r0
    3cea:	460b      	mov	r3, r1
    3cec:	4640      	mov	r0, r8
    3cee:	4649      	mov	r1, r9
    3cf0:	47b8      	blx	r7
    3cf2:	4680      	mov	r8, r0
    3cf4:	4689      	mov	r9, r1
    3cf6:	a31d      	add	r3, pc, #116	; (adr r3, 3d6c <mag_to_force+0xc54>)
    3cf8:	e9d3 2300 	ldrd	r2, r3, [r3]
    3cfc:	e9dd 0102 	ldrd	r0, r1, [sp, #8]
    3d00:	47a0      	blx	r4
	/*
    3d02:	4602      	mov	r2, r0
    3d04:	460b      	mov	r3, r1
    3d06:	e9dd 0100 	ldrd	r0, r1, [sp]
    3d0a:	47a0      	blx	r4
	
    3d0c:	4602      	mov	r2, r0
    3d0e:	460b      	mov	r3, r1
    3d10:	4640      	mov	r0, r8
    3d12:	4649      	mov	r1, r9
    3d14:	47a8      	blx	r5
    3d16:	47d8      	blx	fp
	sensor_row->force_z_bottom= 25.61 - (0.005403*sensor_row->b_r_bottom) + (0.007253*sensor_row->b_z_bottom) + (0.000001078*(sensor_row->b_r_bottom*sensor_row->b_r_bottom)) - (0.0000006989*sensor_row->b_r_bottom*sensor_row->b_z_bottom) + (0.0000006109*(sensor_row->b_z_bottom*sensor_row->b_z_bottom)) + (0.00000000005541*(sensor_row->b_r_bottom*sensor_row->b_r_bottom)*sensor_row->b_z_bottom) - (0.00000000002099*sensor_row->b_r_bottom*(sensor_row->b_z_bottom*sensor_row->b_z_bottom)) + (0.00000000001312*(sensor_row->b_z_bottom*sensor_row->b_z_bottom)*sensor_row->b_z_bottom);
    3d18:	f8ca 0050 	str.w	r0, [sl, #80]	; 0x50
	sensor_row->force_r_bottom= (sensor_row->force_x_bottom*sensor_row->force_x_bottom) + (sensor_row->force_y_bottom*sensor_row->force_y_bottom);
    3d1c:	ee28 8a08 	vmul.f32	s16, s16, s16
    3d20:	ee68 8aa8 	vmul.f32	s17, s17, s17
    3d24:	ee38 8a28 	vadd.f32	s16, s16, s17
    3d28:	ed8a 8a17 	vstr	s16, [sl, #92]	; 0x5c
	sensor_row->force_r_bottom = sqrt(sensor_row->force_r_bottom);
    3d2c:	ee18 0a10 	vmov	r0, s16
    3d30:	47b0      	blx	r6
    3d32:	4b05      	ldr	r3, [pc, #20]	; (3d48 <mag_to_force+0xc30>)
    3d34:	4798      	blx	r3
    3d36:	47d8      	blx	fp
    3d38:	f8ca 005c 	str.w	r0, [sl, #92]	; 0x5c
	
	sensor_row->force_z_bottom = 35.2728 + (-0.0130*sensor_row->b_r_top) + (0.0084*hall_sensor_bottom->data.z);
	sensor_row->force_r_bottom = 9.9403 + (-0.0075*sensor_row->b_r_top) + (0.0013*hall_sensor_bottom->data.z);
	*/
	
    3d3c:	b009      	add	sp, #36	; 0x24
    3d3e:	ecbd 8b06 	vpop	{d8-d10}
    3d42:	e8bd 8ff0 	ldmia.w	sp!, {r4, r5, r6, r7, r8, r9, sl, fp, pc}
    3d46:	bf00      	nop
    3d48:	00004061 	.word	0x00004061
    3d4c:	5a723736 	.word	0x5a723736
    3d50:	3ea77381 	.word	0x3ea77381
    3d54:	4e8b8a55 	.word	0x4e8b8a55
    3d58:	3ea47f97 	.word	0x3ea47f97
    3d5c:	a48fe74d 	.word	0xa48fe74d
    3d60:	3dce7643 	.word	0x3dce7643
    3d64:	e61b6f11 	.word	0xe61b6f11
    3d68:	3db71428 	.word	0x3db71428
    3d6c:	447e7fdf 	.word	0x447e7fdf
    3d70:	3dacd9e7 	.word	0x3dacd9e7

00003d74 <RS>:
#include "math.h"
#include <Tactile_Sensor/neural_spikes.h>

void RS(struct fneuron_t *neuron) {
	// create a "regular spiking" floating point neuron
	neuron->a = 0.02;
    3d74:	4b07      	ldr	r3, [pc, #28]	; (3d94 <RS+0x20>)
    3d76:	6003      	str	r3, [r0, #0]
	neuron->b = 0.2;
    3d78:	4b07      	ldr	r3, [pc, #28]	; (3d98 <RS+0x24>)
    3d7a:	6043      	str	r3, [r0, #4]
	neuron->c = -65;
    3d7c:	4b07      	ldr	r3, [pc, #28]	; (3d9c <RS+0x28>)
    3d7e:	6083      	str	r3, [r0, #8]
	neuron->d = 6;
    3d80:	4b07      	ldr	r3, [pc, #28]	; (3da0 <RS+0x2c>)
    3d82:	60c3      	str	r3, [r0, #12]
	neuron->potential = neuron->recovery = 0;
    3d84:	2300      	movs	r3, #0
    3d86:	6143      	str	r3, [r0, #20]
    3d88:	6103      	str	r3, [r0, #16]
	neuron->timestep_neuron = 1; // junan recommendation 0.05, bigger timesteps till 1.5 is fine (see paper) 
    3d8a:	f04f 537e 	mov.w	r3, #1065353216	; 0x3f800000
    3d8e:	61c3      	str	r3, [r0, #28]
    3d90:	4770      	bx	lr
    3d92:	bf00      	nop
    3d94:	3ca3d70a 	.word	0x3ca3d70a
    3d98:	3e4ccccd 	.word	0x3e4ccccd
    3d9c:	c2820000 	.word	0xc2820000
    3da0:	40c00000 	.word	0x40c00000

00003da4 <force_parameters>:
}

void force_parameters (struct fneuron_t *neuron) {
	// initiate parameters for normal and shear force
	// parameters normal force
	neuron->beta = 0;
    3da4:	2300      	movs	r3, #0
    3da6:	6303      	str	r3, [r0, #48]	; 0x30
	neuron->k_s	= 1.2; //0.0000003
    3da8:	4a05      	ldr	r2, [pc, #20]	; (3dc0 <force_parameters+0x1c>)
    3daa:	6342      	str	r2, [r0, #52]	; 0x34
	neuron->k_d = 0;//0.003
    3dac:	6383      	str	r3, [r0, #56]	; 0x38
	neuron-> normal_force_past = 0; 
    3dae:	6283      	str	r3, [r0, #40]	; 0x28
	// parameters shear force
	neuron->theta = 0;
    3db0:	63c3      	str	r3, [r0, #60]	; 0x3c
	neuron->r_s = 4.8;
    3db2:	4a04      	ldr	r2, [pc, #16]	; (3dc4 <force_parameters+0x20>)
    3db4:	6402      	str	r2, [r0, #64]	; 0x40
	neuron->r_d = 0;
    3db6:	6443      	str	r3, [r0, #68]	; 0x44
	neuron-> shear_force_past = 0; 
    3db8:	62c3      	str	r3, [r0, #44]	; 0x2c
	neuron->timestep_force = 10; 
    3dba:	4b03      	ldr	r3, [pc, #12]	; (3dc8 <force_parameters+0x24>)
    3dbc:	6483      	str	r3, [r0, #72]	; 0x48
    3dbe:	4770      	bx	lr
    3dc0:	3f99999a 	.word	0x3f99999a
    3dc4:	4099999a 	.word	0x4099999a
    3dc8:	41200000 	.word	0x41200000

00003dcc <calc_current_normal_force>:
}

void calc_current_normal_force(struct fneuron_t *neuron, float force_z){
    3dcc:	ee07 1a90 	vmov	s15, r1
	neuron->normal_force = force_z;
    3dd0:	6201      	str	r1, [r0, #32]
	neuron->cell_current = neuron->beta + (neuron->k_s * neuron->normal_force);
    3dd2:	ed90 7a0c 	vldr	s14, [r0, #48]	; 0x30
    3dd6:	edd0 6a0d 	vldr	s13, [r0, #52]	; 0x34
    3dda:	ee67 6aa6 	vmul.f32	s13, s15, s13
    3dde:	ee37 7a26 	vadd.f32	s14, s14, s13
    3de2:	ed80 7a06 	vstr	s14, [r0, #24]
	neuron->normal_force_past = neuron->normal_force;
    3de6:	6281      	str	r1, [r0, #40]	; 0x28
    3de8:	4770      	bx	lr

00003dea <calc_current_shear_force>:
}

void calc_current_shear_force(struct fneuron_t *neuron,float force_r){//(fneuron_t *neuron, bool start, float force_x, float force_y
    3dea:	ee07 1a90 	vmov	s15, r1
	
	neuron->shear_force = force_r;
    3dee:	6241      	str	r1, [r0, #36]	; 0x24
	neuron->cell_current = neuron->theta + (neuron->r_s * neuron->shear_force);
    3df0:	ed90 7a0f 	vldr	s14, [r0, #60]	; 0x3c
    3df4:	edd0 6a10 	vldr	s13, [r0, #64]	; 0x40
    3df8:	ee67 6aa6 	vmul.f32	s13, s15, s13
    3dfc:	ee37 7a26 	vadd.f32	s14, s14, s13
    3e00:	ed80 7a06 	vstr	s14, [r0, #24]
	neuron->shear_force_past = neuron->shear_force;
    3e04:	62c1      	str	r1, [r0, #44]	; 0x2c
    3e06:	4770      	bx	lr

00003e08 <step_f>:
	
}

void step_f(struct fneuron_t *neuron, float synapse, float ms) {
    3e08:	e92d 47f0 	stmdb	sp!, {r4, r5, r6, r7, r8, r9, sl, lr}
    3e0c:	ed2d 8b04 	vpush	{d8-d9}
    3e10:	b082      	sub	sp, #8
	// step a neuron through ms milliseconds with synapse input
	//   if you don't have a good reason to do otherwise, keep ms between 0.1
	//   and 1.0
	if (neuron->potential >= 30) {
    3e12:	ed90 8a04 	vldr	s16, [r0, #16]
    3e16:	eef3 7a0e 	vmov.f32	s15, #62	; 0x41f00000  30.0
    3e1a:	eeb4 8ae7 	vcmpe.f32	s16, s15
    3e1e:	eef1 fa10 	vmrs	APSR_nzcv, fpscr
    3e22:	da6c      	bge.n	3efe <step_f+0xf6>
    3e24:	ee08 2a90 	vmov	s17, r2
    3e28:	468a      	mov	sl, r1
    3e2a:	4604      	mov	r4, r0
		neuron->potential = neuron->c;
		neuron->recovery += neuron->d;
		return;
	}
	float v = neuron->potential;
	float u = neuron->recovery;
    3e2c:	ed90 9a05 	vldr	s18, [r0, #20]
	neuron->potential = v + ms * (0.04 * v * v + 5 * v + 140 - u + synapse);
    3e30:	4d3b      	ldr	r5, [pc, #236]	; (3f20 <step_f+0x118>)
    3e32:	ee18 0a10 	vmov	r0, s16
    3e36:	47a8      	blx	r5
    3e38:	4680      	mov	r8, r0
    3e3a:	4689      	mov	r9, r1
    3e3c:	4f39      	ldr	r7, [pc, #228]	; (3f24 <step_f+0x11c>)
    3e3e:	a336      	add	r3, pc, #216	; (adr r3, 3f18 <step_f+0x110>)
    3e40:	e9d3 2300 	ldrd	r2, r3, [r3]
    3e44:	47b8      	blx	r7
    3e46:	4602      	mov	r2, r0
    3e48:	460b      	mov	r3, r1
    3e4a:	e9cd 8900 	strd	r8, r9, [sp]
    3e4e:	4640      	mov	r0, r8
    3e50:	4649      	mov	r1, r9
    3e52:	47b8      	blx	r7
    3e54:	4680      	mov	r8, r0
    3e56:	4689      	mov	r9, r1
    3e58:	eef1 7a04 	vmov.f32	s15, #20	; 0x40a00000  5.0
    3e5c:	ee68 7a27 	vmul.f32	s15, s16, s15
    3e60:	ee17 0a90 	vmov	r0, s15
    3e64:	47a8      	blx	r5
    3e66:	4e30      	ldr	r6, [pc, #192]	; (3f28 <step_f+0x120>)
    3e68:	4602      	mov	r2, r0
    3e6a:	460b      	mov	r3, r1
    3e6c:	4640      	mov	r0, r8
    3e6e:	4649      	mov	r1, r9
    3e70:	47b0      	blx	r6
    3e72:	2200      	movs	r2, #0
    3e74:	4b2d      	ldr	r3, [pc, #180]	; (3f2c <step_f+0x124>)
    3e76:	47b0      	blx	r6
    3e78:	4680      	mov	r8, r0
    3e7a:	4689      	mov	r9, r1
    3e7c:	ee19 0a10 	vmov	r0, s18
    3e80:	47a8      	blx	r5
    3e82:	4602      	mov	r2, r0
    3e84:	460b      	mov	r3, r1
    3e86:	4640      	mov	r0, r8
    3e88:	4649      	mov	r1, r9
    3e8a:	f8df 80a8 	ldr.w	r8, [pc, #168]	; 3f34 <step_f+0x12c>
    3e8e:	47c0      	blx	r8
    3e90:	4680      	mov	r8, r0
    3e92:	4689      	mov	r9, r1
    3e94:	4650      	mov	r0, sl
    3e96:	47a8      	blx	r5
    3e98:	4642      	mov	r2, r8
    3e9a:	464b      	mov	r3, r9
    3e9c:	47b0      	blx	r6
    3e9e:	4680      	mov	r8, r0
    3ea0:	4689      	mov	r9, r1
    3ea2:	ee18 0a90 	vmov	r0, s17
    3ea6:	47a8      	blx	r5
    3ea8:	4642      	mov	r2, r8
    3eaa:	464b      	mov	r3, r9
    3eac:	47b8      	blx	r7
    3eae:	4602      	mov	r2, r0
    3eb0:	460b      	mov	r3, r1
    3eb2:	e9dd 0100 	ldrd	r0, r1, [sp]
    3eb6:	47b0      	blx	r6
    3eb8:	4b1d      	ldr	r3, [pc, #116]	; (3f30 <step_f+0x128>)
    3eba:	4798      	blx	r3
    3ebc:	ee07 0a90 	vmov	s15, r0
    3ec0:	6120      	str	r0, [r4, #16]
	if (neuron -> potential > 30) {
    3ec2:	eeb3 7a0e 	vmov.f32	s14, #62	; 0x41f00000  30.0
    3ec6:	eef4 7ac7 	vcmpe.f32	s15, s14
    3eca:	eef1 fa10 	vmrs	APSR_nzcv, fpscr
    3ece:	dd01      	ble.n	3ed4 <step_f+0xcc>
		neuron -> potential = 30;
    3ed0:	ed84 7a04 	vstr	s14, [r4, #16]
	}
	neuron->recovery = u + ms * (neuron->a * (neuron->b * v - u));
    3ed4:	edd4 7a00 	vldr	s15, [r4]
    3ed8:	ed94 7a01 	vldr	s14, [r4, #4]
    3edc:	ee28 8a07 	vmul.f32	s16, s16, s14
    3ee0:	ee38 8a49 	vsub.f32	s16, s16, s18
    3ee4:	ee27 8a88 	vmul.f32	s16, s15, s16
    3ee8:	ee68 8a88 	vmul.f32	s17, s17, s16
    3eec:	ee79 8a28 	vadd.f32	s17, s18, s17
    3ef0:	edc4 8a05 	vstr	s17, [r4, #20]
	return;
}
    3ef4:	b002      	add	sp, #8
    3ef6:	ecbd 8b04 	vpop	{d8-d9}
    3efa:	e8bd 87f0 	ldmia.w	sp!, {r4, r5, r6, r7, r8, r9, sl, pc}
		neuron->potential = neuron->c;
    3efe:	6883      	ldr	r3, [r0, #8]
    3f00:	6103      	str	r3, [r0, #16]
		neuron->recovery += neuron->d;
    3f02:	ed90 7a03 	vldr	s14, [r0, #12]
    3f06:	edd0 7a05 	vldr	s15, [r0, #20]
    3f0a:	ee77 7a87 	vadd.f32	s15, s15, s14
    3f0e:	edc0 7a05 	vstr	s15, [r0, #20]
		return;
    3f12:	e7ef      	b.n	3ef4 <step_f+0xec>
    3f14:	f3af 8000 	nop.w
    3f18:	47ae147b 	.word	0x47ae147b
    3f1c:	3fa47ae1 	.word	0x3fa47ae1
    3f20:	00004561 	.word	0x00004561
    3f24:	00004609 	.word	0x00004609
    3f28:	000042a5 	.word	0x000042a5
    3f2c:	40618000 	.word	0x40618000
    3f30:	00004b69 	.word	0x00004b69
    3f34:	000042a1 	.word	0x000042a1

00003f38 <neuron_init_row>:
	
	//repeatition = (uint8_t) (neuron_middle_normal.timestep_force/neuron_middle_normal.timestep_neuron);
}
*/

void neuron_init_row(struct neuron_pair *neuron_pair_top, struct neuron_pair *neuron_pair_middle, struct neuron_pair *neuron_pair_bottom){
    3f38:	e92d 41f0 	stmdb	sp!, {r4, r5, r6, r7, r8, lr}
    3f3c:	4680      	mov	r8, r0
    3f3e:	460f      	mov	r7, r1
    3f40:	4615      	mov	r5, r2
	
	RS(&neuron_pair_top->neuron_normal);
    3f42:	4e0f      	ldr	r6, [pc, #60]	; (3f80 <neuron_init_row+0x48>)
    3f44:	47b0      	blx	r6
	force_parameters(&neuron_pair_top->neuron_normal);
    3f46:	4640      	mov	r0, r8
    3f48:	4c0e      	ldr	r4, [pc, #56]	; (3f84 <neuron_init_row+0x4c>)
    3f4a:	47a0      	blx	r4
	
	RS(&neuron_pair_top->neuron_shear);
    3f4c:	f108 084c 	add.w	r8, r8, #76	; 0x4c
    3f50:	4640      	mov	r0, r8
    3f52:	47b0      	blx	r6
	force_parameters(&neuron_pair_top->neuron_shear);
    3f54:	4640      	mov	r0, r8
    3f56:	47a0      	blx	r4
	
	
	RS(&neuron_pair_middle->neuron_normal);
    3f58:	4638      	mov	r0, r7
    3f5a:	47b0      	blx	r6
	force_parameters(&neuron_pair_middle->neuron_normal);
    3f5c:	4638      	mov	r0, r7
    3f5e:	47a0      	blx	r4
	
	RS(&neuron_pair_middle->neuron_shear);
    3f60:	374c      	adds	r7, #76	; 0x4c
    3f62:	4638      	mov	r0, r7
    3f64:	47b0      	blx	r6
	force_parameters(&neuron_pair_middle->neuron_shear);
    3f66:	4638      	mov	r0, r7
    3f68:	47a0      	blx	r4
	
	
	RS(&neuron_pair_bottom->neuron_normal);
    3f6a:	4628      	mov	r0, r5
    3f6c:	47b0      	blx	r6
	force_parameters(&neuron_pair_bottom->neuron_normal);
    3f6e:	4628      	mov	r0, r5
    3f70:	47a0      	blx	r4
	
	RS(&neuron_pair_bottom->neuron_shear);
    3f72:	354c      	adds	r5, #76	; 0x4c
    3f74:	4628      	mov	r0, r5
    3f76:	47b0      	blx	r6
	force_parameters(&neuron_pair_bottom->neuron_shear);
    3f78:	4628      	mov	r0, r5
    3f7a:	47a0      	blx	r4
    3f7c:	e8bd 81f0 	ldmia.w	sp!, {r4, r5, r6, r7, r8, pc}
    3f80:	00003d75 	.word	0x00003d75
    3f84:	00003da5 	.word	0x00003da5

00003f88 <neuron_calc_row>:
	
	//repeatition = (uint8_t) (neuron_middle_normal.timestep_force/neuron_middle_normal.timestep_neuron);
}

 void neuron_calc_row(struct sensorRow_Values *sensor_row, struct neuron_pair *neuron_pair_top, struct neuron_pair *neuron_pair_middle, struct neuron_pair *neuron_pair_bottom){
    3f88:	e92d 4ff0 	stmdb	sp!, {r4, r5, r6, r7, r8, r9, sl, fp, lr}
    3f8c:	b085      	sub	sp, #20
    3f8e:	4604      	mov	r4, r0
    3f90:	460d      	mov	r5, r1
    3f92:	4617      	mov	r7, r2
    3f94:	461e      	mov	r6, r3
	 
	 uint8_t repeatition = (uint8_t) (neuron_pair_top->neuron_normal.timestep_force/neuron_pair_top->neuron_normal.timestep_neuron);
    3f96:	edd1 6a12 	vldr	s13, [r1, #72]	; 0x48
    3f9a:	ed91 7a07 	vldr	s14, [r1, #28]
    3f9e:	eec6 7a87 	vdiv.f32	s15, s13, s14
    3fa2:	eefc 7ae7 	vcvt.u32.f32	s15, s15
    3fa6:	edcd 7a00 	vstr	s15, [sp]
    3faa:	f89d 9000 	ldrb.w	r9, [sp]
	 
	 calc_current_normal_force(&neuron_pair_top->neuron_normal,sensor_row->force_z_top);
    3fae:	9100      	str	r1, [sp, #0]
    3fb0:	6c81      	ldr	r1, [r0, #72]	; 0x48
    3fb2:	4628      	mov	r0, r5
    3fb4:	f8df a080 	ldr.w	sl, [pc, #128]	; 4038 <neuron_calc_row+0xb0>
    3fb8:	47d0      	blx	sl
	 calc_current_shear_force(&neuron_pair_top->neuron_shear,sensor_row->force_r_top);
    3fba:	f105 0b4c 	add.w	fp, r5, #76	; 0x4c
    3fbe:	6d61      	ldr	r1, [r4, #84]	; 0x54
    3fc0:	4658      	mov	r0, fp
    3fc2:	f8df 8078 	ldr.w	r8, [pc, #120]	; 403c <neuron_calc_row+0xb4>
    3fc6:	47c0      	blx	r8
	 calc_current_normal_force(&neuron_pair_middle->neuron_normal,sensor_row->force_z_middle);
    3fc8:	9701      	str	r7, [sp, #4]
    3fca:	6ce1      	ldr	r1, [r4, #76]	; 0x4c
    3fcc:	4638      	mov	r0, r7
    3fce:	47d0      	blx	sl
	 calc_current_shear_force(&neuron_pair_middle->neuron_shear,sensor_row->force_r_middle);
    3fd0:	f107 034c 	add.w	r3, r7, #76	; 0x4c
    3fd4:	9302      	str	r3, [sp, #8]
    3fd6:	6da1      	ldr	r1, [r4, #88]	; 0x58
    3fd8:	4618      	mov	r0, r3
    3fda:	47c0      	blx	r8
	 calc_current_normal_force(&neuron_pair_bottom->neuron_normal,sensor_row->force_z_bottom);
    3fdc:	9603      	str	r6, [sp, #12]
    3fde:	6d21      	ldr	r1, [r4, #80]	; 0x50
    3fe0:	4630      	mov	r0, r6
    3fe2:	47d0      	blx	sl
	 calc_current_shear_force(&neuron_pair_bottom->neuron_shear,sensor_row->force_r_bottom);
    3fe4:	f106 0a4c 	add.w	sl, r6, #76	; 0x4c
    3fe8:	6de1      	ldr	r1, [r4, #92]	; 0x5c
    3fea:	4650      	mov	r0, sl
    3fec:	47c0      	blx	r8
	 
	 for(int i = 0; i<repeatition; i++){
    3fee:	f04f 0800 	mov.w	r8, #0
    3ff2:	e01a      	b.n	402a <neuron_calc_row+0xa2>
		step_f(&neuron_pair_top->neuron_normal, neuron_pair_top->neuron_normal.cell_current,neuron_pair_top->neuron_normal.timestep_neuron);//neuron_pair_top->neuron_normal.timestep_neuron
    3ff4:	69ea      	ldr	r2, [r5, #28]
    3ff6:	69a9      	ldr	r1, [r5, #24]
    3ff8:	9800      	ldr	r0, [sp, #0]
    3ffa:	4c0e      	ldr	r4, [pc, #56]	; (4034 <neuron_calc_row+0xac>)
    3ffc:	47a0      	blx	r4
		step_f(&neuron_pair_top->neuron_shear, neuron_pair_top->neuron_shear.cell_current, neuron_pair_top->neuron_shear.timestep_neuron);
    3ffe:	6eaa      	ldr	r2, [r5, #104]	; 0x68
    4000:	6e69      	ldr	r1, [r5, #100]	; 0x64
    4002:	4658      	mov	r0, fp
    4004:	47a0      	blx	r4
		step_f(&neuron_pair_middle->neuron_normal, neuron_pair_middle->neuron_normal.cell_current, neuron_pair_middle->neuron_normal.timestep_neuron);
    4006:	69fa      	ldr	r2, [r7, #28]
    4008:	69b9      	ldr	r1, [r7, #24]
    400a:	9801      	ldr	r0, [sp, #4]
    400c:	47a0      	blx	r4
		step_f(&neuron_pair_middle->neuron_shear, neuron_pair_middle->neuron_shear.cell_current, neuron_pair_middle->neuron_shear.timestep_neuron);
    400e:	6eba      	ldr	r2, [r7, #104]	; 0x68
    4010:	6e79      	ldr	r1, [r7, #100]	; 0x64
    4012:	9802      	ldr	r0, [sp, #8]
    4014:	47a0      	blx	r4
		step_f(&neuron_pair_bottom->neuron_normal, neuron_pair_bottom->neuron_normal.cell_current, neuron_pair_bottom->neuron_normal.timestep_neuron);
    4016:	69f2      	ldr	r2, [r6, #28]
    4018:	69b1      	ldr	r1, [r6, #24]
    401a:	9803      	ldr	r0, [sp, #12]
    401c:	47a0      	blx	r4
		step_f(&neuron_pair_bottom->neuron_shear, neuron_pair_bottom->neuron_shear.cell_current, neuron_pair_bottom->neuron_shear.timestep_neuron);
    401e:	6eb2      	ldr	r2, [r6, #104]	; 0x68
    4020:	6e71      	ldr	r1, [r6, #100]	; 0x64
    4022:	4650      	mov	r0, sl
    4024:	47a0      	blx	r4
	 for(int i = 0; i<repeatition; i++){
    4026:	f108 0801 	add.w	r8, r8, #1
    402a:	45c8      	cmp	r8, r9
    402c:	dbe2      	blt.n	3ff4 <neuron_calc_row+0x6c>
	 }
}
    402e:	b005      	add	sp, #20
    4030:	e8bd 8ff0 	ldmia.w	sp!, {r4, r5, r6, r7, r8, r9, sl, fp, pc}
    4034:	00003e09 	.word	0x00003e09
    4038:	00003dcd 	.word	0x00003dcd
    403c:	00003deb 	.word	0x00003deb

00004040 <update_struct_values_neural>:
	step_f(neuron3_normal, neuron3_normal->cell_current, neuron3_normal->timestep_neuron);
	step_f(neuron3_shear, neuron3_shear->cell_current, neuron3_shear->timestep_neuron);
}
*/

void update_struct_values_neural(struct neuronRow_Values *neuron_row, struct neuron_pair *neuron_pair_top, struct neuron_pair *neuron_pair_middle, struct neuron_pair *neuron_pair_bottom){
    4040:	b410      	push	{r4}
	neuron_row->neuron_top_normal = neuron_pair_top->neuron_normal.potential;
    4042:	690c      	ldr	r4, [r1, #16]
    4044:	6004      	str	r4, [r0, #0]
	neuron_row->neuron_top_shear = neuron_pair_top->neuron_shear.potential;
    4046:	6dc9      	ldr	r1, [r1, #92]	; 0x5c
    4048:	6041      	str	r1, [r0, #4]
	
	neuron_row->neuron_middle_normal = neuron_pair_middle->neuron_normal.potential;
    404a:	6911      	ldr	r1, [r2, #16]
    404c:	6081      	str	r1, [r0, #8]
	neuron_row->neuron_middle_shear = neuron_pair_middle->neuron_shear.potential;
    404e:	6dd2      	ldr	r2, [r2, #92]	; 0x5c
    4050:	60c2      	str	r2, [r0, #12]
	
	neuron_row->neuron_bottom_normal = neuron_pair_bottom->neuron_normal.potential;
    4052:	691a      	ldr	r2, [r3, #16]
    4054:	6102      	str	r2, [r0, #16]
	neuron_row->neuron_bottom_shear = neuron_pair_bottom->neuron_shear.potential;
    4056:	6ddb      	ldr	r3, [r3, #92]	; 0x5c
    4058:	6143      	str	r3, [r0, #20]
    405a:	f85d 4b04 	ldr.w	r4, [sp], #4
    405e:	4770      	bx	lr

00004060 <sqrt>:
    4060:	e92d 4ff0 	stmdb	sp!, {r4, r5, r6, r7, r8, r9, sl, fp, lr}
    4064:	b08b      	sub	sp, #44	; 0x2c
    4066:	4604      	mov	r4, r0
    4068:	460d      	mov	r5, r1
    406a:	f000 f857 	bl	411c <__ieee754_sqrt>
    406e:	4b29      	ldr	r3, [pc, #164]	; (4114 <sqrt+0xb4>)
    4070:	f993 a000 	ldrsb.w	sl, [r3]
    4074:	f1ba 3fff 	cmp.w	sl, #4294967295
    4078:	4606      	mov	r6, r0
    407a:	460f      	mov	r7, r1
    407c:	d012      	beq.n	40a4 <sqrt+0x44>
    407e:	4622      	mov	r2, r4
    4080:	462b      	mov	r3, r5
    4082:	4620      	mov	r0, r4
    4084:	4629      	mov	r1, r5
    4086:	f000 fd59 	bl	4b3c <__aeabi_dcmpun>
    408a:	4683      	mov	fp, r0
    408c:	b950      	cbnz	r0, 40a4 <sqrt+0x44>
    408e:	f04f 0800 	mov.w	r8, #0
    4092:	f04f 0900 	mov.w	r9, #0
    4096:	4642      	mov	r2, r8
    4098:	464b      	mov	r3, r9
    409a:	4620      	mov	r0, r4
    409c:	4629      	mov	r1, r5
    409e:	f000 fd25 	bl	4aec <__aeabi_dcmplt>
    40a2:	b920      	cbnz	r0, 40ae <sqrt+0x4e>
    40a4:	4630      	mov	r0, r6
    40a6:	4639      	mov	r1, r7
    40a8:	b00b      	add	sp, #44	; 0x2c
    40aa:	e8bd 8ff0 	ldmia.w	sp!, {r4, r5, r6, r7, r8, r9, sl, fp, pc}
    40ae:	4b1a      	ldr	r3, [pc, #104]	; (4118 <sqrt+0xb8>)
    40b0:	f8cd b020 	str.w	fp, [sp, #32]
    40b4:	2201      	movs	r2, #1
    40b6:	e9cd 4504 	strd	r4, r5, [sp, #16]
    40ba:	e9cd 4502 	strd	r4, r5, [sp, #8]
    40be:	e88d 000c 	stmia.w	sp, {r2, r3}
    40c2:	f1ba 0f00 	cmp.w	sl, #0
    40c6:	d017      	beq.n	40f8 <sqrt+0x98>
    40c8:	4642      	mov	r2, r8
    40ca:	464b      	mov	r3, r9
    40cc:	4640      	mov	r0, r8
    40ce:	4649      	mov	r1, r9
    40d0:	f000 fbc4 	bl	485c <__aeabi_ddiv>
    40d4:	f1ba 0f02 	cmp.w	sl, #2
    40d8:	e9cd 0106 	strd	r0, r1, [sp, #24]
    40dc:	d10e      	bne.n	40fc <sqrt+0x9c>
    40de:	f000 fd93 	bl	4c08 <__errno>
    40e2:	2321      	movs	r3, #33	; 0x21
    40e4:	6003      	str	r3, [r0, #0]
    40e6:	9b08      	ldr	r3, [sp, #32]
    40e8:	b973      	cbnz	r3, 4108 <sqrt+0xa8>
    40ea:	e9dd 6706 	ldrd	r6, r7, [sp, #24]
    40ee:	4630      	mov	r0, r6
    40f0:	4639      	mov	r1, r7
    40f2:	b00b      	add	sp, #44	; 0x2c
    40f4:	e8bd 8ff0 	ldmia.w	sp!, {r4, r5, r6, r7, r8, r9, sl, fp, pc}
    40f8:	e9cd 8906 	strd	r8, r9, [sp, #24]
    40fc:	4668      	mov	r0, sp
    40fe:	f000 f8c9 	bl	4294 <matherr>
    4102:	2800      	cmp	r0, #0
    4104:	d1ef      	bne.n	40e6 <sqrt+0x86>
    4106:	e7ea      	b.n	40de <sqrt+0x7e>
    4108:	f000 fd7e 	bl	4c08 <__errno>
    410c:	9b08      	ldr	r3, [sp, #32]
    410e:	6003      	str	r3, [r0, #0]
    4110:	e7eb      	b.n	40ea <sqrt+0x8a>
    4112:	bf00      	nop
    4114:	200000ee 	.word	0x200000ee
    4118:	00004e4c 	.word	0x00004e4c

0000411c <__ieee754_sqrt>:
    411c:	e92d 43f8 	stmdb	sp!, {r3, r4, r5, r6, r7, r8, r9, lr}
    4120:	4f5b      	ldr	r7, [pc, #364]	; (4290 <__ieee754_sqrt+0x174>)
    4122:	438f      	bics	r7, r1
    4124:	4605      	mov	r5, r0
    4126:	460c      	mov	r4, r1
    4128:	f000 8092 	beq.w	4250 <__ieee754_sqrt+0x134>
    412c:	2900      	cmp	r1, #0
    412e:	460b      	mov	r3, r1
    4130:	4602      	mov	r2, r0
    4132:	dd6f      	ble.n	4214 <__ieee754_sqrt+0xf8>
    4134:	150f      	asrs	r7, r1, #20
    4136:	d07b      	beq.n	4230 <__ieee754_sqrt+0x114>
    4138:	f2a7 37ff 	subw	r7, r7, #1023	; 0x3ff
    413c:	f3c3 0313 	ubfx	r3, r3, #0, #20
    4140:	07f8      	lsls	r0, r7, #31
    4142:	f443 1380 	orr.w	r3, r3, #1048576	; 0x100000
    4146:	d45c      	bmi.n	4202 <__ieee754_sqrt+0xe6>
    4148:	eb03 71d2 	add.w	r1, r3, r2, lsr #31
    414c:	2600      	movs	r6, #0
    414e:	440b      	add	r3, r1
    4150:	107f      	asrs	r7, r7, #1
    4152:	0052      	lsls	r2, r2, #1
    4154:	46b6      	mov	lr, r6
    4156:	2016      	movs	r0, #22
    4158:	f44f 1100 	mov.w	r1, #2097152	; 0x200000
    415c:	eb0e 0401 	add.w	r4, lr, r1
    4160:	429c      	cmp	r4, r3
    4162:	ea4f 75d2 	mov.w	r5, r2, lsr #31
    4166:	ea4f 0242 	mov.w	r2, r2, lsl #1
    416a:	dc03      	bgt.n	4174 <__ieee754_sqrt+0x58>
    416c:	1b1b      	subs	r3, r3, r4
    416e:	eb04 0e01 	add.w	lr, r4, r1
    4172:	440e      	add	r6, r1
    4174:	3801      	subs	r0, #1
    4176:	eb05 0343 	add.w	r3, r5, r3, lsl #1
    417a:	ea4f 0151 	mov.w	r1, r1, lsr #1
    417e:	d1ed      	bne.n	415c <__ieee754_sqrt+0x40>
    4180:	4684      	mov	ip, r0
    4182:	2420      	movs	r4, #32
    4184:	f04f 4100 	mov.w	r1, #2147483648	; 0x80000000
    4188:	e009      	b.n	419e <__ieee754_sqrt+0x82>
    418a:	d020      	beq.n	41ce <__ieee754_sqrt+0xb2>
    418c:	eb03 75d2 	add.w	r5, r3, r2, lsr #31
    4190:	3c01      	subs	r4, #1
    4192:	ea4f 0151 	mov.w	r1, r1, lsr #1
    4196:	442b      	add	r3, r5
    4198:	ea4f 0242 	mov.w	r2, r2, lsl #1
    419c:	d020      	beq.n	41e0 <__ieee754_sqrt+0xc4>
    419e:	4573      	cmp	r3, lr
    41a0:	eb01 050c 	add.w	r5, r1, ip
    41a4:	ddf1      	ble.n	418a <__ieee754_sqrt+0x6e>
    41a6:	2d00      	cmp	r5, #0
    41a8:	eb05 0c01 	add.w	ip, r5, r1
    41ac:	db09      	blt.n	41c2 <__ieee754_sqrt+0xa6>
    41ae:	46f0      	mov	r8, lr
    41b0:	4295      	cmp	r5, r2
    41b2:	eba3 030e 	sub.w	r3, r3, lr
    41b6:	d900      	bls.n	41ba <__ieee754_sqrt+0x9e>
    41b8:	3b01      	subs	r3, #1
    41ba:	1b52      	subs	r2, r2, r5
    41bc:	4408      	add	r0, r1
    41be:	46c6      	mov	lr, r8
    41c0:	e7e4      	b.n	418c <__ieee754_sqrt+0x70>
    41c2:	f1bc 0f00 	cmp.w	ip, #0
    41c6:	dbf2      	blt.n	41ae <__ieee754_sqrt+0x92>
    41c8:	f10e 0801 	add.w	r8, lr, #1
    41cc:	e7f0      	b.n	41b0 <__ieee754_sqrt+0x94>
    41ce:	4295      	cmp	r5, r2
    41d0:	d8dc      	bhi.n	418c <__ieee754_sqrt+0x70>
    41d2:	2d00      	cmp	r5, #0
    41d4:	eb05 0c01 	add.w	ip, r5, r1
    41d8:	db44      	blt.n	4264 <__ieee754_sqrt+0x148>
    41da:	4698      	mov	r8, r3
    41dc:	2300      	movs	r3, #0
    41de:	e7ec      	b.n	41ba <__ieee754_sqrt+0x9e>
    41e0:	4313      	orrs	r3, r2
    41e2:	d113      	bne.n	420c <__ieee754_sqrt+0xf0>
    41e4:	0840      	lsrs	r0, r0, #1
    41e6:	1073      	asrs	r3, r6, #1
    41e8:	f103 537f 	add.w	r3, r3, #1069547520	; 0x3fc00000
    41ec:	f503 1300 	add.w	r3, r3, #2097152	; 0x200000
    41f0:	07f2      	lsls	r2, r6, #31
    41f2:	eb03 5907 	add.w	r9, r3, r7, lsl #20
    41f6:	bf48      	it	mi
    41f8:	f040 4000 	orrmi.w	r0, r0, #2147483648	; 0x80000000
    41fc:	4649      	mov	r1, r9
    41fe:	e8bd 83f8 	ldmia.w	sp!, {r3, r4, r5, r6, r7, r8, r9, pc}
    4202:	005b      	lsls	r3, r3, #1
    4204:	eb03 73d2 	add.w	r3, r3, r2, lsr #31
    4208:	0052      	lsls	r2, r2, #1
    420a:	e79d      	b.n	4148 <__ieee754_sqrt+0x2c>
    420c:	1c41      	adds	r1, r0, #1
    420e:	d02d      	beq.n	426c <__ieee754_sqrt+0x150>
    4210:	3001      	adds	r0, #1
    4212:	e7e7      	b.n	41e4 <__ieee754_sqrt+0xc8>
    4214:	4606      	mov	r6, r0
    4216:	f021 4700 	bic.w	r7, r1, #2147483648	; 0x80000000
    421a:	433e      	orrs	r6, r7
    421c:	d0ef      	beq.n	41fe <__ieee754_sqrt+0xe2>
    421e:	bb69      	cbnz	r1, 427c <__ieee754_sqrt+0x160>
    4220:	460f      	mov	r7, r1
    4222:	0ad3      	lsrs	r3, r2, #11
    4224:	3f15      	subs	r7, #21
    4226:	0552      	lsls	r2, r2, #21
    4228:	2b00      	cmp	r3, #0
    422a:	d0fa      	beq.n	4222 <__ieee754_sqrt+0x106>
    422c:	02de      	lsls	r6, r3, #11
    422e:	d420      	bmi.n	4272 <__ieee754_sqrt+0x156>
    4230:	2400      	movs	r4, #0
    4232:	e000      	b.n	4236 <__ieee754_sqrt+0x11a>
    4234:	4604      	mov	r4, r0
    4236:	005b      	lsls	r3, r3, #1
    4238:	02dd      	lsls	r5, r3, #11
    423a:	f104 0001 	add.w	r0, r4, #1
    423e:	d5f9      	bpl.n	4234 <__ieee754_sqrt+0x118>
    4240:	f1c0 0120 	rsb	r1, r0, #32
    4244:	fa22 f101 	lsr.w	r1, r2, r1
    4248:	430b      	orrs	r3, r1
    424a:	1b3f      	subs	r7, r7, r4
    424c:	4082      	lsls	r2, r0
    424e:	e773      	b.n	4138 <__ieee754_sqrt+0x1c>
    4250:	4602      	mov	r2, r0
    4252:	460b      	mov	r3, r1
    4254:	f000 f9d8 	bl	4608 <__aeabi_dmul>
    4258:	462a      	mov	r2, r5
    425a:	4623      	mov	r3, r4
    425c:	f000 f822 	bl	42a4 <__adddf3>
    4260:	e8bd 83f8 	ldmia.w	sp!, {r3, r4, r5, r6, r7, r8, r9, pc}
    4264:	f1bc 0f00 	cmp.w	ip, #0
    4268:	daae      	bge.n	41c8 <__ieee754_sqrt+0xac>
    426a:	e7b6      	b.n	41da <__ieee754_sqrt+0xbe>
    426c:	3601      	adds	r6, #1
    426e:	4620      	mov	r0, r4
    4270:	e7b9      	b.n	41e6 <__ieee754_sqrt+0xca>
    4272:	2000      	movs	r0, #0
    4274:	2120      	movs	r1, #32
    4276:	f04f 34ff 	mov.w	r4, #4294967295
    427a:	e7e3      	b.n	4244 <__ieee754_sqrt+0x128>
    427c:	4602      	mov	r2, r0
    427e:	460b      	mov	r3, r1
    4280:	f000 f80e 	bl	42a0 <__aeabi_dsub>
    4284:	4602      	mov	r2, r0
    4286:	460b      	mov	r3, r1
    4288:	f000 fae8 	bl	485c <__aeabi_ddiv>
    428c:	e7b7      	b.n	41fe <__ieee754_sqrt+0xe2>
    428e:	bf00      	nop
    4290:	7ff00000 	.word	0x7ff00000

00004294 <matherr>:
    4294:	2000      	movs	r0, #0
    4296:	4770      	bx	lr

00004298 <__aeabi_drsub>:
    4298:	f081 4100 	eor.w	r1, r1, #2147483648	; 0x80000000
    429c:	e002      	b.n	42a4 <__adddf3>
    429e:	bf00      	nop

000042a0 <__aeabi_dsub>:
    42a0:	f083 4300 	eor.w	r3, r3, #2147483648	; 0x80000000

000042a4 <__adddf3>:
    42a4:	b530      	push	{r4, r5, lr}
    42a6:	ea4f 0441 	mov.w	r4, r1, lsl #1
    42aa:	ea4f 0543 	mov.w	r5, r3, lsl #1
    42ae:	ea94 0f05 	teq	r4, r5
    42b2:	bf08      	it	eq
    42b4:	ea90 0f02 	teqeq	r0, r2
    42b8:	bf1f      	itttt	ne
    42ba:	ea54 0c00 	orrsne.w	ip, r4, r0
    42be:	ea55 0c02 	orrsne.w	ip, r5, r2
    42c2:	ea7f 5c64 	mvnsne.w	ip, r4, asr #21
    42c6:	ea7f 5c65 	mvnsne.w	ip, r5, asr #21
    42ca:	f000 80e2 	beq.w	4492 <__adddf3+0x1ee>
    42ce:	ea4f 5454 	mov.w	r4, r4, lsr #21
    42d2:	ebd4 5555 	rsbs	r5, r4, r5, lsr #21
    42d6:	bfb8      	it	lt
    42d8:	426d      	neglt	r5, r5
    42da:	dd0c      	ble.n	42f6 <__adddf3+0x52>
    42dc:	442c      	add	r4, r5
    42de:	ea80 0202 	eor.w	r2, r0, r2
    42e2:	ea81 0303 	eor.w	r3, r1, r3
    42e6:	ea82 0000 	eor.w	r0, r2, r0
    42ea:	ea83 0101 	eor.w	r1, r3, r1
    42ee:	ea80 0202 	eor.w	r2, r0, r2
    42f2:	ea81 0303 	eor.w	r3, r1, r3
    42f6:	2d36      	cmp	r5, #54	; 0x36
    42f8:	bf88      	it	hi
    42fa:	bd30      	pophi	{r4, r5, pc}
    42fc:	f011 4f00 	tst.w	r1, #2147483648	; 0x80000000
    4300:	ea4f 3101 	mov.w	r1, r1, lsl #12
    4304:	f44f 1c80 	mov.w	ip, #1048576	; 0x100000
    4308:	ea4c 3111 	orr.w	r1, ip, r1, lsr #12
    430c:	d002      	beq.n	4314 <__adddf3+0x70>
    430e:	4240      	negs	r0, r0
    4310:	eb61 0141 	sbc.w	r1, r1, r1, lsl #1
    4314:	f013 4f00 	tst.w	r3, #2147483648	; 0x80000000
    4318:	ea4f 3303 	mov.w	r3, r3, lsl #12
    431c:	ea4c 3313 	orr.w	r3, ip, r3, lsr #12
    4320:	d002      	beq.n	4328 <__adddf3+0x84>
    4322:	4252      	negs	r2, r2
    4324:	eb63 0343 	sbc.w	r3, r3, r3, lsl #1
    4328:	ea94 0f05 	teq	r4, r5
    432c:	f000 80a7 	beq.w	447e <__adddf3+0x1da>
    4330:	f1a4 0401 	sub.w	r4, r4, #1
    4334:	f1d5 0e20 	rsbs	lr, r5, #32
    4338:	db0d      	blt.n	4356 <__adddf3+0xb2>
    433a:	fa02 fc0e 	lsl.w	ip, r2, lr
    433e:	fa22 f205 	lsr.w	r2, r2, r5
    4342:	1880      	adds	r0, r0, r2
    4344:	f141 0100 	adc.w	r1, r1, #0
    4348:	fa03 f20e 	lsl.w	r2, r3, lr
    434c:	1880      	adds	r0, r0, r2
    434e:	fa43 f305 	asr.w	r3, r3, r5
    4352:	4159      	adcs	r1, r3
    4354:	e00e      	b.n	4374 <__adddf3+0xd0>
    4356:	f1a5 0520 	sub.w	r5, r5, #32
    435a:	f10e 0e20 	add.w	lr, lr, #32
    435e:	2a01      	cmp	r2, #1
    4360:	fa03 fc0e 	lsl.w	ip, r3, lr
    4364:	bf28      	it	cs
    4366:	f04c 0c02 	orrcs.w	ip, ip, #2
    436a:	fa43 f305 	asr.w	r3, r3, r5
    436e:	18c0      	adds	r0, r0, r3
    4370:	eb51 71e3 	adcs.w	r1, r1, r3, asr #31
    4374:	f001 4500 	and.w	r5, r1, #2147483648	; 0x80000000
    4378:	d507      	bpl.n	438a <__adddf3+0xe6>
    437a:	f04f 0e00 	mov.w	lr, #0
    437e:	f1dc 0c00 	rsbs	ip, ip, #0
    4382:	eb7e 0000 	sbcs.w	r0, lr, r0
    4386:	eb6e 0101 	sbc.w	r1, lr, r1
    438a:	f5b1 1f80 	cmp.w	r1, #1048576	; 0x100000
    438e:	d31b      	bcc.n	43c8 <__adddf3+0x124>
    4390:	f5b1 1f00 	cmp.w	r1, #2097152	; 0x200000
    4394:	d30c      	bcc.n	43b0 <__adddf3+0x10c>
    4396:	0849      	lsrs	r1, r1, #1
    4398:	ea5f 0030 	movs.w	r0, r0, rrx
    439c:	ea4f 0c3c 	mov.w	ip, ip, rrx
    43a0:	f104 0401 	add.w	r4, r4, #1
    43a4:	ea4f 5244 	mov.w	r2, r4, lsl #21
    43a8:	f512 0f80 	cmn.w	r2, #4194304	; 0x400000
    43ac:	f080 809a 	bcs.w	44e4 <__adddf3+0x240>
    43b0:	f1bc 4f00 	cmp.w	ip, #2147483648	; 0x80000000
    43b4:	bf08      	it	eq
    43b6:	ea5f 0c50 	movseq.w	ip, r0, lsr #1
    43ba:	f150 0000 	adcs.w	r0, r0, #0
    43be:	eb41 5104 	adc.w	r1, r1, r4, lsl #20
    43c2:	ea41 0105 	orr.w	r1, r1, r5
    43c6:	bd30      	pop	{r4, r5, pc}
    43c8:	ea5f 0c4c 	movs.w	ip, ip, lsl #1
    43cc:	4140      	adcs	r0, r0
    43ce:	eb41 0101 	adc.w	r1, r1, r1
    43d2:	f411 1f80 	tst.w	r1, #1048576	; 0x100000
    43d6:	f1a4 0401 	sub.w	r4, r4, #1
    43da:	d1e9      	bne.n	43b0 <__adddf3+0x10c>
    43dc:	f091 0f00 	teq	r1, #0
    43e0:	bf04      	itt	eq
    43e2:	4601      	moveq	r1, r0
    43e4:	2000      	moveq	r0, #0
    43e6:	fab1 f381 	clz	r3, r1
    43ea:	bf08      	it	eq
    43ec:	3320      	addeq	r3, #32
    43ee:	f1a3 030b 	sub.w	r3, r3, #11
    43f2:	f1b3 0220 	subs.w	r2, r3, #32
    43f6:	da0c      	bge.n	4412 <__adddf3+0x16e>
    43f8:	320c      	adds	r2, #12
    43fa:	dd08      	ble.n	440e <__adddf3+0x16a>
    43fc:	f102 0c14 	add.w	ip, r2, #20
    4400:	f1c2 020c 	rsb	r2, r2, #12
    4404:	fa01 f00c 	lsl.w	r0, r1, ip
    4408:	fa21 f102 	lsr.w	r1, r1, r2
    440c:	e00c      	b.n	4428 <__adddf3+0x184>
    440e:	f102 0214 	add.w	r2, r2, #20
    4412:	bfd8      	it	le
    4414:	f1c2 0c20 	rsble	ip, r2, #32
    4418:	fa01 f102 	lsl.w	r1, r1, r2
    441c:	fa20 fc0c 	lsr.w	ip, r0, ip
    4420:	bfdc      	itt	le
    4422:	ea41 010c 	orrle.w	r1, r1, ip
    4426:	4090      	lslle	r0, r2
    4428:	1ae4      	subs	r4, r4, r3
    442a:	bfa2      	ittt	ge
    442c:	eb01 5104 	addge.w	r1, r1, r4, lsl #20
    4430:	4329      	orrge	r1, r5
    4432:	bd30      	popge	{r4, r5, pc}
    4434:	ea6f 0404 	mvn.w	r4, r4
    4438:	3c1f      	subs	r4, #31
    443a:	da1c      	bge.n	4476 <__adddf3+0x1d2>
    443c:	340c      	adds	r4, #12
    443e:	dc0e      	bgt.n	445e <__adddf3+0x1ba>
    4440:	f104 0414 	add.w	r4, r4, #20
    4444:	f1c4 0220 	rsb	r2, r4, #32
    4448:	fa20 f004 	lsr.w	r0, r0, r4
    444c:	fa01 f302 	lsl.w	r3, r1, r2
    4450:	ea40 0003 	orr.w	r0, r0, r3
    4454:	fa21 f304 	lsr.w	r3, r1, r4
    4458:	ea45 0103 	orr.w	r1, r5, r3
    445c:	bd30      	pop	{r4, r5, pc}
    445e:	f1c4 040c 	rsb	r4, r4, #12
    4462:	f1c4 0220 	rsb	r2, r4, #32
    4466:	fa20 f002 	lsr.w	r0, r0, r2
    446a:	fa01 f304 	lsl.w	r3, r1, r4
    446e:	ea40 0003 	orr.w	r0, r0, r3
    4472:	4629      	mov	r1, r5
    4474:	bd30      	pop	{r4, r5, pc}
    4476:	fa21 f004 	lsr.w	r0, r1, r4
    447a:	4629      	mov	r1, r5
    447c:	bd30      	pop	{r4, r5, pc}
    447e:	f094 0f00 	teq	r4, #0
    4482:	f483 1380 	eor.w	r3, r3, #1048576	; 0x100000
    4486:	bf06      	itte	eq
    4488:	f481 1180 	eoreq.w	r1, r1, #1048576	; 0x100000
    448c:	3401      	addeq	r4, #1
    448e:	3d01      	subne	r5, #1
    4490:	e74e      	b.n	4330 <__adddf3+0x8c>
    4492:	ea7f 5c64 	mvns.w	ip, r4, asr #21
    4496:	bf18      	it	ne
    4498:	ea7f 5c65 	mvnsne.w	ip, r5, asr #21
    449c:	d029      	beq.n	44f2 <__adddf3+0x24e>
    449e:	ea94 0f05 	teq	r4, r5
    44a2:	bf08      	it	eq
    44a4:	ea90 0f02 	teqeq	r0, r2
    44a8:	d005      	beq.n	44b6 <__adddf3+0x212>
    44aa:	ea54 0c00 	orrs.w	ip, r4, r0
    44ae:	bf04      	itt	eq
    44b0:	4619      	moveq	r1, r3
    44b2:	4610      	moveq	r0, r2
    44b4:	bd30      	pop	{r4, r5, pc}
    44b6:	ea91 0f03 	teq	r1, r3
    44ba:	bf1e      	ittt	ne
    44bc:	2100      	movne	r1, #0
    44be:	2000      	movne	r0, #0
    44c0:	bd30      	popne	{r4, r5, pc}
    44c2:	ea5f 5c54 	movs.w	ip, r4, lsr #21
    44c6:	d105      	bne.n	44d4 <__adddf3+0x230>
    44c8:	0040      	lsls	r0, r0, #1
    44ca:	4149      	adcs	r1, r1
    44cc:	bf28      	it	cs
    44ce:	f041 4100 	orrcs.w	r1, r1, #2147483648	; 0x80000000
    44d2:	bd30      	pop	{r4, r5, pc}
    44d4:	f514 0480 	adds.w	r4, r4, #4194304	; 0x400000
    44d8:	bf3c      	itt	cc
    44da:	f501 1180 	addcc.w	r1, r1, #1048576	; 0x100000
    44de:	bd30      	popcc	{r4, r5, pc}
    44e0:	f001 4500 	and.w	r5, r1, #2147483648	; 0x80000000
    44e4:	f045 41fe 	orr.w	r1, r5, #2130706432	; 0x7f000000
    44e8:	f441 0170 	orr.w	r1, r1, #15728640	; 0xf00000
    44ec:	f04f 0000 	mov.w	r0, #0
    44f0:	bd30      	pop	{r4, r5, pc}
    44f2:	ea7f 5c64 	mvns.w	ip, r4, asr #21
    44f6:	bf1a      	itte	ne
    44f8:	4619      	movne	r1, r3
    44fa:	4610      	movne	r0, r2
    44fc:	ea7f 5c65 	mvnseq.w	ip, r5, asr #21
    4500:	bf1c      	itt	ne
    4502:	460b      	movne	r3, r1
    4504:	4602      	movne	r2, r0
    4506:	ea50 3401 	orrs.w	r4, r0, r1, lsl #12
    450a:	bf06      	itte	eq
    450c:	ea52 3503 	orrseq.w	r5, r2, r3, lsl #12
    4510:	ea91 0f03 	teqeq	r1, r3
    4514:	f441 2100 	orrne.w	r1, r1, #524288	; 0x80000
    4518:	bd30      	pop	{r4, r5, pc}
    451a:	bf00      	nop

0000451c <__aeabi_ui2d>:
    451c:	f090 0f00 	teq	r0, #0
    4520:	bf04      	itt	eq
    4522:	2100      	moveq	r1, #0
    4524:	4770      	bxeq	lr
    4526:	b530      	push	{r4, r5, lr}
    4528:	f44f 6480 	mov.w	r4, #1024	; 0x400
    452c:	f104 0432 	add.w	r4, r4, #50	; 0x32
    4530:	f04f 0500 	mov.w	r5, #0
    4534:	f04f 0100 	mov.w	r1, #0
    4538:	e750      	b.n	43dc <__adddf3+0x138>
    453a:	bf00      	nop

0000453c <__aeabi_i2d>:
    453c:	f090 0f00 	teq	r0, #0
    4540:	bf04      	itt	eq
    4542:	2100      	moveq	r1, #0
    4544:	4770      	bxeq	lr
    4546:	b530      	push	{r4, r5, lr}
    4548:	f44f 6480 	mov.w	r4, #1024	; 0x400
    454c:	f104 0432 	add.w	r4, r4, #50	; 0x32
    4550:	f010 4500 	ands.w	r5, r0, #2147483648	; 0x80000000
    4554:	bf48      	it	mi
    4556:	4240      	negmi	r0, r0
    4558:	f04f 0100 	mov.w	r1, #0
    455c:	e73e      	b.n	43dc <__adddf3+0x138>
    455e:	bf00      	nop

00004560 <__aeabi_f2d>:
    4560:	0042      	lsls	r2, r0, #1
    4562:	ea4f 01e2 	mov.w	r1, r2, asr #3
    4566:	ea4f 0131 	mov.w	r1, r1, rrx
    456a:	ea4f 7002 	mov.w	r0, r2, lsl #28
    456e:	bf1f      	itttt	ne
    4570:	f012 437f 	andsne.w	r3, r2, #4278190080	; 0xff000000
    4574:	f093 4f7f 	teqne	r3, #4278190080	; 0xff000000
    4578:	f081 5160 	eorne.w	r1, r1, #939524096	; 0x38000000
    457c:	4770      	bxne	lr
    457e:	f092 0f00 	teq	r2, #0
    4582:	bf14      	ite	ne
    4584:	f093 4f7f 	teqne	r3, #4278190080	; 0xff000000
    4588:	4770      	bxeq	lr
    458a:	b530      	push	{r4, r5, lr}
    458c:	f44f 7460 	mov.w	r4, #896	; 0x380
    4590:	f001 4500 	and.w	r5, r1, #2147483648	; 0x80000000
    4594:	f021 4100 	bic.w	r1, r1, #2147483648	; 0x80000000
    4598:	e720      	b.n	43dc <__adddf3+0x138>
    459a:	bf00      	nop

0000459c <__aeabi_ul2d>:
    459c:	ea50 0201 	orrs.w	r2, r0, r1
    45a0:	bf08      	it	eq
    45a2:	4770      	bxeq	lr
    45a4:	b530      	push	{r4, r5, lr}
    45a6:	f04f 0500 	mov.w	r5, #0
    45aa:	e00a      	b.n	45c2 <__aeabi_l2d+0x16>

000045ac <__aeabi_l2d>:
    45ac:	ea50 0201 	orrs.w	r2, r0, r1
    45b0:	bf08      	it	eq
    45b2:	4770      	bxeq	lr
    45b4:	b530      	push	{r4, r5, lr}
    45b6:	f011 4500 	ands.w	r5, r1, #2147483648	; 0x80000000
    45ba:	d502      	bpl.n	45c2 <__aeabi_l2d+0x16>
    45bc:	4240      	negs	r0, r0
    45be:	eb61 0141 	sbc.w	r1, r1, r1, lsl #1
    45c2:	f44f 6480 	mov.w	r4, #1024	; 0x400
    45c6:	f104 0432 	add.w	r4, r4, #50	; 0x32
    45ca:	ea5f 5c91 	movs.w	ip, r1, lsr #22
    45ce:	f43f aedc 	beq.w	438a <__adddf3+0xe6>
    45d2:	f04f 0203 	mov.w	r2, #3
    45d6:	ea5f 0cdc 	movs.w	ip, ip, lsr #3
    45da:	bf18      	it	ne
    45dc:	3203      	addne	r2, #3
    45de:	ea5f 0cdc 	movs.w	ip, ip, lsr #3
    45e2:	bf18      	it	ne
    45e4:	3203      	addne	r2, #3
    45e6:	eb02 02dc 	add.w	r2, r2, ip, lsr #3
    45ea:	f1c2 0320 	rsb	r3, r2, #32
    45ee:	fa00 fc03 	lsl.w	ip, r0, r3
    45f2:	fa20 f002 	lsr.w	r0, r0, r2
    45f6:	fa01 fe03 	lsl.w	lr, r1, r3
    45fa:	ea40 000e 	orr.w	r0, r0, lr
    45fe:	fa21 f102 	lsr.w	r1, r1, r2
    4602:	4414      	add	r4, r2
    4604:	e6c1      	b.n	438a <__adddf3+0xe6>
    4606:	bf00      	nop

00004608 <__aeabi_dmul>:
    4608:	b570      	push	{r4, r5, r6, lr}
    460a:	f04f 0cff 	mov.w	ip, #255	; 0xff
    460e:	f44c 6ce0 	orr.w	ip, ip, #1792	; 0x700
    4612:	ea1c 5411 	ands.w	r4, ip, r1, lsr #20
    4616:	bf1d      	ittte	ne
    4618:	ea1c 5513 	andsne.w	r5, ip, r3, lsr #20
    461c:	ea94 0f0c 	teqne	r4, ip
    4620:	ea95 0f0c 	teqne	r5, ip
    4624:	f000 f8de 	bleq	47e4 <__aeabi_dmul+0x1dc>
    4628:	442c      	add	r4, r5
    462a:	ea81 0603 	eor.w	r6, r1, r3
    462e:	ea21 514c 	bic.w	r1, r1, ip, lsl #21
    4632:	ea23 534c 	bic.w	r3, r3, ip, lsl #21
    4636:	ea50 3501 	orrs.w	r5, r0, r1, lsl #12
    463a:	bf18      	it	ne
    463c:	ea52 3503 	orrsne.w	r5, r2, r3, lsl #12
    4640:	f441 1180 	orr.w	r1, r1, #1048576	; 0x100000
    4644:	f443 1380 	orr.w	r3, r3, #1048576	; 0x100000
    4648:	d038      	beq.n	46bc <__aeabi_dmul+0xb4>
    464a:	fba0 ce02 	umull	ip, lr, r0, r2
    464e:	f04f 0500 	mov.w	r5, #0
    4652:	fbe1 e502 	umlal	lr, r5, r1, r2
    4656:	f006 4200 	and.w	r2, r6, #2147483648	; 0x80000000
    465a:	fbe0 e503 	umlal	lr, r5, r0, r3
    465e:	f04f 0600 	mov.w	r6, #0
    4662:	fbe1 5603 	umlal	r5, r6, r1, r3
    4666:	f09c 0f00 	teq	ip, #0
    466a:	bf18      	it	ne
    466c:	f04e 0e01 	orrne.w	lr, lr, #1
    4670:	f1a4 04ff 	sub.w	r4, r4, #255	; 0xff
    4674:	f5b6 7f00 	cmp.w	r6, #512	; 0x200
    4678:	f564 7440 	sbc.w	r4, r4, #768	; 0x300
    467c:	d204      	bcs.n	4688 <__aeabi_dmul+0x80>
    467e:	ea5f 0e4e 	movs.w	lr, lr, lsl #1
    4682:	416d      	adcs	r5, r5
    4684:	eb46 0606 	adc.w	r6, r6, r6
    4688:	ea42 21c6 	orr.w	r1, r2, r6, lsl #11
    468c:	ea41 5155 	orr.w	r1, r1, r5, lsr #21
    4690:	ea4f 20c5 	mov.w	r0, r5, lsl #11
    4694:	ea40 505e 	orr.w	r0, r0, lr, lsr #21
    4698:	ea4f 2ece 	mov.w	lr, lr, lsl #11
    469c:	f1b4 0cfd 	subs.w	ip, r4, #253	; 0xfd
    46a0:	bf88      	it	hi
    46a2:	f5bc 6fe0 	cmphi.w	ip, #1792	; 0x700
    46a6:	d81e      	bhi.n	46e6 <__aeabi_dmul+0xde>
    46a8:	f1be 4f00 	cmp.w	lr, #2147483648	; 0x80000000
    46ac:	bf08      	it	eq
    46ae:	ea5f 0e50 	movseq.w	lr, r0, lsr #1
    46b2:	f150 0000 	adcs.w	r0, r0, #0
    46b6:	eb41 5104 	adc.w	r1, r1, r4, lsl #20
    46ba:	bd70      	pop	{r4, r5, r6, pc}
    46bc:	f006 4600 	and.w	r6, r6, #2147483648	; 0x80000000
    46c0:	ea46 0101 	orr.w	r1, r6, r1
    46c4:	ea40 0002 	orr.w	r0, r0, r2
    46c8:	ea81 0103 	eor.w	r1, r1, r3
    46cc:	ebb4 045c 	subs.w	r4, r4, ip, lsr #1
    46d0:	bfc2      	ittt	gt
    46d2:	ebd4 050c 	rsbsgt	r5, r4, ip
    46d6:	ea41 5104 	orrgt.w	r1, r1, r4, lsl #20
    46da:	bd70      	popgt	{r4, r5, r6, pc}
    46dc:	f441 1180 	orr.w	r1, r1, #1048576	; 0x100000
    46e0:	f04f 0e00 	mov.w	lr, #0
    46e4:	3c01      	subs	r4, #1
    46e6:	f300 80ab 	bgt.w	4840 <__aeabi_dmul+0x238>
    46ea:	f114 0f36 	cmn.w	r4, #54	; 0x36
    46ee:	bfde      	ittt	le
    46f0:	2000      	movle	r0, #0
    46f2:	f001 4100 	andle.w	r1, r1, #2147483648	; 0x80000000
    46f6:	bd70      	pople	{r4, r5, r6, pc}
    46f8:	f1c4 0400 	rsb	r4, r4, #0
    46fc:	3c20      	subs	r4, #32
    46fe:	da35      	bge.n	476c <__aeabi_dmul+0x164>
    4700:	340c      	adds	r4, #12
    4702:	dc1b      	bgt.n	473c <__aeabi_dmul+0x134>
    4704:	f104 0414 	add.w	r4, r4, #20
    4708:	f1c4 0520 	rsb	r5, r4, #32
    470c:	fa00 f305 	lsl.w	r3, r0, r5
    4710:	fa20 f004 	lsr.w	r0, r0, r4
    4714:	fa01 f205 	lsl.w	r2, r1, r5
    4718:	ea40 0002 	orr.w	r0, r0, r2
    471c:	f001 4200 	and.w	r2, r1, #2147483648	; 0x80000000
    4720:	f021 4100 	bic.w	r1, r1, #2147483648	; 0x80000000
    4724:	eb10 70d3 	adds.w	r0, r0, r3, lsr #31
    4728:	fa21 f604 	lsr.w	r6, r1, r4
    472c:	eb42 0106 	adc.w	r1, r2, r6
    4730:	ea5e 0e43 	orrs.w	lr, lr, r3, lsl #1
    4734:	bf08      	it	eq
    4736:	ea20 70d3 	biceq.w	r0, r0, r3, lsr #31
    473a:	bd70      	pop	{r4, r5, r6, pc}
    473c:	f1c4 040c 	rsb	r4, r4, #12
    4740:	f1c4 0520 	rsb	r5, r4, #32
    4744:	fa00 f304 	lsl.w	r3, r0, r4
    4748:	fa20 f005 	lsr.w	r0, r0, r5
    474c:	fa01 f204 	lsl.w	r2, r1, r4
    4750:	ea40 0002 	orr.w	r0, r0, r2
    4754:	f001 4100 	and.w	r1, r1, #2147483648	; 0x80000000
    4758:	eb10 70d3 	adds.w	r0, r0, r3, lsr #31
    475c:	f141 0100 	adc.w	r1, r1, #0
    4760:	ea5e 0e43 	orrs.w	lr, lr, r3, lsl #1
    4764:	bf08      	it	eq
    4766:	ea20 70d3 	biceq.w	r0, r0, r3, lsr #31
    476a:	bd70      	pop	{r4, r5, r6, pc}
    476c:	f1c4 0520 	rsb	r5, r4, #32
    4770:	fa00 f205 	lsl.w	r2, r0, r5
    4774:	ea4e 0e02 	orr.w	lr, lr, r2
    4778:	fa20 f304 	lsr.w	r3, r0, r4
    477c:	fa01 f205 	lsl.w	r2, r1, r5
    4780:	ea43 0302 	orr.w	r3, r3, r2
    4784:	fa21 f004 	lsr.w	r0, r1, r4
    4788:	f001 4100 	and.w	r1, r1, #2147483648	; 0x80000000
    478c:	fa21 f204 	lsr.w	r2, r1, r4
    4790:	ea20 0002 	bic.w	r0, r0, r2
    4794:	eb00 70d3 	add.w	r0, r0, r3, lsr #31
    4798:	ea5e 0e43 	orrs.w	lr, lr, r3, lsl #1
    479c:	bf08      	it	eq
    479e:	ea20 70d3 	biceq.w	r0, r0, r3, lsr #31
    47a2:	bd70      	pop	{r4, r5, r6, pc}
    47a4:	f094 0f00 	teq	r4, #0
    47a8:	d10f      	bne.n	47ca <__aeabi_dmul+0x1c2>
    47aa:	f001 4600 	and.w	r6, r1, #2147483648	; 0x80000000
    47ae:	0040      	lsls	r0, r0, #1
    47b0:	eb41 0101 	adc.w	r1, r1, r1
    47b4:	f411 1f80 	tst.w	r1, #1048576	; 0x100000
    47b8:	bf08      	it	eq
    47ba:	3c01      	subeq	r4, #1
    47bc:	d0f7      	beq.n	47ae <__aeabi_dmul+0x1a6>
    47be:	ea41 0106 	orr.w	r1, r1, r6
    47c2:	f095 0f00 	teq	r5, #0
    47c6:	bf18      	it	ne
    47c8:	4770      	bxne	lr
    47ca:	f003 4600 	and.w	r6, r3, #2147483648	; 0x80000000
    47ce:	0052      	lsls	r2, r2, #1
    47d0:	eb43 0303 	adc.w	r3, r3, r3
    47d4:	f413 1f80 	tst.w	r3, #1048576	; 0x100000
    47d8:	bf08      	it	eq
    47da:	3d01      	subeq	r5, #1
    47dc:	d0f7      	beq.n	47ce <__aeabi_dmul+0x1c6>
    47de:	ea43 0306 	orr.w	r3, r3, r6
    47e2:	4770      	bx	lr
    47e4:	ea94 0f0c 	teq	r4, ip
    47e8:	ea0c 5513 	and.w	r5, ip, r3, lsr #20
    47ec:	bf18      	it	ne
    47ee:	ea95 0f0c 	teqne	r5, ip
    47f2:	d00c      	beq.n	480e <__aeabi_dmul+0x206>
    47f4:	ea50 0641 	orrs.w	r6, r0, r1, lsl #1
    47f8:	bf18      	it	ne
    47fa:	ea52 0643 	orrsne.w	r6, r2, r3, lsl #1
    47fe:	d1d1      	bne.n	47a4 <__aeabi_dmul+0x19c>
    4800:	ea81 0103 	eor.w	r1, r1, r3
    4804:	f001 4100 	and.w	r1, r1, #2147483648	; 0x80000000
    4808:	f04f 0000 	mov.w	r0, #0
    480c:	bd70      	pop	{r4, r5, r6, pc}
    480e:	ea50 0641 	orrs.w	r6, r0, r1, lsl #1
    4812:	bf06      	itte	eq
    4814:	4610      	moveq	r0, r2
    4816:	4619      	moveq	r1, r3
    4818:	ea52 0643 	orrsne.w	r6, r2, r3, lsl #1
    481c:	d019      	beq.n	4852 <__aeabi_dmul+0x24a>
    481e:	ea94 0f0c 	teq	r4, ip
    4822:	d102      	bne.n	482a <__aeabi_dmul+0x222>
    4824:	ea50 3601 	orrs.w	r6, r0, r1, lsl #12
    4828:	d113      	bne.n	4852 <__aeabi_dmul+0x24a>
    482a:	ea95 0f0c 	teq	r5, ip
    482e:	d105      	bne.n	483c <__aeabi_dmul+0x234>
    4830:	ea52 3603 	orrs.w	r6, r2, r3, lsl #12
    4834:	bf1c      	itt	ne
    4836:	4610      	movne	r0, r2
    4838:	4619      	movne	r1, r3
    483a:	d10a      	bne.n	4852 <__aeabi_dmul+0x24a>
    483c:	ea81 0103 	eor.w	r1, r1, r3
    4840:	f001 4100 	and.w	r1, r1, #2147483648	; 0x80000000
    4844:	f041 41fe 	orr.w	r1, r1, #2130706432	; 0x7f000000
    4848:	f441 0170 	orr.w	r1, r1, #15728640	; 0xf00000
    484c:	f04f 0000 	mov.w	r0, #0
    4850:	bd70      	pop	{r4, r5, r6, pc}
    4852:	f041 41fe 	orr.w	r1, r1, #2130706432	; 0x7f000000
    4856:	f441 0178 	orr.w	r1, r1, #16252928	; 0xf80000
    485a:	bd70      	pop	{r4, r5, r6, pc}

0000485c <__aeabi_ddiv>:
    485c:	b570      	push	{r4, r5, r6, lr}
    485e:	f04f 0cff 	mov.w	ip, #255	; 0xff
    4862:	f44c 6ce0 	orr.w	ip, ip, #1792	; 0x700
    4866:	ea1c 5411 	ands.w	r4, ip, r1, lsr #20
    486a:	bf1d      	ittte	ne
    486c:	ea1c 5513 	andsne.w	r5, ip, r3, lsr #20
    4870:	ea94 0f0c 	teqne	r4, ip
    4874:	ea95 0f0c 	teqne	r5, ip
    4878:	f000 f8a7 	bleq	49ca <__aeabi_ddiv+0x16e>
    487c:	eba4 0405 	sub.w	r4, r4, r5
    4880:	ea81 0e03 	eor.w	lr, r1, r3
    4884:	ea52 3503 	orrs.w	r5, r2, r3, lsl #12
    4888:	ea4f 3101 	mov.w	r1, r1, lsl #12
    488c:	f000 8088 	beq.w	49a0 <__aeabi_ddiv+0x144>
    4890:	ea4f 3303 	mov.w	r3, r3, lsl #12
    4894:	f04f 5580 	mov.w	r5, #268435456	; 0x10000000
    4898:	ea45 1313 	orr.w	r3, r5, r3, lsr #4
    489c:	ea43 6312 	orr.w	r3, r3, r2, lsr #24
    48a0:	ea4f 2202 	mov.w	r2, r2, lsl #8
    48a4:	ea45 1511 	orr.w	r5, r5, r1, lsr #4
    48a8:	ea45 6510 	orr.w	r5, r5, r0, lsr #24
    48ac:	ea4f 2600 	mov.w	r6, r0, lsl #8
    48b0:	f00e 4100 	and.w	r1, lr, #2147483648	; 0x80000000
    48b4:	429d      	cmp	r5, r3
    48b6:	bf08      	it	eq
    48b8:	4296      	cmpeq	r6, r2
    48ba:	f144 04fd 	adc.w	r4, r4, #253	; 0xfd
    48be:	f504 7440 	add.w	r4, r4, #768	; 0x300
    48c2:	d202      	bcs.n	48ca <__aeabi_ddiv+0x6e>
    48c4:	085b      	lsrs	r3, r3, #1
    48c6:	ea4f 0232 	mov.w	r2, r2, rrx
    48ca:	1ab6      	subs	r6, r6, r2
    48cc:	eb65 0503 	sbc.w	r5, r5, r3
    48d0:	085b      	lsrs	r3, r3, #1
    48d2:	ea4f 0232 	mov.w	r2, r2, rrx
    48d6:	f44f 1080 	mov.w	r0, #1048576	; 0x100000
    48da:	f44f 2c00 	mov.w	ip, #524288	; 0x80000
    48de:	ebb6 0e02 	subs.w	lr, r6, r2
    48e2:	eb75 0e03 	sbcs.w	lr, r5, r3
    48e6:	bf22      	ittt	cs
    48e8:	1ab6      	subcs	r6, r6, r2
    48ea:	4675      	movcs	r5, lr
    48ec:	ea40 000c 	orrcs.w	r0, r0, ip
    48f0:	085b      	lsrs	r3, r3, #1
    48f2:	ea4f 0232 	mov.w	r2, r2, rrx
    48f6:	ebb6 0e02 	subs.w	lr, r6, r2
    48fa:	eb75 0e03 	sbcs.w	lr, r5, r3
    48fe:	bf22      	ittt	cs
    4900:	1ab6      	subcs	r6, r6, r2
    4902:	4675      	movcs	r5, lr
    4904:	ea40 005c 	orrcs.w	r0, r0, ip, lsr #1
    4908:	085b      	lsrs	r3, r3, #1
    490a:	ea4f 0232 	mov.w	r2, r2, rrx
    490e:	ebb6 0e02 	subs.w	lr, r6, r2
    4912:	eb75 0e03 	sbcs.w	lr, r5, r3
    4916:	bf22      	ittt	cs
    4918:	1ab6      	subcs	r6, r6, r2
    491a:	4675      	movcs	r5, lr
    491c:	ea40 009c 	orrcs.w	r0, r0, ip, lsr #2
    4920:	085b      	lsrs	r3, r3, #1
    4922:	ea4f 0232 	mov.w	r2, r2, rrx
    4926:	ebb6 0e02 	subs.w	lr, r6, r2
    492a:	eb75 0e03 	sbcs.w	lr, r5, r3
    492e:	bf22      	ittt	cs
    4930:	1ab6      	subcs	r6, r6, r2
    4932:	4675      	movcs	r5, lr
    4934:	ea40 00dc 	orrcs.w	r0, r0, ip, lsr #3
    4938:	ea55 0e06 	orrs.w	lr, r5, r6
    493c:	d018      	beq.n	4970 <__aeabi_ddiv+0x114>
    493e:	ea4f 1505 	mov.w	r5, r5, lsl #4
    4942:	ea45 7516 	orr.w	r5, r5, r6, lsr #28
    4946:	ea4f 1606 	mov.w	r6, r6, lsl #4
    494a:	ea4f 03c3 	mov.w	r3, r3, lsl #3
    494e:	ea43 7352 	orr.w	r3, r3, r2, lsr #29
    4952:	ea4f 02c2 	mov.w	r2, r2, lsl #3
    4956:	ea5f 1c1c 	movs.w	ip, ip, lsr #4
    495a:	d1c0      	bne.n	48de <__aeabi_ddiv+0x82>
    495c:	f411 1f80 	tst.w	r1, #1048576	; 0x100000
    4960:	d10b      	bne.n	497a <__aeabi_ddiv+0x11e>
    4962:	ea41 0100 	orr.w	r1, r1, r0
    4966:	f04f 0000 	mov.w	r0, #0
    496a:	f04f 4c00 	mov.w	ip, #2147483648	; 0x80000000
    496e:	e7b6      	b.n	48de <__aeabi_ddiv+0x82>
    4970:	f411 1f80 	tst.w	r1, #1048576	; 0x100000
    4974:	bf04      	itt	eq
    4976:	4301      	orreq	r1, r0
    4978:	2000      	moveq	r0, #0
    497a:	f1b4 0cfd 	subs.w	ip, r4, #253	; 0xfd
    497e:	bf88      	it	hi
    4980:	f5bc 6fe0 	cmphi.w	ip, #1792	; 0x700
    4984:	f63f aeaf 	bhi.w	46e6 <__aeabi_dmul+0xde>
    4988:	ebb5 0c03 	subs.w	ip, r5, r3
    498c:	bf04      	itt	eq
    498e:	ebb6 0c02 	subseq.w	ip, r6, r2
    4992:	ea5f 0c50 	movseq.w	ip, r0, lsr #1
    4996:	f150 0000 	adcs.w	r0, r0, #0
    499a:	eb41 5104 	adc.w	r1, r1, r4, lsl #20
    499e:	bd70      	pop	{r4, r5, r6, pc}
    49a0:	f00e 4e00 	and.w	lr, lr, #2147483648	; 0x80000000
    49a4:	ea4e 3111 	orr.w	r1, lr, r1, lsr #12
    49a8:	eb14 045c 	adds.w	r4, r4, ip, lsr #1
    49ac:	bfc2      	ittt	gt
    49ae:	ebd4 050c 	rsbsgt	r5, r4, ip
    49b2:	ea41 5104 	orrgt.w	r1, r1, r4, lsl #20
    49b6:	bd70      	popgt	{r4, r5, r6, pc}
    49b8:	f441 1180 	orr.w	r1, r1, #1048576	; 0x100000
    49bc:	f04f 0e00 	mov.w	lr, #0
    49c0:	3c01      	subs	r4, #1
    49c2:	e690      	b.n	46e6 <__aeabi_dmul+0xde>
    49c4:	ea45 0e06 	orr.w	lr, r5, r6
    49c8:	e68d      	b.n	46e6 <__aeabi_dmul+0xde>
    49ca:	ea0c 5513 	and.w	r5, ip, r3, lsr #20
    49ce:	ea94 0f0c 	teq	r4, ip
    49d2:	bf08      	it	eq
    49d4:	ea95 0f0c 	teqeq	r5, ip
    49d8:	f43f af3b 	beq.w	4852 <__aeabi_dmul+0x24a>
    49dc:	ea94 0f0c 	teq	r4, ip
    49e0:	d10a      	bne.n	49f8 <__aeabi_ddiv+0x19c>
    49e2:	ea50 3401 	orrs.w	r4, r0, r1, lsl #12
    49e6:	f47f af34 	bne.w	4852 <__aeabi_dmul+0x24a>
    49ea:	ea95 0f0c 	teq	r5, ip
    49ee:	f47f af25 	bne.w	483c <__aeabi_dmul+0x234>
    49f2:	4610      	mov	r0, r2
    49f4:	4619      	mov	r1, r3
    49f6:	e72c      	b.n	4852 <__aeabi_dmul+0x24a>
    49f8:	ea95 0f0c 	teq	r5, ip
    49fc:	d106      	bne.n	4a0c <__aeabi_ddiv+0x1b0>
    49fe:	ea52 3503 	orrs.w	r5, r2, r3, lsl #12
    4a02:	f43f aefd 	beq.w	4800 <__aeabi_dmul+0x1f8>
    4a06:	4610      	mov	r0, r2
    4a08:	4619      	mov	r1, r3
    4a0a:	e722      	b.n	4852 <__aeabi_dmul+0x24a>
    4a0c:	ea50 0641 	orrs.w	r6, r0, r1, lsl #1
    4a10:	bf18      	it	ne
    4a12:	ea52 0643 	orrsne.w	r6, r2, r3, lsl #1
    4a16:	f47f aec5 	bne.w	47a4 <__aeabi_dmul+0x19c>
    4a1a:	ea50 0441 	orrs.w	r4, r0, r1, lsl #1
    4a1e:	f47f af0d 	bne.w	483c <__aeabi_dmul+0x234>
    4a22:	ea52 0543 	orrs.w	r5, r2, r3, lsl #1
    4a26:	f47f aeeb 	bne.w	4800 <__aeabi_dmul+0x1f8>
    4a2a:	e712      	b.n	4852 <__aeabi_dmul+0x24a>

00004a2c <__gedf2>:
    4a2c:	f04f 3cff 	mov.w	ip, #4294967295
    4a30:	e006      	b.n	4a40 <__cmpdf2+0x4>
    4a32:	bf00      	nop

00004a34 <__ledf2>:
    4a34:	f04f 0c01 	mov.w	ip, #1
    4a38:	e002      	b.n	4a40 <__cmpdf2+0x4>
    4a3a:	bf00      	nop

00004a3c <__cmpdf2>:
    4a3c:	f04f 0c01 	mov.w	ip, #1
    4a40:	f84d cd04 	str.w	ip, [sp, #-4]!
    4a44:	ea4f 0c41 	mov.w	ip, r1, lsl #1
    4a48:	ea7f 5c6c 	mvns.w	ip, ip, asr #21
    4a4c:	ea4f 0c43 	mov.w	ip, r3, lsl #1
    4a50:	bf18      	it	ne
    4a52:	ea7f 5c6c 	mvnsne.w	ip, ip, asr #21
    4a56:	d01b      	beq.n	4a90 <__cmpdf2+0x54>
    4a58:	b001      	add	sp, #4
    4a5a:	ea50 0c41 	orrs.w	ip, r0, r1, lsl #1
    4a5e:	bf0c      	ite	eq
    4a60:	ea52 0c43 	orrseq.w	ip, r2, r3, lsl #1
    4a64:	ea91 0f03 	teqne	r1, r3
    4a68:	bf02      	ittt	eq
    4a6a:	ea90 0f02 	teqeq	r0, r2
    4a6e:	2000      	moveq	r0, #0
    4a70:	4770      	bxeq	lr
    4a72:	f110 0f00 	cmn.w	r0, #0
    4a76:	ea91 0f03 	teq	r1, r3
    4a7a:	bf58      	it	pl
    4a7c:	4299      	cmppl	r1, r3
    4a7e:	bf08      	it	eq
    4a80:	4290      	cmpeq	r0, r2
    4a82:	bf2c      	ite	cs
    4a84:	17d8      	asrcs	r0, r3, #31
    4a86:	ea6f 70e3 	mvncc.w	r0, r3, asr #31
    4a8a:	f040 0001 	orr.w	r0, r0, #1
    4a8e:	4770      	bx	lr
    4a90:	ea4f 0c41 	mov.w	ip, r1, lsl #1
    4a94:	ea7f 5c6c 	mvns.w	ip, ip, asr #21
    4a98:	d102      	bne.n	4aa0 <__cmpdf2+0x64>
    4a9a:	ea50 3c01 	orrs.w	ip, r0, r1, lsl #12
    4a9e:	d107      	bne.n	4ab0 <__cmpdf2+0x74>
    4aa0:	ea4f 0c43 	mov.w	ip, r3, lsl #1
    4aa4:	ea7f 5c6c 	mvns.w	ip, ip, asr #21
    4aa8:	d1d6      	bne.n	4a58 <__cmpdf2+0x1c>
    4aaa:	ea52 3c03 	orrs.w	ip, r2, r3, lsl #12
    4aae:	d0d3      	beq.n	4a58 <__cmpdf2+0x1c>
    4ab0:	f85d 0b04 	ldr.w	r0, [sp], #4
    4ab4:	4770      	bx	lr
    4ab6:	bf00      	nop

00004ab8 <__aeabi_cdrcmple>:
    4ab8:	4684      	mov	ip, r0
    4aba:	4610      	mov	r0, r2
    4abc:	4662      	mov	r2, ip
    4abe:	468c      	mov	ip, r1
    4ac0:	4619      	mov	r1, r3
    4ac2:	4663      	mov	r3, ip
    4ac4:	e000      	b.n	4ac8 <__aeabi_cdcmpeq>
    4ac6:	bf00      	nop

00004ac8 <__aeabi_cdcmpeq>:
    4ac8:	b501      	push	{r0, lr}
    4aca:	f7ff ffb7 	bl	4a3c <__cmpdf2>
    4ace:	2800      	cmp	r0, #0
    4ad0:	bf48      	it	mi
    4ad2:	f110 0f00 	cmnmi.w	r0, #0
    4ad6:	bd01      	pop	{r0, pc}

00004ad8 <__aeabi_dcmpeq>:
    4ad8:	f84d ed08 	str.w	lr, [sp, #-8]!
    4adc:	f7ff fff4 	bl	4ac8 <__aeabi_cdcmpeq>
    4ae0:	bf0c      	ite	eq
    4ae2:	2001      	moveq	r0, #1
    4ae4:	2000      	movne	r0, #0
    4ae6:	f85d fb08 	ldr.w	pc, [sp], #8
    4aea:	bf00      	nop

00004aec <__aeabi_dcmplt>:
    4aec:	f84d ed08 	str.w	lr, [sp, #-8]!
    4af0:	f7ff ffea 	bl	4ac8 <__aeabi_cdcmpeq>
    4af4:	bf34      	ite	cc
    4af6:	2001      	movcc	r0, #1
    4af8:	2000      	movcs	r0, #0
    4afa:	f85d fb08 	ldr.w	pc, [sp], #8
    4afe:	bf00      	nop

00004b00 <__aeabi_dcmple>:
    4b00:	f84d ed08 	str.w	lr, [sp, #-8]!
    4b04:	f7ff ffe0 	bl	4ac8 <__aeabi_cdcmpeq>
    4b08:	bf94      	ite	ls
    4b0a:	2001      	movls	r0, #1
    4b0c:	2000      	movhi	r0, #0
    4b0e:	f85d fb08 	ldr.w	pc, [sp], #8
    4b12:	bf00      	nop

00004b14 <__aeabi_dcmpge>:
    4b14:	f84d ed08 	str.w	lr, [sp, #-8]!
    4b18:	f7ff ffce 	bl	4ab8 <__aeabi_cdrcmple>
    4b1c:	bf94      	ite	ls
    4b1e:	2001      	movls	r0, #1
    4b20:	2000      	movhi	r0, #0
    4b22:	f85d fb08 	ldr.w	pc, [sp], #8
    4b26:	bf00      	nop

00004b28 <__aeabi_dcmpgt>:
    4b28:	f84d ed08 	str.w	lr, [sp, #-8]!
    4b2c:	f7ff ffc4 	bl	4ab8 <__aeabi_cdrcmple>
    4b30:	bf34      	ite	cc
    4b32:	2001      	movcc	r0, #1
    4b34:	2000      	movcs	r0, #0
    4b36:	f85d fb08 	ldr.w	pc, [sp], #8
    4b3a:	bf00      	nop

00004b3c <__aeabi_dcmpun>:
    4b3c:	ea4f 0c41 	mov.w	ip, r1, lsl #1
    4b40:	ea7f 5c6c 	mvns.w	ip, ip, asr #21
    4b44:	d102      	bne.n	4b4c <__aeabi_dcmpun+0x10>
    4b46:	ea50 3c01 	orrs.w	ip, r0, r1, lsl #12
    4b4a:	d10a      	bne.n	4b62 <__aeabi_dcmpun+0x26>
    4b4c:	ea4f 0c43 	mov.w	ip, r3, lsl #1
    4b50:	ea7f 5c6c 	mvns.w	ip, ip, asr #21
    4b54:	d102      	bne.n	4b5c <__aeabi_dcmpun+0x20>
    4b56:	ea52 3c03 	orrs.w	ip, r2, r3, lsl #12
    4b5a:	d102      	bne.n	4b62 <__aeabi_dcmpun+0x26>
    4b5c:	f04f 0000 	mov.w	r0, #0
    4b60:	4770      	bx	lr
    4b62:	f04f 0001 	mov.w	r0, #1
    4b66:	4770      	bx	lr

00004b68 <__aeabi_d2f>:
    4b68:	ea4f 0241 	mov.w	r2, r1, lsl #1
    4b6c:	f1b2 43e0 	subs.w	r3, r2, #1879048192	; 0x70000000
    4b70:	bf24      	itt	cs
    4b72:	f5b3 1c00 	subscs.w	ip, r3, #2097152	; 0x200000
    4b76:	f1dc 5cfe 	rsbscs	ip, ip, #532676608	; 0x1fc00000
    4b7a:	d90d      	bls.n	4b98 <__aeabi_d2f+0x30>
    4b7c:	f001 4c00 	and.w	ip, r1, #2147483648	; 0x80000000
    4b80:	ea4f 02c0 	mov.w	r2, r0, lsl #3
    4b84:	ea4c 7050 	orr.w	r0, ip, r0, lsr #29
    4b88:	f1b2 4f00 	cmp.w	r2, #2147483648	; 0x80000000
    4b8c:	eb40 0083 	adc.w	r0, r0, r3, lsl #2
    4b90:	bf08      	it	eq
    4b92:	f020 0001 	biceq.w	r0, r0, #1
    4b96:	4770      	bx	lr
    4b98:	f011 4f80 	tst.w	r1, #1073741824	; 0x40000000
    4b9c:	d121      	bne.n	4be2 <__aeabi_d2f+0x7a>
    4b9e:	f113 7238 	adds.w	r2, r3, #48234496	; 0x2e00000
    4ba2:	bfbc      	itt	lt
    4ba4:	f001 4000 	andlt.w	r0, r1, #2147483648	; 0x80000000
    4ba8:	4770      	bxlt	lr
    4baa:	f441 1180 	orr.w	r1, r1, #1048576	; 0x100000
    4bae:	ea4f 5252 	mov.w	r2, r2, lsr #21
    4bb2:	f1c2 0218 	rsb	r2, r2, #24
    4bb6:	f1c2 0c20 	rsb	ip, r2, #32
    4bba:	fa10 f30c 	lsls.w	r3, r0, ip
    4bbe:	fa20 f002 	lsr.w	r0, r0, r2
    4bc2:	bf18      	it	ne
    4bc4:	f040 0001 	orrne.w	r0, r0, #1
    4bc8:	ea4f 23c1 	mov.w	r3, r1, lsl #11
    4bcc:	ea4f 23d3 	mov.w	r3, r3, lsr #11
    4bd0:	fa03 fc0c 	lsl.w	ip, r3, ip
    4bd4:	ea40 000c 	orr.w	r0, r0, ip
    4bd8:	fa23 f302 	lsr.w	r3, r3, r2
    4bdc:	ea4f 0343 	mov.w	r3, r3, lsl #1
    4be0:	e7cc      	b.n	4b7c <__aeabi_d2f+0x14>
    4be2:	ea7f 5362 	mvns.w	r3, r2, asr #21
    4be6:	d107      	bne.n	4bf8 <__aeabi_d2f+0x90>
    4be8:	ea50 3301 	orrs.w	r3, r0, r1, lsl #12
    4bec:	bf1e      	ittt	ne
    4bee:	f04f 40fe 	movne.w	r0, #2130706432	; 0x7f000000
    4bf2:	f440 0040 	orrne.w	r0, r0, #12582912	; 0xc00000
    4bf6:	4770      	bxne	lr
    4bf8:	f001 4000 	and.w	r0, r1, #2147483648	; 0x80000000
    4bfc:	f040 40fe 	orr.w	r0, r0, #2130706432	; 0x7f000000
    4c00:	f440 0000 	orr.w	r0, r0, #8388608	; 0x800000
    4c04:	4770      	bx	lr
    4c06:	bf00      	nop

00004c08 <__errno>:
    4c08:	4b01      	ldr	r3, [pc, #4]	; (4c10 <__errno+0x8>)
    4c0a:	6818      	ldr	r0, [r3, #0]
    4c0c:	4770      	bx	lr
    4c0e:	bf00      	nop
    4c10:	200000f0 	.word	0x200000f0

00004c14 <__libc_init_array>:
    4c14:	b570      	push	{r4, r5, r6, lr}
    4c16:	4e0d      	ldr	r6, [pc, #52]	; (4c4c <__libc_init_array+0x38>)
    4c18:	4c0d      	ldr	r4, [pc, #52]	; (4c50 <__libc_init_array+0x3c>)
    4c1a:	1ba4      	subs	r4, r4, r6
    4c1c:	10a4      	asrs	r4, r4, #2
    4c1e:	2500      	movs	r5, #0
    4c20:	42a5      	cmp	r5, r4
    4c22:	d109      	bne.n	4c38 <__libc_init_array+0x24>
    4c24:	4e0b      	ldr	r6, [pc, #44]	; (4c54 <__libc_init_array+0x40>)
    4c26:	4c0c      	ldr	r4, [pc, #48]	; (4c58 <__libc_init_array+0x44>)
    4c28:	f000 f944 	bl	4eb4 <_init>
    4c2c:	1ba4      	subs	r4, r4, r6
    4c2e:	10a4      	asrs	r4, r4, #2
    4c30:	2500      	movs	r5, #0
    4c32:	42a5      	cmp	r5, r4
    4c34:	d105      	bne.n	4c42 <__libc_init_array+0x2e>
    4c36:	bd70      	pop	{r4, r5, r6, pc}
    4c38:	f856 3025 	ldr.w	r3, [r6, r5, lsl #2]
    4c3c:	4798      	blx	r3
    4c3e:	3501      	adds	r5, #1
    4c40:	e7ee      	b.n	4c20 <__libc_init_array+0xc>
    4c42:	f856 3025 	ldr.w	r3, [r6, r5, lsl #2]
    4c46:	4798      	blx	r3
    4c48:	3501      	adds	r5, #1
    4c4a:	e7f2      	b.n	4c32 <__libc_init_array+0x1e>
    4c4c:	00004ec0 	.word	0x00004ec0
    4c50:	00004ec0 	.word	0x00004ec0
    4c54:	00004ec0 	.word	0x00004ec0
    4c58:	00004ec4 	.word	0x00004ec4

00004c5c <dummy_register>:
    4c5c:	20000008                                ... 

00004c60 <abort_fifo_start>:
    4c60:	20000012                                ... 

00004c64 <wr_pdram_start>:
    4c64:	2000004e                                N.. 

00004c68 <cf_pdram_start>:
    4c68:	20000038                                8.. 

00004c6c <rd_pdram_start>:
    4c6c:	2000004b 682f2e2e 732f6c61 682f6372     K.. ../hal/src/h
    4c7c:	695f6c61 6d5f6332 6e79735f 00632e63     al_i2c_m_sync.c.
    4c8c:	682f2e2e 732f6c61 682f6372 695f6c61     ../hal/src/hal_i
    4c9c:	00632e6f 682f2e2e 732f6c61 682f6372     o.c.../hal/src/h
    4cac:	735f6c61 6d5f6970 616d645f 0000632e     al_spi_m_dma.c..

00004cbc <_cfgs>:
    4cbc:	00200e00 08100000 00200f00 14100000     .. ....... .....
	...
    4dbc:	40003000 40003400 41012000 41014000     .0.@.4.@. .A.@.A
    4dcc:	43000000 43000400 43000800 43000c00     ...C...C...C...C

00004ddc <_usarts>:
	...

00004df4 <_i2cms>:
    4df4:	00000003 70200014 00000100 000000ff     ...... p........
    4e04:	00d70000 05f5e100                       ........

00004e0c <_i2css>:
	...

00004e1c <sercomspi_regs>:
    4e1c:	0030000c 00020000 00000000 01ff0004     ..0.............
    4e2c:	00000005 682f2e2e 732f6c70 6f637265     ....../hpl/serco
    4e3c:	70682f6d 65735f6c 6d6f6372 0000632e     m/hpl_sercom.c..
    4e4c:	74727173 00000000                       sqrt....

00004e54 <__sf_fake_stderr>:
	...

00004e74 <__sf_fake_stdin>:
	...

00004e94 <__sf_fake_stdout>:
	...

00004eb4 <_init>:
    4eb4:	b5f8      	push	{r3, r4, r5, r6, r7, lr}
    4eb6:	bf00      	nop
    4eb8:	bcf8      	pop	{r3, r4, r5, r6, r7}
    4eba:	bc08      	pop	{r3}
    4ebc:	469e      	mov	lr, r3
    4ebe:	4770      	bx	lr

00004ec0 <__init_array_start>:
    4ec0:	00000289 	.word	0x00000289

00004ec4 <_fini>:
    4ec4:	b5f8      	push	{r3, r4, r5, r6, r7, lr}
    4ec6:	bf00      	nop
    4ec8:	bcf8      	pop	{r3, r4, r5, r6, r7}
    4eca:	bc08      	pop	{r3}
    4ecc:	469e      	mov	lr, r3
    4ece:	4770      	bx	lr

00004ed0 <__fini_array_start>:
    4ed0:	00000265 	.word	0x00000265
